
test_pubsub.ko:     формат файла elf64-x86-64


Дизассемблирование раздела .text:

0000000000000000 <__pfx_init_buffer>:
       0:	90                   	nop
       1:	90                   	nop
       2:	90                   	nop
       3:	90                   	nop
       4:	90                   	nop
       5:	90                   	nop
       6:	90                   	nop
       7:	90                   	nop
       8:	90                   	nop
       9:	90                   	nop
       a:	90                   	nop
       b:	90                   	nop
       c:	90                   	nop
       d:	90                   	nop
       e:	90                   	nop
       f:	90                   	nop

0000000000000010 <init_buffer>:
      10:	f3 0f 1e fa          	endbr64
      14:	e8 00 00 00 00       	call   19 <init_buffer+0x9>
      19:	55                   	push   %rbp
      1a:	48 89 e5             	mov    %rsp,%rbp
      1d:	41 57                	push   %r15
      1f:	41 56                	push   %r14
      21:	41 55                	push   %r13
      23:	49 89 d5             	mov    %rdx,%r13
      26:	41 54                	push   %r12
      28:	53                   	push   %rbx
      29:	48 83 ec 10          	sub    $0x10,%rsp
      2d:	48 85 f6             	test   %rsi,%rsi
      30:	0f 94 c0             	sete   %al
      33:	48 85 d2             	test   %rdx,%rdx
      36:	0f 94 c2             	sete   %dl
      39:	08 d0                	or     %dl,%al
      3b:	0f 85 c8 02 00 00    	jne    309 <init_buffer+0x2f9>
      41:	48 89 fb             	mov    %rdi,%rbx
      44:	48 85 ff             	test   %rdi,%rdi
      47:	0f 84 bc 02 00 00    	je     309 <init_buffer+0x2f9>
      4d:	65 4c 8b 25 00 00 00 	mov    %gs:0x0(%rip),%r12        # 55 <init_buffer+0x45>
      54:	00 
      55:	49 8d 7c 24 38       	lea    0x38(%r12),%rdi
      5a:	49 89 f6             	mov    %rsi,%r14
      5d:	49 89 f7             	mov    %rsi,%r15
      60:	48 b8 00 00 00 00 00 	movabs $0xdffffc0000000000,%rax
      67:	fc ff df 
      6a:	48 89 fa             	mov    %rdi,%rdx
      6d:	4d 0f af f5          	imul   %r13,%r14
      71:	48 c1 ea 03          	shr    $0x3,%rdx
      75:	80 3c 02 00          	cmpb   $0x0,(%rdx,%rax,1)
      79:	0f 85 d5 02 00 00    	jne    354 <init_buffer+0x344>
      7f:	49 8b 44 24 38       	mov    0x38(%r12),%rax
      84:	65 4c 8b 25 00 00 00 	mov    %gs:0x0(%rip),%r12        # 8c <init_buffer+0x7c>
      8b:	00 
      8c:	49 8d 7c 24 38       	lea    0x38(%r12),%rdi
      91:	48 89 45 d0          	mov    %rax,-0x30(%rbp)
      95:	48 b8 00 00 00 00 00 	movabs $0xdffffc0000000000,%rax
      9c:	fc ff df 
      9f:	48 89 fa             	mov    %rdi,%rdx
      a2:	48 c1 ea 03          	shr    $0x3,%rdx
      a6:	80 3c 02 00          	cmpb   $0x0,(%rdx,%rax,1)
      aa:	0f 85 83 02 00 00    	jne    333 <init_buffer+0x323>
      b0:	49 c7 44 24 38 00 00 	movq   $0x0,0x38(%r12)
      b7:	00 00 
      b9:	4c 89 f7             	mov    %r14,%rdi
      bc:	e8 00 00 00 00       	call   c1 <init_buffer+0xb1>
      c1:	48 ba 00 00 00 00 00 	movabs $0xdffffc0000000000,%rdx
      c8:	fc ff df 
      cb:	49 89 c4             	mov    %rax,%r12
      ce:	65 48 8b 05 00 00 00 	mov    %gs:0x0(%rip),%rax        # d6 <init_buffer+0xc6>
      d5:	00 
      d6:	48 8d 78 38          	lea    0x38(%rax),%rdi
      da:	48 89 fe             	mov    %rdi,%rsi
      dd:	48 c1 ee 03          	shr    $0x3,%rsi
      e1:	80 3c 16 00          	cmpb   $0x0,(%rsi,%rdx,1)
      e5:	0f 85 36 02 00 00    	jne    321 <init_buffer+0x311>
      eb:	48 8b 4d d0          	mov    -0x30(%rbp),%rcx
      ef:	48 8d 7b 10          	lea    0x10(%rbx),%rdi
      f3:	48 89 fa             	mov    %rdi,%rdx
      f6:	48 89 48 38          	mov    %rcx,0x38(%rax)
      fa:	48 c1 ea 03          	shr    $0x3,%rdx
      fe:	48 b8 00 00 00 00 00 	movabs $0xdffffc0000000000,%rax
     105:	fc ff df 
     108:	80 3c 02 00          	cmpb   $0x0,(%rdx,%rax,1)
     10c:	0f 85 05 02 00 00    	jne    317 <init_buffer+0x307>
     112:	4c 89 63 10          	mov    %r12,0x10(%rbx)
     116:	4d 85 e4             	test   %r12,%r12
     119:	0f 84 67 02 00 00    	je     386 <init_buffer+0x376>
     11f:	48 b8 00 00 00 00 00 	movabs $0xdffffc0000000000,%rax
     126:	fc ff df 
     129:	48 89 da             	mov    %rbx,%rdx
     12c:	48 c1 ea 03          	shr    $0x3,%rdx
     130:	80 3c 02 00          	cmpb   $0x0,(%rdx,%rax,1)
     134:	0f 85 03 02 00 00    	jne    33d <init_buffer+0x32d>
     13a:	48 8d 7b 08          	lea    0x8(%rbx),%rdi
     13e:	48 89 1b             	mov    %rbx,(%rbx)
     141:	48 b8 00 00 00 00 00 	movabs $0xdffffc0000000000,%rax
     148:	fc ff df 
     14b:	48 89 fa             	mov    %rdi,%rdx
     14e:	48 c1 ea 03          	shr    $0x3,%rdx
     152:	80 3c 02 00          	cmpb   $0x0,(%rdx,%rax,1)
     156:	0f 85 16 02 00 00    	jne    372 <init_buffer+0x362>
     15c:	48 8d 7b 18          	lea    0x18(%rbx),%rdi
     160:	4d 29 ee             	sub    %r13,%r14
     163:	48 89 5b 08          	mov    %rbx,0x8(%rbx)
     167:	48 b8 00 00 00 00 00 	movabs $0xdffffc0000000000,%rax
     16e:	fc ff df 
     171:	48 89 fa             	mov    %rdi,%rdx
     174:	4d 01 e6             	add    %r12,%r14
     177:	48 c1 ea 03          	shr    $0x3,%rdx
     17b:	80 3c 02 00          	cmpb   $0x0,(%rdx,%rax,1)
     17f:	0f 85 e3 01 00 00    	jne    368 <init_buffer+0x358>
     185:	48 8d 7b 20          	lea    0x20(%rbx),%rdi
     189:	4c 89 73 18          	mov    %r14,0x18(%rbx)
     18d:	48 b8 00 00 00 00 00 	movabs $0xdffffc0000000000,%rax
     194:	fc ff df 
     197:	48 89 fa             	mov    %rdi,%rdx
     19a:	48 c1 ea 03          	shr    $0x3,%rdx
     19e:	80 3c 02 00          	cmpb   $0x0,(%rdx,%rax,1)
     1a2:	0f 85 d4 01 00 00    	jne    37c <init_buffer+0x36c>
     1a8:	48 8d 7b 28          	lea    0x28(%rbx),%rdi
     1ac:	4c 89 63 20          	mov    %r12,0x20(%rbx)
     1b0:	48 b8 00 00 00 00 00 	movabs $0xdffffc0000000000,%rax
     1b7:	fc ff df 
     1ba:	48 89 fa             	mov    %rdi,%rdx
     1bd:	48 c1 ea 03          	shr    $0x3,%rdx
     1c1:	80 3c 02 00          	cmpb   $0x0,(%rdx,%rax,1)
     1c5:	0f 85 7f 01 00 00    	jne    34a <init_buffer+0x33a>
     1cb:	48 8d 7b 30          	lea    0x30(%rbx),%rdi
     1cf:	4c 89 63 28          	mov    %r12,0x28(%rbx)
     1d3:	48 b8 00 00 00 00 00 	movabs $0xdffffc0000000000,%rax
     1da:	fc ff df 
     1dd:	48 89 fa             	mov    %rdi,%rdx
     1e0:	48 c1 ea 03          	shr    $0x3,%rdx
     1e4:	0f b6 04 02          	movzbl (%rdx,%rax,1),%eax
     1e8:	84 c0                	test   %al,%al
     1ea:	74 08                	je     1f4 <init_buffer+0x1e4>
     1ec:	3c 03                	cmp    $0x3,%al
     1ee:	0f 8e f0 00 00 00    	jle    2e4 <init_buffer+0x2d4>
     1f4:	48 8d 7b 34          	lea    0x34(%rbx),%rdi
     1f8:	c7 43 30 00 00 00 00 	movl   $0x0,0x30(%rbx)
     1ff:	48 b8 00 00 00 00 00 	movabs $0xdffffc0000000000,%rax
     206:	fc ff df 
     209:	48 89 fa             	mov    %rdi,%rdx
     20c:	48 c1 ea 03          	shr    $0x3,%rdx
     210:	0f b6 14 02          	movzbl (%rdx,%rax,1),%edx
     214:	48 89 f8             	mov    %rdi,%rax
     217:	83 e0 07             	and    $0x7,%eax
     21a:	83 c0 03             	add    $0x3,%eax
     21d:	38 d0                	cmp    %dl,%al
     21f:	7c 08                	jl     229 <init_buffer+0x219>
     221:	84 d2                	test   %dl,%dl
     223:	0f 85 d6 00 00 00    	jne    2ff <init_buffer+0x2ef>
     229:	48 8d 7b 3c          	lea    0x3c(%rbx),%rdi
     22d:	c7 43 34 00 00 00 00 	movl   $0x0,0x34(%rbx)
     234:	48 b8 00 00 00 00 00 	movabs $0xdffffc0000000000,%rax
     23b:	fc ff df 
     23e:	48 89 fa             	mov    %rdi,%rdx
     241:	48 c1 ea 03          	shr    $0x3,%rdx
     245:	0f b6 14 02          	movzbl (%rdx,%rax,1),%edx
     249:	48 89 f8             	mov    %rdi,%rax
     24c:	83 e0 07             	and    $0x7,%eax
     24f:	83 c0 03             	add    $0x3,%eax
     252:	38 d0                	cmp    %dl,%al
     254:	7c 08                	jl     25e <init_buffer+0x24e>
     256:	84 d2                	test   %dl,%dl
     258:	0f 85 97 00 00 00    	jne    2f5 <init_buffer+0x2e5>
     25e:	48 8d 7b 38          	lea    0x38(%rbx),%rdi
     262:	c7 43 3c 00 00 00 00 	movl   $0x0,0x3c(%rbx)
     269:	48 b8 00 00 00 00 00 	movabs $0xdffffc0000000000,%rax
     270:	fc ff df 
     273:	48 89 fa             	mov    %rdi,%rdx
     276:	48 c1 ea 03          	shr    $0x3,%rdx
     27a:	0f b6 04 02          	movzbl (%rdx,%rax,1),%eax
     27e:	84 c0                	test   %al,%al
     280:	74 04                	je     286 <init_buffer+0x276>
     282:	3c 03                	cmp    $0x3,%al
     284:	7e 68                	jle    2ee <init_buffer+0x2de>
     286:	48 8d 7b 48          	lea    0x48(%rbx),%rdi
     28a:	c7 43 38 00 00 00 00 	movl   $0x0,0x38(%rbx)
     291:	48 b8 00 00 00 00 00 	movabs $0xdffffc0000000000,%rax
     298:	fc ff df 
     29b:	48 89 fa             	mov    %rdi,%rdx
     29e:	48 c1 ea 03          	shr    $0x3,%rdx
     2a2:	80 3c 02 00          	cmpb   $0x0,(%rdx,%rax,1)
     2a6:	75 68                	jne    310 <init_buffer+0x300>
     2a8:	48 8d 7b 40          	lea    0x40(%rbx),%rdi
     2ac:	4c 89 7b 48          	mov    %r15,0x48(%rbx)
     2b0:	48 b8 00 00 00 00 00 	movabs $0xdffffc0000000000,%rax
     2b7:	fc ff df 
     2ba:	48 89 fa             	mov    %rdi,%rdx
     2bd:	48 c1 ea 03          	shr    $0x3,%rdx
     2c1:	80 3c 02 00          	cmpb   $0x0,(%rdx,%rax,1)
     2c5:	0f 85 93 00 00 00    	jne    35e <init_buffer+0x34e>
     2cb:	4c 89 6b 40          	mov    %r13,0x40(%rbx)
     2cf:	31 c0                	xor    %eax,%eax
     2d1:	48 83 c4 10          	add    $0x10,%rsp
     2d5:	5b                   	pop    %rbx
     2d6:	41 5c                	pop    %r12
     2d8:	41 5d                	pop    %r13
     2da:	41 5e                	pop    %r14
     2dc:	41 5f                	pop    %r15
     2de:	5d                   	pop    %rbp
     2df:	e9 00 00 00 00       	jmp    2e4 <init_buffer+0x2d4>
     2e4:	e8 00 00 00 00       	call   2e9 <init_buffer+0x2d9>
     2e9:	e9 06 ff ff ff       	jmp    1f4 <init_buffer+0x1e4>
     2ee:	e8 00 00 00 00       	call   2f3 <init_buffer+0x2e3>
     2f3:	eb 91                	jmp    286 <init_buffer+0x276>
     2f5:	e8 00 00 00 00       	call   2fa <init_buffer+0x2ea>
     2fa:	e9 5f ff ff ff       	jmp    25e <init_buffer+0x24e>
     2ff:	e8 00 00 00 00       	call   304 <init_buffer+0x2f4>
     304:	e9 20 ff ff ff       	jmp    229 <init_buffer+0x219>
     309:	b8 ea ff ff ff       	mov    $0xffffffea,%eax
     30e:	eb c1                	jmp    2d1 <init_buffer+0x2c1>
     310:	e8 00 00 00 00       	call   315 <init_buffer+0x305>
     315:	eb 91                	jmp    2a8 <init_buffer+0x298>
     317:	e8 00 00 00 00       	call   31c <init_buffer+0x30c>
     31c:	e9 f1 fd ff ff       	jmp    112 <init_buffer+0x102>
     321:	48 89 45 c8          	mov    %rax,-0x38(%rbp)
     325:	e8 00 00 00 00       	call   32a <init_buffer+0x31a>
     32a:	48 8b 45 c8          	mov    -0x38(%rbp),%rax
     32e:	e9 b8 fd ff ff       	jmp    eb <init_buffer+0xdb>
     333:	e8 00 00 00 00       	call   338 <init_buffer+0x328>
     338:	e9 73 fd ff ff       	jmp    b0 <init_buffer+0xa0>
     33d:	48 89 df             	mov    %rbx,%rdi
     340:	e8 00 00 00 00       	call   345 <init_buffer+0x335>
     345:	e9 f0 fd ff ff       	jmp    13a <init_buffer+0x12a>
     34a:	e8 00 00 00 00       	call   34f <init_buffer+0x33f>
     34f:	e9 77 fe ff ff       	jmp    1cb <init_buffer+0x1bb>
     354:	e8 00 00 00 00       	call   359 <init_buffer+0x349>
     359:	e9 21 fd ff ff       	jmp    7f <init_buffer+0x6f>
     35e:	e8 00 00 00 00       	call   363 <init_buffer+0x353>
     363:	e9 63 ff ff ff       	jmp    2cb <init_buffer+0x2bb>
     368:	e8 00 00 00 00       	call   36d <init_buffer+0x35d>
     36d:	e9 13 fe ff ff       	jmp    185 <init_buffer+0x175>
     372:	e8 00 00 00 00       	call   377 <init_buffer+0x367>
     377:	e9 e0 fd ff ff       	jmp    15c <init_buffer+0x14c>
     37c:	e8 00 00 00 00       	call   381 <init_buffer+0x371>
     381:	e9 22 fe ff ff       	jmp    1a8 <init_buffer+0x198>
     386:	b8 f4 ff ff ff       	mov    $0xfffffff4,%eax
     38b:	e9 41 ff ff ff       	jmp    2d1 <init_buffer+0x2c1>

0000000000000390 <__pfx_deinit_buffer>:
     390:	90                   	nop
     391:	90                   	nop
     392:	90                   	nop
     393:	90                   	nop
     394:	90                   	nop
     395:	90                   	nop
     396:	90                   	nop
     397:	90                   	nop
     398:	90                   	nop
     399:	90                   	nop
     39a:	90                   	nop
     39b:	90                   	nop
     39c:	90                   	nop
     39d:	90                   	nop
     39e:	90                   	nop
     39f:	90                   	nop

00000000000003a0 <deinit_buffer>:
     3a0:	f3 0f 1e fa          	endbr64
     3a4:	e8 00 00 00 00       	call   3a9 <deinit_buffer+0x9>
     3a9:	48 85 ff             	test   %rdi,%rdi
     3ac:	74 38                	je     3e6 <deinit_buffer+0x46>
     3ae:	48 b8 00 00 00 00 00 	movabs $0xdffffc0000000000,%rax
     3b5:	fc ff df 
     3b8:	55                   	push   %rbp
     3b9:	48 89 e5             	mov    %rsp,%rbp
     3bc:	53                   	push   %rbx
     3bd:	48 89 fb             	mov    %rdi,%rbx
     3c0:	48 8d 7f 10          	lea    0x10(%rdi),%rdi
     3c4:	48 89 fa             	mov    %rdi,%rdx
     3c7:	48 c1 ea 03          	shr    $0x3,%rdx
     3cb:	80 3c 02 00          	cmpb   $0x0,(%rdx,%rax,1)
     3cf:	75 1f                	jne    3f0 <deinit_buffer+0x50>
     3d1:	48 8b 7b 10          	mov    0x10(%rbx),%rdi
     3d5:	e8 00 00 00 00       	call   3da <deinit_buffer+0x3a>
     3da:	48 8b 5d f8          	mov    -0x8(%rbp),%rbx
     3de:	31 c0                	xor    %eax,%eax
     3e0:	c9                   	leave
     3e1:	e9 00 00 00 00       	jmp    3e6 <deinit_buffer+0x46>
     3e6:	b8 ea ff ff ff       	mov    $0xffffffea,%eax
     3eb:	e9 00 00 00 00       	jmp    3f0 <deinit_buffer+0x50>
     3f0:	e8 00 00 00 00       	call   3f5 <deinit_buffer+0x55>
     3f5:	eb da                	jmp    3d1 <deinit_buffer+0x31>
     3f7:	66 0f 1f 84 00 00 00 	nopw   0x0(%rax,%rax,1)
     3fe:	00 00 

0000000000000400 <__pfx_is_buffer_full>:
     400:	90                   	nop
     401:	90                   	nop
     402:	90                   	nop
     403:	90                   	nop
     404:	90                   	nop
     405:	90                   	nop
     406:	90                   	nop
     407:	90                   	nop
     408:	90                   	nop
     409:	90                   	nop
     40a:	90                   	nop
     40b:	90                   	nop
     40c:	90                   	nop
     40d:	90                   	nop
     40e:	90                   	nop
     40f:	90                   	nop

0000000000000410 <is_buffer_full>:
     410:	f3 0f 1e fa          	endbr64
     414:	e8 00 00 00 00       	call   419 <is_buffer_full+0x9>
     419:	48 85 ff             	test   %rdi,%rdi
     41c:	0f 84 d5 00 00 00    	je     4f7 <is_buffer_full+0xe7>
     422:	48 b8 00 00 00 00 00 	movabs $0xdffffc0000000000,%rax
     429:	fc ff df 
     42c:	55                   	push   %rbp
     42d:	48 89 e5             	mov    %rsp,%rbp
     430:	41 54                	push   %r12
     432:	53                   	push   %rbx
     433:	48 89 fb             	mov    %rdi,%rbx
     436:	48 8d 7f 20          	lea    0x20(%rdi),%rdi
     43a:	48 89 fa             	mov    %rdi,%rdx
     43d:	48 c1 ea 03          	shr    $0x3,%rdx
     441:	80 3c 02 00          	cmpb   $0x0,(%rdx,%rax,1)
     445:	0f 85 c0 00 00 00    	jne    50b <is_buffer_full+0xfb>
     44b:	48 8d 7b 28          	lea    0x28(%rbx),%rdi
     44f:	4c 8b 63 20          	mov    0x20(%rbx),%r12
     453:	48 b8 00 00 00 00 00 	movabs $0xdffffc0000000000,%rax
     45a:	fc ff df 
     45d:	48 89 fa             	mov    %rdi,%rdx
     460:	48 c1 ea 03          	shr    $0x3,%rdx
     464:	80 3c 02 00          	cmpb   $0x0,(%rdx,%rax,1)
     468:	0f 85 93 00 00 00    	jne    501 <is_buffer_full+0xf1>
     46e:	31 c0                	xor    %eax,%eax
     470:	4c 3b 63 28          	cmp    0x28(%rbx),%r12
     474:	74 09                	je     47f <is_buffer_full+0x6f>
     476:	5b                   	pop    %rbx
     477:	41 5c                	pop    %r12
     479:	5d                   	pop    %rbp
     47a:	e9 00 00 00 00       	jmp    47f <is_buffer_full+0x6f>
     47f:	48 b8 00 00 00 00 00 	movabs $0xdffffc0000000000,%rax
     486:	fc ff df 
     489:	48 8d 7b 3c          	lea    0x3c(%rbx),%rdi
     48d:	48 89 fa             	mov    %rdi,%rdx
     490:	48 c1 ea 03          	shr    $0x3,%rdx
     494:	0f b6 14 02          	movzbl (%rdx,%rax,1),%edx
     498:	48 89 f8             	mov    %rdi,%rax
     49b:	83 e0 07             	and    $0x7,%eax
     49e:	83 c0 03             	add    $0x3,%eax
     4a1:	38 d0                	cmp    %dl,%al
     4a3:	7c 04                	jl     4a9 <is_buffer_full+0x99>
     4a5:	84 d2                	test   %dl,%dl
     4a7:	75 40                	jne    4e9 <is_buffer_full+0xd9>
     4a9:	48 8d 7b 34          	lea    0x34(%rbx),%rdi
     4ad:	44 8b 63 3c          	mov    0x3c(%rbx),%r12d
     4b1:	48 b8 00 00 00 00 00 	movabs $0xdffffc0000000000,%rax
     4b8:	fc ff df 
     4bb:	48 89 fa             	mov    %rdi,%rdx
     4be:	48 c1 ea 03          	shr    $0x3,%rdx
     4c2:	0f b6 14 02          	movzbl (%rdx,%rax,1),%edx
     4c6:	48 89 f8             	mov    %rdi,%rax
     4c9:	83 e0 07             	and    $0x7,%eax
     4cc:	83 c0 03             	add    $0x3,%eax
     4cf:	38 d0                	cmp    %dl,%al
     4d1:	7c 04                	jl     4d7 <is_buffer_full+0xc7>
     4d3:	84 d2                	test   %dl,%dl
     4d5:	75 19                	jne    4f0 <is_buffer_full+0xe0>
     4d7:	31 c0                	xor    %eax,%eax
     4d9:	44 3b 63 34          	cmp    0x34(%rbx),%r12d
     4dd:	5b                   	pop    %rbx
     4de:	0f 9f c0             	setg   %al
     4e1:	41 5c                	pop    %r12
     4e3:	5d                   	pop    %rbp
     4e4:	e9 00 00 00 00       	jmp    4e9 <is_buffer_full+0xd9>
     4e9:	e8 00 00 00 00       	call   4ee <is_buffer_full+0xde>
     4ee:	eb b9                	jmp    4a9 <is_buffer_full+0x99>
     4f0:	e8 00 00 00 00       	call   4f5 <is_buffer_full+0xe5>
     4f5:	eb e0                	jmp    4d7 <is_buffer_full+0xc7>
     4f7:	b8 ea ff ff ff       	mov    $0xffffffea,%eax
     4fc:	e9 00 00 00 00       	jmp    501 <is_buffer_full+0xf1>
     501:	e8 00 00 00 00       	call   506 <is_buffer_full+0xf6>
     506:	e9 63 ff ff ff       	jmp    46e <is_buffer_full+0x5e>
     50b:	e8 00 00 00 00       	call   510 <is_buffer_full+0x100>
     510:	e9 36 ff ff ff       	jmp    44b <is_buffer_full+0x3b>
     515:	66 66 2e 0f 1f 84 00 	data16 cs nopw 0x0(%rax,%rax,1)
     51c:	00 00 00 00 

0000000000000520 <__pfx_is_buffer_access_reading>:
     520:	90                   	nop
     521:	90                   	nop
     522:	90                   	nop
     523:	90                   	nop
     524:	90                   	nop
     525:	90                   	nop
     526:	90                   	nop
     527:	90                   	nop
     528:	90                   	nop
     529:	90                   	nop
     52a:	90                   	nop
     52b:	90                   	nop
     52c:	90                   	nop
     52d:	90                   	nop
     52e:	90                   	nop
     52f:	90                   	nop

0000000000000530 <is_buffer_access_reading>:
     530:	f3 0f 1e fa          	endbr64
     534:	e8 00 00 00 00       	call   539 <is_buffer_access_reading+0x9>
     539:	48 b8 00 00 00 00 00 	movabs $0xdffffc0000000000,%rax
     540:	fc ff df 
     543:	55                   	push   %rbp
     544:	48 89 e5             	mov    %rsp,%rbp
     547:	53                   	push   %rbx
     548:	48 89 fb             	mov    %rdi,%rbx
     54b:	48 83 c7 34          	add    $0x34,%rdi
     54f:	48 89 fa             	mov    %rdi,%rdx
     552:	48 c1 ea 03          	shr    $0x3,%rdx
     556:	48 83 ec 08          	sub    $0x8,%rsp
     55a:	0f b6 14 02          	movzbl (%rdx,%rax,1),%edx
     55e:	48 89 f8             	mov    %rdi,%rax
     561:	83 e0 07             	and    $0x7,%eax
     564:	83 c0 03             	add    $0x3,%eax
     567:	38 d0                	cmp    %dl,%al
     569:	7c 04                	jl     56f <is_buffer_access_reading+0x3f>
     56b:	84 d2                	test   %dl,%dl
     56d:	75 4a                	jne    5b9 <is_buffer_access_reading+0x89>
     56f:	3b 73 34             	cmp    0x34(%rbx),%esi
     572:	78 39                	js     5ad <is_buffer_access_reading+0x7d>
     574:	48 b8 00 00 00 00 00 	movabs $0xdffffc0000000000,%rax
     57b:	fc ff df 
     57e:	48 8d 7b 38          	lea    0x38(%rbx),%rdi
     582:	48 89 fa             	mov    %rdi,%rdx
     585:	48 c1 ea 03          	shr    $0x3,%rdx
     589:	0f b6 04 02          	movzbl (%rdx,%rax,1),%eax
     58d:	84 c0                	test   %al,%al
     58f:	74 04                	je     595 <is_buffer_access_reading+0x65>
     591:	3c 03                	cmp    $0x3,%al
     593:	7e 31                	jle    5c6 <is_buffer_access_reading+0x96>
     595:	8b 43 38             	mov    0x38(%rbx),%eax
     598:	29 f0                	sub    %esi,%eax
     59a:	85 c0                	test   %eax,%eax
     59c:	7e 0f                	jle    5ad <is_buffer_access_reading+0x7d>
     59e:	48 8b 5d f8          	mov    -0x8(%rbp),%rbx
     5a2:	b8 01 00 00 00       	mov    $0x1,%eax
     5a7:	c9                   	leave
     5a8:	e9 00 00 00 00       	jmp    5ad <is_buffer_access_reading+0x7d>
     5ad:	48 8b 5d f8          	mov    -0x8(%rbp),%rbx
     5b1:	31 c0                	xor    %eax,%eax
     5b3:	c9                   	leave
     5b4:	e9 00 00 00 00       	jmp    5b9 <is_buffer_access_reading+0x89>
     5b9:	89 75 f4             	mov    %esi,-0xc(%rbp)
     5bc:	e8 00 00 00 00       	call   5c1 <is_buffer_access_reading+0x91>
     5c1:	8b 75 f4             	mov    -0xc(%rbp),%esi
     5c4:	eb a9                	jmp    56f <is_buffer_access_reading+0x3f>
     5c6:	89 75 f4             	mov    %esi,-0xc(%rbp)
     5c9:	e8 00 00 00 00       	call   5ce <is_buffer_access_reading+0x9e>
     5ce:	8b 75 f4             	mov    -0xc(%rbp),%esi
     5d1:	eb c2                	jmp    595 <is_buffer_access_reading+0x65>
     5d3:	66 66 2e 0f 1f 84 00 	data16 cs nopw 0x0(%rax,%rax,1)
     5da:	00 00 00 00 
     5de:	66 90                	xchg   %ax,%ax

00000000000005e0 <__pfx_delete_first_message>:
     5e0:	90                   	nop
     5e1:	90                   	nop
     5e2:	90                   	nop
     5e3:	90                   	nop
     5e4:	90                   	nop
     5e5:	90                   	nop
     5e6:	90                   	nop
     5e7:	90                   	nop
     5e8:	90                   	nop
     5e9:	90                   	nop
     5ea:	90                   	nop
     5eb:	90                   	nop
     5ec:	90                   	nop
     5ed:	90                   	nop
     5ee:	90                   	nop
     5ef:	90                   	nop

00000000000005f0 <delete_first_message>:
     5f0:	f3 0f 1e fa          	endbr64
     5f4:	e8 00 00 00 00       	call   5f9 <delete_first_message+0x9>
     5f9:	48 b8 00 00 00 00 00 	movabs $0xdffffc0000000000,%rax
     600:	fc ff df 
     603:	55                   	push   %rbp
     604:	48 89 e5             	mov    %rsp,%rbp
     607:	41 54                	push   %r12
     609:	53                   	push   %rbx
     60a:	48 89 fb             	mov    %rdi,%rbx
     60d:	48 83 c7 20          	add    $0x20,%rdi
     611:	48 89 fa             	mov    %rdi,%rdx
     614:	48 c1 ea 03          	shr    $0x3,%rdx
     618:	80 3c 02 00          	cmpb   $0x0,(%rdx,%rax,1)
     61c:	0f 85 b5 00 00 00    	jne    6d7 <delete_first_message+0xe7>
     622:	48 8d 7b 18          	lea    0x18(%rbx),%rdi
     626:	4c 8b 63 20          	mov    0x20(%rbx),%r12
     62a:	48 b8 00 00 00 00 00 	movabs $0xdffffc0000000000,%rax
     631:	fc ff df 
     634:	48 89 fa             	mov    %rdi,%rdx
     637:	48 c1 ea 03          	shr    $0x3,%rdx
     63b:	80 3c 02 00          	cmpb   $0x0,(%rdx,%rax,1)
     63f:	0f 85 88 00 00 00    	jne    6cd <delete_first_message+0xdd>
     645:	4c 3b 63 18          	cmp    0x18(%rbx),%r12
     649:	74 5a                	je     6a5 <delete_first_message+0xb5>
     64b:	48 b8 00 00 00 00 00 	movabs $0xdffffc0000000000,%rax
     652:	fc ff df 
     655:	48 8d 7b 40          	lea    0x40(%rbx),%rdi
     659:	48 89 fa             	mov    %rdi,%rdx
     65c:	48 c1 ea 03          	shr    $0x3,%rdx
     660:	80 3c 02 00          	cmpb   $0x0,(%rdx,%rax,1)
     664:	75 7b                	jne    6e1 <delete_first_message+0xf1>
     666:	4c 03 63 40          	add    0x40(%rbx),%r12
     66a:	48 8d 7b 34          	lea    0x34(%rbx),%rdi
     66e:	4c 89 63 20          	mov    %r12,0x20(%rbx)
     672:	48 b8 00 00 00 00 00 	movabs $0xdffffc0000000000,%rax
     679:	fc ff df 
     67c:	48 89 fa             	mov    %rdi,%rdx
     67f:	48 c1 ea 03          	shr    $0x3,%rdx
     683:	0f b6 14 02          	movzbl (%rdx,%rax,1),%edx
     687:	48 89 f8             	mov    %rdi,%rax
     68a:	83 e0 07             	and    $0x7,%eax
     68d:	83 c0 03             	add    $0x3,%eax
     690:	38 d0                	cmp    %dl,%al
     692:	7c 04                	jl     698 <delete_first_message+0xa8>
     694:	84 d2                	test   %dl,%dl
     696:	75 2e                	jne    6c6 <delete_first_message+0xd6>
     698:	83 43 34 01          	addl   $0x1,0x34(%rbx)
     69c:	5b                   	pop    %rbx
     69d:	41 5c                	pop    %r12
     69f:	5d                   	pop    %rbp
     6a0:	e9 00 00 00 00       	jmp    6a5 <delete_first_message+0xb5>
     6a5:	48 b8 00 00 00 00 00 	movabs $0xdffffc0000000000,%rax
     6ac:	fc ff df 
     6af:	48 8d 7b 10          	lea    0x10(%rbx),%rdi
     6b3:	48 89 fa             	mov    %rdi,%rdx
     6b6:	48 c1 ea 03          	shr    $0x3,%rdx
     6ba:	80 3c 02 00          	cmpb   $0x0,(%rdx,%rax,1)
     6be:	75 2b                	jne    6eb <delete_first_message+0xfb>
     6c0:	4c 8b 63 10          	mov    0x10(%rbx),%r12
     6c4:	eb a4                	jmp    66a <delete_first_message+0x7a>
     6c6:	e8 00 00 00 00       	call   6cb <delete_first_message+0xdb>
     6cb:	eb cb                	jmp    698 <delete_first_message+0xa8>
     6cd:	e8 00 00 00 00       	call   6d2 <delete_first_message+0xe2>
     6d2:	e9 6e ff ff ff       	jmp    645 <delete_first_message+0x55>
     6d7:	e8 00 00 00 00       	call   6dc <delete_first_message+0xec>
     6dc:	e9 41 ff ff ff       	jmp    622 <delete_first_message+0x32>
     6e1:	e8 00 00 00 00       	call   6e6 <delete_first_message+0xf6>
     6e6:	e9 7b ff ff ff       	jmp    666 <delete_first_message+0x76>
     6eb:	e8 00 00 00 00       	call   6f0 <delete_first_message+0x100>
     6f0:	eb ce                	jmp    6c0 <delete_first_message+0xd0>
     6f2:	66 66 2e 0f 1f 84 00 	data16 cs nopw 0x0(%rax,%rax,1)
     6f9:	00 00 00 00 
     6fd:	0f 1f 00             	nopl   (%rax)

0000000000000700 <__pfx_create_last_message>:
     700:	90                   	nop
     701:	90                   	nop
     702:	90                   	nop
     703:	90                   	nop
     704:	90                   	nop
     705:	90                   	nop
     706:	90                   	nop
     707:	90                   	nop
     708:	90                   	nop
     709:	90                   	nop
     70a:	90                   	nop
     70b:	90                   	nop
     70c:	90                   	nop
     70d:	90                   	nop
     70e:	90                   	nop
     70f:	90                   	nop

0000000000000710 <create_last_message>:
     710:	f3 0f 1e fa          	endbr64
     714:	e8 00 00 00 00       	call   719 <create_last_message+0x9>
     719:	48 b8 00 00 00 00 00 	movabs $0xdffffc0000000000,%rax
     720:	fc ff df 
     723:	55                   	push   %rbp
     724:	48 89 e5             	mov    %rsp,%rbp
     727:	41 56                	push   %r14
     729:	41 55                	push   %r13
     72b:	41 54                	push   %r12
     72d:	53                   	push   %rbx
     72e:	48 89 fb             	mov    %rdi,%rbx
     731:	48 83 c7 28          	add    $0x28,%rdi
     735:	48 89 fa             	mov    %rdi,%rdx
     738:	48 c1 ea 03          	shr    $0x3,%rdx
     73c:	80 3c 02 00          	cmpb   $0x0,(%rdx,%rax,1)
     740:	0f 85 ff 00 00 00    	jne    845 <create_last_message+0x135>
     746:	48 8d 7b 18          	lea    0x18(%rbx),%rdi
     74a:	4c 8b 6b 28          	mov    0x28(%rbx),%r13
     74e:	48 b8 00 00 00 00 00 	movabs $0xdffffc0000000000,%rax
     755:	fc ff df 
     758:	48 89 fa             	mov    %rdi,%rdx
     75b:	48 c1 ea 03          	shr    $0x3,%rdx
     75f:	80 3c 02 00          	cmpb   $0x0,(%rdx,%rax,1)
     763:	0f 85 d2 00 00 00    	jne    83b <create_last_message+0x12b>
     769:	48 8d 7b 3c          	lea    0x3c(%rbx),%rdi
     76d:	4c 8b 73 18          	mov    0x18(%rbx),%r14
     771:	48 b8 00 00 00 00 00 	movabs $0xdffffc0000000000,%rax
     778:	fc ff df 
     77b:	48 89 fa             	mov    %rdi,%rdx
     77e:	48 c1 ea 03          	shr    $0x3,%rdx
     782:	0f b6 14 02          	movzbl (%rdx,%rax,1),%edx
     786:	48 89 f8             	mov    %rdi,%rax
     789:	83 e0 07             	and    $0x7,%eax
     78c:	83 c0 03             	add    $0x3,%eax
     78f:	38 d0                	cmp    %dl,%al
     791:	7c 08                	jl     79b <create_last_message+0x8b>
     793:	84 d2                	test   %dl,%dl
     795:	0f 85 8f 00 00 00    	jne    82a <create_last_message+0x11a>
     79b:	44 8b 63 3c          	mov    0x3c(%rbx),%r12d
     79f:	4d 39 f5             	cmp    %r14,%r13
     7a2:	74 3c                	je     7e0 <create_last_message+0xd0>
     7a4:	48 b8 00 00 00 00 00 	movabs $0xdffffc0000000000,%rax
     7ab:	fc ff df 
     7ae:	48 8d 7b 40          	lea    0x40(%rbx),%rdi
     7b2:	48 89 fa             	mov    %rdi,%rdx
     7b5:	48 c1 ea 03          	shr    $0x3,%rdx
     7b9:	80 3c 02 00          	cmpb   $0x0,(%rdx,%rax,1)
     7bd:	0f 85 8c 00 00 00    	jne    84f <create_last_message+0x13f>
     7c3:	4c 03 6b 40          	add    0x40(%rbx),%r13
     7c7:	4c 89 6b 28          	mov    %r13,0x28(%rbx)
     7cb:	41 83 c4 01          	add    $0x1,%r12d
     7cf:	44 89 63 3c          	mov    %r12d,0x3c(%rbx)
     7d3:	5b                   	pop    %rbx
     7d4:	41 5c                	pop    %r12
     7d6:	41 5d                	pop    %r13
     7d8:	41 5e                	pop    %r14
     7da:	5d                   	pop    %rbp
     7db:	e9 00 00 00 00       	jmp    7e0 <create_last_message+0xd0>
     7e0:	48 b8 00 00 00 00 00 	movabs $0xdffffc0000000000,%rax
     7e7:	fc ff df 
     7ea:	48 8d 7b 10          	lea    0x10(%rbx),%rdi
     7ee:	48 89 fa             	mov    %rdi,%rdx
     7f1:	48 c1 ea 03          	shr    $0x3,%rdx
     7f5:	80 3c 02 00          	cmpb   $0x0,(%rdx,%rax,1)
     7f9:	75 5e                	jne    859 <create_last_message+0x149>
     7fb:	48 8b 43 10          	mov    0x10(%rbx),%rax
     7ff:	48 8d 7b 30          	lea    0x30(%rbx),%rdi
     803:	48 89 fa             	mov    %rdi,%rdx
     806:	48 89 43 28          	mov    %rax,0x28(%rbx)
     80a:	48 c1 ea 03          	shr    $0x3,%rdx
     80e:	48 b8 00 00 00 00 00 	movabs $0xdffffc0000000000,%rax
     815:	fc ff df 
     818:	0f b6 04 02          	movzbl (%rdx,%rax,1),%eax
     81c:	84 c0                	test   %al,%al
     81e:	74 04                	je     824 <create_last_message+0x114>
     820:	3c 03                	cmp    $0x3,%al
     822:	7e 10                	jle    834 <create_last_message+0x124>
     824:	44 89 63 30          	mov    %r12d,0x30(%rbx)
     828:	eb a1                	jmp    7cb <create_last_message+0xbb>
     82a:	e8 00 00 00 00       	call   82f <create_last_message+0x11f>
     82f:	e9 67 ff ff ff       	jmp    79b <create_last_message+0x8b>
     834:	e8 00 00 00 00       	call   839 <create_last_message+0x129>
     839:	eb e9                	jmp    824 <create_last_message+0x114>
     83b:	e8 00 00 00 00       	call   840 <create_last_message+0x130>
     840:	e9 24 ff ff ff       	jmp    769 <create_last_message+0x59>
     845:	e8 00 00 00 00       	call   84a <create_last_message+0x13a>
     84a:	e9 f7 fe ff ff       	jmp    746 <create_last_message+0x36>
     84f:	e8 00 00 00 00       	call   854 <create_last_message+0x144>
     854:	e9 6a ff ff ff       	jmp    7c3 <create_last_message+0xb3>
     859:	e8 00 00 00 00       	call   85e <create_last_message+0x14e>
     85e:	eb 9b                	jmp    7fb <create_last_message+0xeb>

0000000000000860 <__pfx_write_to_buffer>:
     860:	90                   	nop
     861:	90                   	nop
     862:	90                   	nop
     863:	90                   	nop
     864:	90                   	nop
     865:	90                   	nop
     866:	90                   	nop
     867:	90                   	nop
     868:	90                   	nop
     869:	90                   	nop
     86a:	90                   	nop
     86b:	90                   	nop
     86c:	90                   	nop
     86d:	90                   	nop
     86e:	90                   	nop
     86f:	90                   	nop

0000000000000870 <write_to_buffer>:
     870:	f3 0f 1e fa          	endbr64
     874:	e8 00 00 00 00       	call   879 <write_to_buffer+0x9>
     879:	55                   	push   %rbp
     87a:	48 89 e5             	mov    %rsp,%rbp
     87d:	41 54                	push   %r12
     87f:	49 89 f4             	mov    %rsi,%r12
     882:	48 89 d6             	mov    %rdx,%rsi
     885:	53                   	push   %rbx
     886:	48 83 ec 08          	sub    $0x8,%rsp
     88a:	48 85 d2             	test   %rdx,%rdx
     88d:	0f 94 c0             	sete   %al
     890:	4d 85 e4             	test   %r12,%r12
     893:	0f 94 c2             	sete   %dl
     896:	08 d0                	or     %dl,%al
     898:	75 45                	jne    8df <write_to_buffer+0x6f>
     89a:	48 89 fb             	mov    %rdi,%rbx
     89d:	48 85 ff             	test   %rdi,%rdi
     8a0:	74 3d                	je     8df <write_to_buffer+0x6f>
     8a2:	48 b8 00 00 00 00 00 	movabs $0xdffffc0000000000,%rax
     8a9:	fc ff df 
     8ac:	48 8d 7f 40          	lea    0x40(%rdi),%rdi
     8b0:	48 89 fa             	mov    %rdi,%rdx
     8b3:	48 c1 ea 03          	shr    $0x3,%rdx
     8b7:	80 3c 02 00          	cmpb   $0x0,(%rdx,%rax,1)
     8bb:	75 29                	jne    8e6 <write_to_buffer+0x76>
     8bd:	48 8b 53 40          	mov    0x40(%rbx),%rdx
     8c1:	4c 89 e7             	mov    %r12,%rdi
     8c4:	e8 00 00 00 00       	call   8c9 <write_to_buffer+0x59>
     8c9:	48 83 f8 01          	cmp    $0x1,%rax
     8cd:	19 c0                	sbb    %eax,%eax
     8cf:	83 e0 f2             	and    $0xfffffff2,%eax
     8d2:	48 83 c4 08          	add    $0x8,%rsp
     8d6:	5b                   	pop    %rbx
     8d7:	41 5c                	pop    %r12
     8d9:	5d                   	pop    %rbp
     8da:	e9 00 00 00 00       	jmp    8df <write_to_buffer+0x6f>
     8df:	b8 ea ff ff ff       	mov    $0xffffffea,%eax
     8e4:	eb ec                	jmp    8d2 <write_to_buffer+0x62>
     8e6:	48 89 75 e8          	mov    %rsi,-0x18(%rbp)
     8ea:	e8 00 00 00 00       	call   8ef <write_to_buffer+0x7f>
     8ef:	48 8b 75 e8          	mov    -0x18(%rbp),%rsi
     8f3:	eb c8                	jmp    8bd <write_to_buffer+0x4d>
     8f5:	66 66 2e 0f 1f 84 00 	data16 cs nopw 0x0(%rax,%rax,1)
     8fc:	00 00 00 00 

0000000000000900 <__pfx_get_buffer_address>:
     900:	90                   	nop
     901:	90                   	nop
     902:	90                   	nop
     903:	90                   	nop
     904:	90                   	nop
     905:	90                   	nop
     906:	90                   	nop
     907:	90                   	nop
     908:	90                   	nop
     909:	90                   	nop
     90a:	90                   	nop
     90b:	90                   	nop
     90c:	90                   	nop
     90d:	90                   	nop
     90e:	90                   	nop
     90f:	90                   	nop

0000000000000910 <get_buffer_address>:
     910:	f3 0f 1e fa          	endbr64
     914:	e8 00 00 00 00       	call   919 <get_buffer_address+0x9>
     919:	48 b8 00 00 00 00 00 	movabs $0xdffffc0000000000,%rax
     920:	fc ff df 
     923:	55                   	push   %rbp
     924:	48 89 e5             	mov    %rsp,%rbp
     927:	41 57                	push   %r15
     929:	41 56                	push   %r14
     92b:	41 89 f6             	mov    %esi,%r14d
     92e:	41 55                	push   %r13
     930:	41 54                	push   %r12
     932:	53                   	push   %rbx
     933:	48 89 fb             	mov    %rdi,%rbx
     936:	48 83 c7 20          	add    $0x20,%rdi
     93a:	48 89 fa             	mov    %rdi,%rdx
     93d:	48 c1 ea 03          	shr    $0x3,%rdx
     941:	48 83 ec 10          	sub    $0x10,%rsp
     945:	80 3c 02 00          	cmpb   $0x0,(%rdx,%rax,1)
     949:	0f 85 60 03 00 00    	jne    caf <get_buffer_address+0x39f>
     94f:	48 8d 7b 28          	lea    0x28(%rbx),%rdi
     953:	4c 8b 63 20          	mov    0x20(%rbx),%r12
     957:	48 b8 00 00 00 00 00 	movabs $0xdffffc0000000000,%rax
     95e:	fc ff df 
     961:	48 89 fa             	mov    %rdi,%rdx
     964:	48 c1 ea 03          	shr    $0x3,%rdx
     968:	80 3c 02 00          	cmpb   $0x0,(%rdx,%rax,1)
     96c:	0f 85 59 03 00 00    	jne    ccb <get_buffer_address+0x3bb>
     972:	48 8d 7b 34          	lea    0x34(%rbx),%rdi
     976:	48 8b 43 28          	mov    0x28(%rbx),%rax
     97a:	48 ba 00 00 00 00 00 	movabs $0xdffffc0000000000,%rdx
     981:	fc ff df 
     984:	48 89 f9             	mov    %rdi,%rcx
     987:	48 c1 e9 03          	shr    $0x3,%rcx
     98b:	0f b6 0c 11          	movzbl (%rcx,%rdx,1),%ecx
     98f:	48 89 fa             	mov    %rdi,%rdx
     992:	83 e2 07             	and    $0x7,%edx
     995:	83 c2 03             	add    $0x3,%edx
     998:	38 ca                	cmp    %cl,%dl
     99a:	7c 08                	jl     9a4 <get_buffer_address+0x94>
     99c:	84 c9                	test   %cl,%cl
     99e:	0f 85 32 02 00 00    	jne    bd6 <get_buffer_address+0x2c6>
     9a4:	48 8d 7b 40          	lea    0x40(%rbx),%rdi
     9a8:	44 8b 7b 34          	mov    0x34(%rbx),%r15d
     9ac:	48 ba 00 00 00 00 00 	movabs $0xdffffc0000000000,%rdx
     9b3:	fc ff df 
     9b6:	48 89 f9             	mov    %rdi,%rcx
     9b9:	48 c1 e9 03          	shr    $0x3,%rcx
     9bd:	80 3c 11 00          	cmpb   $0x0,(%rcx,%rdx,1)
     9c1:	0f 85 f2 02 00 00    	jne    cb9 <get_buffer_address+0x3a9>
     9c7:	4c 8b 6b 40          	mov    0x40(%rbx),%r13
     9cb:	49 39 c4             	cmp    %rax,%r12
     9ce:	0f 83 b6 00 00 00    	jae    a8a <get_buffer_address+0x17a>
     9d4:	45 85 ff             	test   %r15d,%r15d
     9d7:	78 5b                	js     a34 <get_buffer_address+0x124>
     9d9:	48 ba 00 00 00 00 00 	movabs $0xdffffc0000000000,%rdx
     9e0:	fc ff df 
     9e3:	48 8d 7b 3c          	lea    0x3c(%rbx),%rdi
     9e7:	48 89 f9             	mov    %rdi,%rcx
     9ea:	48 c1 e9 03          	shr    $0x3,%rcx
     9ee:	0f b6 0c 11          	movzbl (%rcx,%rdx,1),%ecx
     9f2:	48 89 fa             	mov    %rdi,%rdx
     9f5:	83 e2 07             	and    $0x7,%edx
     9f8:	83 c2 03             	add    $0x3,%edx
     9fb:	38 ca                	cmp    %cl,%dl
     9fd:	7c 08                	jl     a07 <get_buffer_address+0xf7>
     9ff:	84 c9                	test   %cl,%cl
     a01:	0f 85 e1 01 00 00    	jne    be8 <get_buffer_address+0x2d8>
     a07:	8b 53 3c             	mov    0x3c(%rbx),%edx
     a0a:	85 d2                	test   %edx,%edx
     a0c:	0f 88 b6 01 00 00    	js     bc8 <get_buffer_address+0x2b8>
     a12:	44 89 f0             	mov    %r14d,%eax
     a15:	44 29 f8             	sub    %r15d,%eax
     a18:	48 98                	cltq
     a1a:	49 0f af c5          	imul   %r13,%rax
     a1e:	4c 01 e0             	add    %r12,%rax
     a21:	48 83 c4 10          	add    $0x10,%rsp
     a25:	5b                   	pop    %rbx
     a26:	41 5c                	pop    %r12
     a28:	41 5d                	pop    %r13
     a2a:	41 5e                	pop    %r14
     a2c:	41 5f                	pop    %r15
     a2e:	5d                   	pop    %rbp
     a2f:	e9 00 00 00 00       	jmp    a34 <get_buffer_address+0x124>
     a34:	45 85 f6             	test   %r14d,%r14d
     a37:	78 d9                	js     a12 <get_buffer_address+0x102>
     a39:	48 ba 00 00 00 00 00 	movabs $0xdffffc0000000000,%rdx
     a40:	fc ff df 
     a43:	48 8d 7b 3c          	lea    0x3c(%rbx),%rdi
     a47:	48 89 f9             	mov    %rdi,%rcx
     a4a:	48 c1 e9 03          	shr    $0x3,%rcx
     a4e:	0f b6 0c 11          	movzbl (%rcx,%rdx,1),%ecx
     a52:	48 89 fa             	mov    %rdi,%rdx
     a55:	83 e2 07             	and    $0x7,%edx
     a58:	83 c2 03             	add    $0x3,%edx
     a5b:	38 ca                	cmp    %cl,%dl
     a5d:	7c 08                	jl     a67 <get_buffer_address+0x157>
     a5f:	84 c9                	test   %cl,%cl
     a61:	0f 85 90 02 00 00    	jne    cf7 <get_buffer_address+0x3e7>
     a67:	8b 53 3c             	mov    0x3c(%rbx),%edx
     a6a:	44 29 f2             	sub    %r14d,%edx
     a6d:	48 83 c4 10          	add    $0x10,%rsp
     a71:	48 63 d2             	movslq %edx,%rdx
     a74:	5b                   	pop    %rbx
     a75:	41 5c                	pop    %r12
     a77:	49 0f af d5          	imul   %r13,%rdx
     a7b:	41 5d                	pop    %r13
     a7d:	41 5e                	pop    %r14
     a7f:	41 5f                	pop    %r15
     a81:	5d                   	pop    %rbp
     a82:	48 29 d0             	sub    %rdx,%rax
     a85:	e9 00 00 00 00       	jmp    a8a <get_buffer_address+0x17a>
     a8a:	48 ba 00 00 00 00 00 	movabs $0xdffffc0000000000,%rdx
     a91:	fc ff df 
     a94:	48 8d 7b 30          	lea    0x30(%rbx),%rdi
     a98:	48 89 f9             	mov    %rdi,%rcx
     a9b:	48 c1 e9 03          	shr    $0x3,%rcx
     a9f:	0f b6 14 11          	movzbl (%rcx,%rdx,1),%edx
     aa3:	84 d2                	test   %dl,%dl
     aa5:	74 09                	je     ab0 <get_buffer_address+0x1a0>
     aa7:	80 fa 03             	cmp    $0x3,%dl
     aaa:	0f 8e 25 02 00 00    	jle    cd5 <get_buffer_address+0x3c5>
     ab0:	8b 53 30             	mov    0x30(%rbx),%edx
     ab3:	45 85 ff             	test   %r15d,%r15d
     ab6:	78 64                	js     b1c <get_buffer_address+0x20c>
     ab8:	48 b9 00 00 00 00 00 	movabs $0xdffffc0000000000,%rcx
     abf:	fc ff df 
     ac2:	48 8d 7b 3c          	lea    0x3c(%rbx),%rdi
     ac6:	48 89 fe             	mov    %rdi,%rsi
     ac9:	48 c1 ee 03          	shr    $0x3,%rsi
     acd:	0f b6 34 0e          	movzbl (%rsi,%rcx,1),%esi
     ad1:	48 89 f9             	mov    %rdi,%rcx
     ad4:	83 e1 07             	and    $0x7,%ecx
     ad7:	83 c1 03             	add    $0x3,%ecx
     ada:	40 38 f1             	cmp    %sil,%cl
     add:	7c 09                	jl     ae8 <get_buffer_address+0x1d8>
     adf:	40 84 f6             	test   %sil,%sil
     ae2:	0f 85 12 01 00 00    	jne    bfa <get_buffer_address+0x2ea>
     ae8:	8b 4b 3c             	mov    0x3c(%rbx),%ecx
     aeb:	85 c9                	test   %ecx,%ecx
     aed:	0f 88 90 00 00 00    	js     b83 <get_buffer_address+0x273>
     af3:	41 39 d6             	cmp    %edx,%r14d
     af6:	0f 8c 16 ff ff ff    	jl     a12 <get_buffer_address+0x102>
     afc:	44 29 f1             	sub    %r14d,%ecx
     aff:	48 83 c4 10          	add    $0x10,%rsp
     b03:	48 63 c9             	movslq %ecx,%rcx
     b06:	5b                   	pop    %rbx
     b07:	41 5c                	pop    %r12
     b09:	49 0f af cd          	imul   %r13,%rcx
     b0d:	41 5d                	pop    %r13
     b0f:	41 5e                	pop    %r14
     b11:	41 5f                	pop    %r15
     b13:	5d                   	pop    %rbp
     b14:	48 29 c8             	sub    %rcx,%rax
     b17:	e9 00 00 00 00       	jmp    b1c <get_buffer_address+0x20c>
     b1c:	41 39 d6             	cmp    %edx,%r14d
     b1f:	7c 41                	jl     b62 <get_buffer_address+0x252>
     b21:	48 b8 00 00 00 00 00 	movabs $0xdffffc0000000000,%rax
     b28:	fc ff df 
     b2b:	48 8d 7b 10          	lea    0x10(%rbx),%rdi
     b2f:	48 89 f9             	mov    %rdi,%rcx
     b32:	48 c1 e9 03          	shr    $0x3,%rcx
     b36:	80 3c 01 00          	cmpb   $0x0,(%rcx,%rax,1)
     b3a:	0f 85 a7 01 00 00    	jne    ce7 <get_buffer_address+0x3d7>
     b40:	44 89 f0             	mov    %r14d,%eax
     b43:	29 d0                	sub    %edx,%eax
     b45:	48 98                	cltq
     b47:	49 0f af c5          	imul   %r13,%rax
     b4b:	48 03 43 10          	add    0x10(%rbx),%rax
     b4f:	48 83 c4 10          	add    $0x10,%rsp
     b53:	5b                   	pop    %rbx
     b54:	41 5c                	pop    %r12
     b56:	41 5d                	pop    %r13
     b58:	41 5e                	pop    %r14
     b5a:	41 5f                	pop    %r15
     b5c:	5d                   	pop    %rbp
     b5d:	e9 00 00 00 00       	jmp    b62 <get_buffer_address+0x252>
     b62:	45 29 fe             	sub    %r15d,%r14d
     b65:	48 83 c4 10          	add    $0x10,%rsp
     b69:	4d 63 f6             	movslq %r14d,%r14
     b6c:	5b                   	pop    %rbx
     b6d:	4d 0f af f5          	imul   %r13,%r14
     b71:	4b 8d 04 34          	lea    (%r12,%r14,1),%rax
     b75:	41 5c                	pop    %r12
     b77:	41 5d                	pop    %r13
     b79:	41 5e                	pop    %r14
     b7b:	41 5f                	pop    %r15
     b7d:	5d                   	pop    %rbp
     b7e:	e9 00 00 00 00       	jmp    b83 <get_buffer_address+0x273>
     b83:	85 d2                	test   %edx,%edx
     b85:	0f 88 87 00 00 00    	js     c12 <get_buffer_address+0x302>
     b8b:	45 85 f6             	test   %r14d,%r14d
     b8e:	0f 88 68 ff ff ff    	js     afc <get_buffer_address+0x1ec>
     b94:	41 39 d6             	cmp    %edx,%r14d
     b97:	0f 8c b2 00 00 00    	jl     c4f <get_buffer_address+0x33f>
     b9d:	48 b8 00 00 00 00 00 	movabs $0xdffffc0000000000,%rax
     ba4:	fc ff df 
     ba7:	48 8d 7b 10          	lea    0x10(%rbx),%rdi
     bab:	48 89 f9             	mov    %rdi,%rcx
     bae:	48 c1 e9 03          	shr    $0x3,%rcx
     bb2:	80 3c 01 00          	cmpb   $0x0,(%rcx,%rax,1)
     bb6:	74 88                	je     b40 <get_buffer_address+0x230>
     bb8:	89 55 d0             	mov    %edx,-0x30(%rbp)
     bbb:	e8 00 00 00 00       	call   bc0 <get_buffer_address+0x2b0>
     bc0:	8b 55 d0             	mov    -0x30(%rbp),%edx
     bc3:	e9 78 ff ff ff       	jmp    b40 <get_buffer_address+0x230>
     bc8:	45 85 f6             	test   %r14d,%r14d
     bcb:	0f 89 41 fe ff ff    	jns    a12 <get_buffer_address+0x102>
     bd1:	e9 94 fe ff ff       	jmp    a6a <get_buffer_address+0x15a>
     bd6:	48 89 45 d0          	mov    %rax,-0x30(%rbp)
     bda:	e8 00 00 00 00       	call   bdf <get_buffer_address+0x2cf>
     bdf:	48 8b 45 d0          	mov    -0x30(%rbp),%rax
     be3:	e9 bc fd ff ff       	jmp    9a4 <get_buffer_address+0x94>
     be8:	48 89 45 d0          	mov    %rax,-0x30(%rbp)
     bec:	e8 00 00 00 00       	call   bf1 <get_buffer_address+0x2e1>
     bf1:	48 8b 45 d0          	mov    -0x30(%rbp),%rax
     bf5:	e9 0d fe ff ff       	jmp    a07 <get_buffer_address+0xf7>
     bfa:	89 55 cc             	mov    %edx,-0x34(%rbp)
     bfd:	48 89 45 d0          	mov    %rax,-0x30(%rbp)
     c01:	e8 00 00 00 00       	call   c06 <get_buffer_address+0x2f6>
     c06:	8b 55 cc             	mov    -0x34(%rbp),%edx
     c09:	48 8b 45 d0          	mov    -0x30(%rbp),%rax
     c0d:	e9 d6 fe ff ff       	jmp    ae8 <get_buffer_address+0x1d8>
     c12:	45 85 f6             	test   %r14d,%r14d
     c15:	0f 89 f7 fd ff ff    	jns    a12 <get_buffer_address+0x102>
     c1b:	41 39 d6             	cmp    %edx,%r14d
     c1e:	7c 67                	jl     c87 <get_buffer_address+0x377>
     c20:	48 b8 00 00 00 00 00 	movabs $0xdffffc0000000000,%rax
     c27:	fc ff df 
     c2a:	48 8d 7b 10          	lea    0x10(%rbx),%rdi
     c2e:	48 89 f9             	mov    %rdi,%rcx
     c31:	48 c1 e9 03          	shr    $0x3,%rcx
     c35:	80 3c 01 00          	cmpb   $0x0,(%rcx,%rax,1)
     c39:	0f 84 01 ff ff ff    	je     b40 <get_buffer_address+0x230>
     c3f:	89 55 d0             	mov    %edx,-0x30(%rbp)
     c42:	e8 00 00 00 00       	call   c47 <get_buffer_address+0x337>
     c47:	8b 55 d0             	mov    -0x30(%rbp),%edx
     c4a:	e9 f1 fe ff ff       	jmp    b40 <get_buffer_address+0x230>
     c4f:	48 b8 00 00 00 00 00 	movabs $0xdffffc0000000000,%rax
     c56:	fc ff df 
     c59:	48 8d 7b 18          	lea    0x18(%rbx),%rdi
     c5d:	48 89 f9             	mov    %rdi,%rcx
     c60:	48 c1 e9 03          	shr    $0x3,%rcx
     c64:	80 3c 01 00          	cmpb   $0x0,(%rcx,%rax,1)
     c68:	0f 85 9b 00 00 00    	jne    d09 <get_buffer_address+0x3f9>
     c6e:	44 29 f2             	sub    %r14d,%edx
     c71:	48 8b 43 18          	mov    0x18(%rbx),%rax
     c75:	83 ea 01             	sub    $0x1,%edx
     c78:	48 63 d2             	movslq %edx,%rdx
     c7b:	49 0f af d5          	imul   %r13,%rdx
     c7f:	48 29 d0             	sub    %rdx,%rax
     c82:	e9 9a fd ff ff       	jmp    a21 <get_buffer_address+0x111>
     c87:	48 b8 00 00 00 00 00 	movabs $0xdffffc0000000000,%rax
     c8e:	fc ff df 
     c91:	48 8d 7b 18          	lea    0x18(%rbx),%rdi
     c95:	48 89 f9             	mov    %rdi,%rcx
     c98:	48 c1 e9 03          	shr    $0x3,%rcx
     c9c:	80 3c 01 00          	cmpb   $0x0,(%rcx,%rax,1)
     ca0:	74 cc                	je     c6e <get_buffer_address+0x35e>
     ca2:	89 55 d0             	mov    %edx,-0x30(%rbp)
     ca5:	e8 00 00 00 00       	call   caa <get_buffer_address+0x39a>
     caa:	8b 55 d0             	mov    -0x30(%rbp),%edx
     cad:	eb bf                	jmp    c6e <get_buffer_address+0x35e>
     caf:	e8 00 00 00 00       	call   cb4 <get_buffer_address+0x3a4>
     cb4:	e9 96 fc ff ff       	jmp    94f <get_buffer_address+0x3f>
     cb9:	48 89 45 d0          	mov    %rax,-0x30(%rbp)
     cbd:	e8 00 00 00 00       	call   cc2 <get_buffer_address+0x3b2>
     cc2:	48 8b 45 d0          	mov    -0x30(%rbp),%rax
     cc6:	e9 fc fc ff ff       	jmp    9c7 <get_buffer_address+0xb7>
     ccb:	e8 00 00 00 00       	call   cd0 <get_buffer_address+0x3c0>
     cd0:	e9 9d fc ff ff       	jmp    972 <get_buffer_address+0x62>
     cd5:	48 89 45 d0          	mov    %rax,-0x30(%rbp)
     cd9:	e8 00 00 00 00       	call   cde <get_buffer_address+0x3ce>
     cde:	48 8b 45 d0          	mov    -0x30(%rbp),%rax
     ce2:	e9 c9 fd ff ff       	jmp    ab0 <get_buffer_address+0x1a0>
     ce7:	89 55 d0             	mov    %edx,-0x30(%rbp)
     cea:	e8 00 00 00 00       	call   cef <get_buffer_address+0x3df>
     cef:	8b 55 d0             	mov    -0x30(%rbp),%edx
     cf2:	e9 49 fe ff ff       	jmp    b40 <get_buffer_address+0x230>
     cf7:	48 89 45 d0          	mov    %rax,-0x30(%rbp)
     cfb:	e8 00 00 00 00       	call   d00 <get_buffer_address+0x3f0>
     d00:	48 8b 45 d0          	mov    -0x30(%rbp),%rax
     d04:	e9 5e fd ff ff       	jmp    a67 <get_buffer_address+0x157>
     d09:	89 55 d0             	mov    %edx,-0x30(%rbp)
     d0c:	e8 00 00 00 00       	call   d11 <get_buffer_address+0x401>
     d11:	8b 55 d0             	mov    -0x30(%rbp),%edx
     d14:	e9 55 ff ff ff       	jmp    c6e <get_buffer_address+0x35e>
     d19:	0f 1f 80 00 00 00 00 	nopl   0x0(%rax)

0000000000000d20 <__pfx_read_from_buffer>:
     d20:	90                   	nop
     d21:	90                   	nop
     d22:	90                   	nop
     d23:	90                   	nop
     d24:	90                   	nop
     d25:	90                   	nop
     d26:	90                   	nop
     d27:	90                   	nop
     d28:	90                   	nop
     d29:	90                   	nop
     d2a:	90                   	nop
     d2b:	90                   	nop
     d2c:	90                   	nop
     d2d:	90                   	nop
     d2e:	90                   	nop
     d2f:	90                   	nop

0000000000000d30 <read_from_buffer>:
     d30:	f3 0f 1e fa          	endbr64
     d34:	e8 00 00 00 00       	call   d39 <read_from_buffer+0x9>
     d39:	55                   	push   %rbp
     d3a:	48 89 e5             	mov    %rsp,%rbp
     d3d:	41 54                	push   %r12
     d3f:	49 89 d4             	mov    %rdx,%r12
     d42:	53                   	push   %rbx
     d43:	48 83 ec 08          	sub    $0x8,%rsp
     d47:	48 85 f6             	test   %rsi,%rsi
     d4a:	0f 94 c0             	sete   %al
     d4d:	48 85 d2             	test   %rdx,%rdx
     d50:	0f 94 c2             	sete   %dl
     d53:	08 d0                	or     %dl,%al
     d55:	75 45                	jne    d9c <read_from_buffer+0x6c>
     d57:	48 89 fb             	mov    %rdi,%rbx
     d5a:	48 85 ff             	test   %rdi,%rdi
     d5d:	74 3d                	je     d9c <read_from_buffer+0x6c>
     d5f:	48 b8 00 00 00 00 00 	movabs $0xdffffc0000000000,%rax
     d66:	fc ff df 
     d69:	48 8d 7f 40          	lea    0x40(%rdi),%rdi
     d6d:	48 89 fa             	mov    %rdi,%rdx
     d70:	48 c1 ea 03          	shr    $0x3,%rdx
     d74:	80 3c 02 00          	cmpb   $0x0,(%rdx,%rax,1)
     d78:	75 29                	jne    da3 <read_from_buffer+0x73>
     d7a:	48 8b 53 40          	mov    0x40(%rbx),%rdx
     d7e:	4c 89 e7             	mov    %r12,%rdi
     d81:	e8 00 00 00 00       	call   d86 <read_from_buffer+0x56>
     d86:	48 83 f8 01          	cmp    $0x1,%rax
     d8a:	19 c0                	sbb    %eax,%eax
     d8c:	83 e0 f2             	and    $0xfffffff2,%eax
     d8f:	48 83 c4 08          	add    $0x8,%rsp
     d93:	5b                   	pop    %rbx
     d94:	41 5c                	pop    %r12
     d96:	5d                   	pop    %rbp
     d97:	e9 00 00 00 00       	jmp    d9c <read_from_buffer+0x6c>
     d9c:	b8 ea ff ff ff       	mov    $0xffffffea,%eax
     da1:	eb ec                	jmp    d8f <read_from_buffer+0x5f>
     da3:	48 89 75 e8          	mov    %rsi,-0x18(%rbp)
     da7:	e8 00 00 00 00       	call   dac <read_from_buffer+0x7c>
     dac:	48 8b 75 e8          	mov    -0x18(%rbp),%rsi
     db0:	eb c8                	jmp    d7a <read_from_buffer+0x4a>
     db2:	66 66 2e 0f 1f 84 00 	data16 cs nopw 0x0(%rax,%rax,1)
     db9:	00 00 00 00 
     dbd:	0f 1f 00             	nopl   (%rax)

0000000000000dc0 <__pfx_get_buffer_begin_num>:
     dc0:	90                   	nop
     dc1:	90                   	nop
     dc2:	90                   	nop
     dc3:	90                   	nop
     dc4:	90                   	nop
     dc5:	90                   	nop
     dc6:	90                   	nop
     dc7:	90                   	nop
     dc8:	90                   	nop
     dc9:	90                   	nop
     dca:	90                   	nop
     dcb:	90                   	nop
     dcc:	90                   	nop
     dcd:	90                   	nop
     dce:	90                   	nop
     dcf:	90                   	nop

0000000000000dd0 <get_buffer_begin_num>:
     dd0:	f3 0f 1e fa          	endbr64
     dd4:	e8 00 00 00 00       	call   dd9 <get_buffer_begin_num+0x9>
     dd9:	48 b8 00 00 00 00 00 	movabs $0xdffffc0000000000,%rax
     de0:	fc ff df 
     de3:	55                   	push   %rbp
     de4:	48 89 e5             	mov    %rsp,%rbp
     de7:	53                   	push   %rbx
     de8:	48 89 fb             	mov    %rdi,%rbx
     deb:	48 83 c7 34          	add    $0x34,%rdi
     def:	48 89 fa             	mov    %rdi,%rdx
     df2:	48 c1 ea 03          	shr    $0x3,%rdx
     df6:	0f b6 14 02          	movzbl (%rdx,%rax,1),%edx
     dfa:	48 89 f8             	mov    %rdi,%rax
     dfd:	83 e0 07             	and    $0x7,%eax
     e00:	83 c0 03             	add    $0x3,%eax
     e03:	38 d0                	cmp    %dl,%al
     e05:	7c 04                	jl     e0b <get_buffer_begin_num+0x3b>
     e07:	84 d2                	test   %dl,%dl
     e09:	75 0d                	jne    e18 <get_buffer_begin_num+0x48>
     e0b:	8b 43 34             	mov    0x34(%rbx),%eax
     e0e:	48 8b 5d f8          	mov    -0x8(%rbp),%rbx
     e12:	c9                   	leave
     e13:	e9 00 00 00 00       	jmp    e18 <get_buffer_begin_num+0x48>
     e18:	e8 00 00 00 00       	call   e1d <get_buffer_begin_num+0x4d>
     e1d:	eb ec                	jmp    e0b <get_buffer_begin_num+0x3b>
     e1f:	90                   	nop

0000000000000e20 <__pfx_get_buffer_end_num>:
     e20:	90                   	nop
     e21:	90                   	nop
     e22:	90                   	nop
     e23:	90                   	nop
     e24:	90                   	nop
     e25:	90                   	nop
     e26:	90                   	nop
     e27:	90                   	nop
     e28:	90                   	nop
     e29:	90                   	nop
     e2a:	90                   	nop
     e2b:	90                   	nop
     e2c:	90                   	nop
     e2d:	90                   	nop
     e2e:	90                   	nop
     e2f:	90                   	nop

0000000000000e30 <get_buffer_end_num>:
     e30:	f3 0f 1e fa          	endbr64
     e34:	e8 00 00 00 00       	call   e39 <get_buffer_end_num+0x9>
     e39:	48 b8 00 00 00 00 00 	movabs $0xdffffc0000000000,%rax
     e40:	fc ff df 
     e43:	55                   	push   %rbp
     e44:	48 89 e5             	mov    %rsp,%rbp
     e47:	53                   	push   %rbx
     e48:	48 89 fb             	mov    %rdi,%rbx
     e4b:	48 83 c7 3c          	add    $0x3c,%rdi
     e4f:	48 89 fa             	mov    %rdi,%rdx
     e52:	48 c1 ea 03          	shr    $0x3,%rdx
     e56:	0f b6 14 02          	movzbl (%rdx,%rax,1),%edx
     e5a:	48 89 f8             	mov    %rdi,%rax
     e5d:	83 e0 07             	and    $0x7,%eax
     e60:	83 c0 03             	add    $0x3,%eax
     e63:	38 d0                	cmp    %dl,%al
     e65:	7c 04                	jl     e6b <get_buffer_end_num+0x3b>
     e67:	84 d2                	test   %dl,%dl
     e69:	75 0d                	jne    e78 <get_buffer_end_num+0x48>
     e6b:	8b 43 3c             	mov    0x3c(%rbx),%eax
     e6e:	48 8b 5d f8          	mov    -0x8(%rbp),%rbx
     e72:	c9                   	leave
     e73:	e9 00 00 00 00       	jmp    e78 <get_buffer_end_num+0x48>
     e78:	e8 00 00 00 00       	call   e7d <get_buffer_end_num+0x4d>
     e7d:	eb ec                	jmp    e6b <get_buffer_end_num+0x3b>
     e7f:	90                   	nop

0000000000000e80 <__pfx_set_prohibition_num>:
     e80:	90                   	nop
     e81:	90                   	nop
     e82:	90                   	nop
     e83:	90                   	nop
     e84:	90                   	nop
     e85:	90                   	nop
     e86:	90                   	nop
     e87:	90                   	nop
     e88:	90                   	nop
     e89:	90                   	nop
     e8a:	90                   	nop
     e8b:	90                   	nop
     e8c:	90                   	nop
     e8d:	90                   	nop
     e8e:	90                   	nop
     e8f:	90                   	nop

0000000000000e90 <set_prohibition_num>:
     e90:	f3 0f 1e fa          	endbr64
     e94:	48 b8 00 00 00 00 00 	movabs $0xdffffc0000000000,%rax
     e9b:	fc ff df 
     e9e:	48 89 fa             	mov    %rdi,%rdx
     ea1:	48 c1 ea 03          	shr    $0x3,%rdx
     ea5:	0f b6 04 02          	movzbl (%rdx,%rax,1),%eax
     ea9:	84 c0                	test   %al,%al
     eab:	74 04                	je     eb1 <set_prohibition_num+0x21>
     ead:	3c 03                	cmp    $0x3,%al
     eaf:	7e 07                	jle    eb8 <set_prohibition_num+0x28>
     eb1:	89 37                	mov    %esi,(%rdi)
     eb3:	e9 00 00 00 00       	jmp    eb8 <set_prohibition_num+0x28>
     eb8:	55                   	push   %rbp
     eb9:	48 89 e5             	mov    %rsp,%rbp
     ebc:	48 83 ec 10          	sub    $0x10,%rsp
     ec0:	89 75 f4             	mov    %esi,-0xc(%rbp)
     ec3:	48 89 7d f8          	mov    %rdi,-0x8(%rbp)
     ec7:	e8 00 00 00 00       	call   ecc <set_prohibition_num+0x3c>
     ecc:	8b 75 f4             	mov    -0xc(%rbp),%esi
     ecf:	48 8b 7d f8          	mov    -0x8(%rbp),%rdi
     ed3:	89 37                	mov    %esi,(%rdi)
     ed5:	c9                   	leave
     ed6:	e9 00 00 00 00       	jmp    edb <set_prohibition_num+0x4b>
     edb:	0f 1f 44 00 00       	nopl   0x0(%rax,%rax,1)

0000000000000ee0 <__pfx_prohibition_init>:
     ee0:	90                   	nop
     ee1:	90                   	nop
     ee2:	90                   	nop
     ee3:	90                   	nop
     ee4:	90                   	nop
     ee5:	90                   	nop
     ee6:	90                   	nop
     ee7:	90                   	nop
     ee8:	90                   	nop
     ee9:	90                   	nop
     eea:	90                   	nop
     eeb:	90                   	nop
     eec:	90                   	nop
     eed:	90                   	nop
     eee:	90                   	nop
     eef:	90                   	nop

0000000000000ef0 <prohibition_init>:
     ef0:	f3 0f 1e fa          	endbr64
     ef4:	48 b8 00 00 00 00 00 	movabs $0xdffffc0000000000,%rax
     efb:	fc ff df 
     efe:	55                   	push   %rbp
     eff:	48 89 e5             	mov    %rsp,%rbp
     f02:	41 54                	push   %r12
     f04:	4c 8d 67 08          	lea    0x8(%rdi),%r12
     f08:	4c 89 e2             	mov    %r12,%rdx
     f0b:	53                   	push   %rbx
     f0c:	48 89 fb             	mov    %rdi,%rbx
     f0f:	48 c1 ea 03          	shr    $0x3,%rdx
     f13:	80 3c 02 00          	cmpb   $0x0,(%rdx,%rax,1)
     f17:	75 2c                	jne    f45 <prohibition_init+0x55>
     f19:	48 8d 7b 10          	lea    0x10(%rbx),%rdi
     f1d:	4c 89 63 08          	mov    %r12,0x8(%rbx)
     f21:	48 b8 00 00 00 00 00 	movabs $0xdffffc0000000000,%rax
     f28:	fc ff df 
     f2b:	48 89 fa             	mov    %rdi,%rdx
     f2e:	48 c1 ea 03          	shr    $0x3,%rdx
     f32:	80 3c 02 00          	cmpb   $0x0,(%rdx,%rax,1)
     f36:	75 17                	jne    f4f <prohibition_init+0x5f>
     f38:	4c 89 63 10          	mov    %r12,0x10(%rbx)
     f3c:	5b                   	pop    %rbx
     f3d:	41 5c                	pop    %r12
     f3f:	5d                   	pop    %rbp
     f40:	e9 00 00 00 00       	jmp    f45 <prohibition_init+0x55>
     f45:	4c 89 e7             	mov    %r12,%rdi
     f48:	e8 00 00 00 00       	call   f4d <prohibition_init+0x5d>
     f4d:	eb ca                	jmp    f19 <prohibition_init+0x29>
     f4f:	e8 00 00 00 00       	call   f54 <prohibition_init+0x64>
     f54:	eb e2                	jmp    f38 <prohibition_init+0x48>
     f56:	66 2e 0f 1f 84 00 00 	cs nopw 0x0(%rax,%rax,1)
     f5d:	00 00 00 

0000000000000f60 <__pfx_prohibit_buffer>:
     f60:	90                   	nop
     f61:	90                   	nop
     f62:	90                   	nop
     f63:	90                   	nop
     f64:	90                   	nop
     f65:	90                   	nop
     f66:	90                   	nop
     f67:	90                   	nop
     f68:	90                   	nop
     f69:	90                   	nop
     f6a:	90                   	nop
     f6b:	90                   	nop
     f6c:	90                   	nop
     f6d:	90                   	nop
     f6e:	90                   	nop
     f6f:	90                   	nop

0000000000000f70 <prohibit_buffer>:
     f70:	f3 0f 1e fa          	endbr64
     f74:	e8 00 00 00 00       	call   f79 <prohibit_buffer+0x9>
     f79:	48 b8 00 00 00 00 00 	movabs $0xdffffc0000000000,%rax
     f80:	fc ff df 
     f83:	55                   	push   %rbp
     f84:	48 89 e5             	mov    %rsp,%rbp
     f87:	41 55                	push   %r13
     f89:	41 54                	push   %r12
     f8b:	4c 8d 66 08          	lea    0x8(%rsi),%r12
     f8f:	53                   	push   %rbx
     f90:	48 89 fb             	mov    %rdi,%rbx
     f93:	48 83 c7 08          	add    $0x8,%rdi
     f97:	48 89 fa             	mov    %rdi,%rdx
     f9a:	48 c1 ea 03          	shr    $0x3,%rdx
     f9e:	48 83 ec 08          	sub    $0x8,%rsp
     fa2:	80 3c 02 00          	cmpb   $0x0,(%rdx,%rax,1)
     fa6:	75 6c                	jne    1014 <prohibit_buffer+0xa4>
     fa8:	4c 89 e2             	mov    %r12,%rdx
     fab:	4c 8b 6b 08          	mov    0x8(%rbx),%r13
     faf:	48 b8 00 00 00 00 00 	movabs $0xdffffc0000000000,%rax
     fb6:	fc ff df 
     fb9:	48 c1 ea 03          	shr    $0x3,%rdx
     fbd:	80 3c 02 00          	cmpb   $0x0,(%rdx,%rax,1)
     fc1:	75 79                	jne    103c <prohibit_buffer+0xcc>
     fc3:	48 8d 7e 10          	lea    0x10(%rsi),%rdi
     fc7:	48 89 5e 08          	mov    %rbx,0x8(%rsi)
     fcb:	48 b8 00 00 00 00 00 	movabs $0xdffffc0000000000,%rax
     fd2:	fc ff df 
     fd5:	48 89 fa             	mov    %rdi,%rdx
     fd8:	48 c1 ea 03          	shr    $0x3,%rdx
     fdc:	80 3c 02 00          	cmpb   $0x0,(%rdx,%rax,1)
     fe0:	75 4b                	jne    102d <prohibit_buffer+0xbd>
     fe2:	4c 89 6e 10          	mov    %r13,0x10(%rsi)
     fe6:	48 b8 00 00 00 00 00 	movabs $0xdffffc0000000000,%rax
     fed:	fc ff df 
     ff0:	4c 89 ea             	mov    %r13,%rdx
     ff3:	48 c1 ea 03          	shr    $0x3,%rdx
     ff7:	80 3c 02 00          	cmpb   $0x0,(%rdx,%rax,1)
     ffb:	75 26                	jne    1023 <prohibit_buffer+0xb3>
     ffd:	4d 89 65 00          	mov    %r12,0x0(%r13)
    1001:	4c 89 63 08          	mov    %r12,0x8(%rbx)
    1005:	48 83 c4 08          	add    $0x8,%rsp
    1009:	5b                   	pop    %rbx
    100a:	41 5c                	pop    %r12
    100c:	41 5d                	pop    %r13
    100e:	5d                   	pop    %rbp
    100f:	e9 00 00 00 00       	jmp    1014 <prohibit_buffer+0xa4>
    1014:	48 89 75 e0          	mov    %rsi,-0x20(%rbp)
    1018:	e8 00 00 00 00       	call   101d <prohibit_buffer+0xad>
    101d:	48 8b 75 e0          	mov    -0x20(%rbp),%rsi
    1021:	eb 85                	jmp    fa8 <prohibit_buffer+0x38>
    1023:	4c 89 ef             	mov    %r13,%rdi
    1026:	e8 00 00 00 00       	call   102b <prohibit_buffer+0xbb>
    102b:	eb d0                	jmp    ffd <prohibit_buffer+0x8d>
    102d:	48 89 75 e0          	mov    %rsi,-0x20(%rbp)
    1031:	e8 00 00 00 00       	call   1036 <prohibit_buffer+0xc6>
    1036:	48 8b 75 e0          	mov    -0x20(%rbp),%rsi
    103a:	eb a6                	jmp    fe2 <prohibit_buffer+0x72>
    103c:	4c 89 e7             	mov    %r12,%rdi
    103f:	48 89 75 e0          	mov    %rsi,-0x20(%rbp)
    1043:	e8 00 00 00 00       	call   1048 <prohibit_buffer+0xd8>
    1048:	48 8b 75 e0          	mov    -0x20(%rbp),%rsi
    104c:	e9 72 ff ff ff       	jmp    fc3 <prohibit_buffer+0x53>
    1051:	66 66 2e 0f 1f 84 00 	data16 cs nopw 0x0(%rax,%rax,1)
    1058:	00 00 00 00 
    105c:	0f 1f 40 00          	nopl   0x0(%rax)

0000000000001060 <__pfx_unprohibit_buffer>:
    1060:	90                   	nop
    1061:	90                   	nop
    1062:	90                   	nop
    1063:	90                   	nop
    1064:	90                   	nop
    1065:	90                   	nop
    1066:	90                   	nop
    1067:	90                   	nop
    1068:	90                   	nop
    1069:	90                   	nop
    106a:	90                   	nop
    106b:	90                   	nop
    106c:	90                   	nop
    106d:	90                   	nop
    106e:	90                   	nop
    106f:	90                   	nop

0000000000001070 <unprohibit_buffer>:
    1070:	f3 0f 1e fa          	endbr64
    1074:	e8 00 00 00 00       	call   1079 <unprohibit_buffer+0x9>
    1079:	48 b8 00 00 00 00 00 	movabs $0xdffffc0000000000,%rax
    1080:	fc ff df 
    1083:	55                   	push   %rbp
    1084:	48 89 fa             	mov    %rdi,%rdx
    1087:	48 c1 ea 03          	shr    $0x3,%rdx
    108b:	48 89 e5             	mov    %rsp,%rbp
    108e:	41 55                	push   %r13
    1090:	41 54                	push   %r12
    1092:	49 89 fc             	mov    %rdi,%r12
    1095:	48 83 ec 08          	sub    $0x8,%rsp
    1099:	80 3c 02 00          	cmpb   $0x0,(%rdx,%rax,1)
    109d:	0f 85 2e 01 00 00    	jne    11d1 <unprohibit_buffer+0x161>
    10a3:	49 8b 14 24          	mov    (%r12),%rdx
    10a7:	48 8d 42 f8          	lea    -0x8(%rdx),%rax
    10ab:	49 39 d4             	cmp    %rdx,%r12
    10ae:	ba 00 00 00 00       	mov    $0x0,%edx
    10b3:	48 0f 44 c2          	cmove  %rdx,%rax
    10b7:	48 39 f0             	cmp    %rsi,%rax
    10ba:	0f 84 a4 00 00 00    	je     1164 <unprohibit_buffer+0xf4>
    10c0:	48 b8 00 00 00 00 00 	movabs $0xdffffc0000000000,%rax
    10c7:	fc ff df 
    10ca:	48 8d 7e 08          	lea    0x8(%rsi),%rdi
    10ce:	48 89 fa             	mov    %rdi,%rdx
    10d1:	48 c1 ea 03          	shr    $0x3,%rdx
    10d5:	80 3c 02 00          	cmpb   $0x0,(%rdx,%rax,1)
    10d9:	0f 85 3d 01 00 00    	jne    121c <unprohibit_buffer+0x1ac>
    10df:	48 8d 7e 10          	lea    0x10(%rsi),%rdi
    10e3:	4c 8b 6e 08          	mov    0x8(%rsi),%r13
    10e7:	48 b8 00 00 00 00 00 	movabs $0xdffffc0000000000,%rax
    10ee:	fc ff df 
    10f1:	48 89 fa             	mov    %rdi,%rdx
    10f4:	48 c1 ea 03          	shr    $0x3,%rdx
    10f8:	80 3c 02 00          	cmpb   $0x0,(%rdx,%rax,1)
    10fc:	0f 85 08 01 00 00    	jne    120a <unprohibit_buffer+0x19a>
    1102:	49 8d 7d 08          	lea    0x8(%r13),%rdi
    1106:	4c 8b 66 10          	mov    0x10(%rsi),%r12
    110a:	48 b8 00 00 00 00 00 	movabs $0xdffffc0000000000,%rax
    1111:	fc ff df 
    1114:	48 89 fa             	mov    %rdi,%rdx
    1117:	48 c1 ea 03          	shr    $0x3,%rdx
    111b:	80 3c 02 00          	cmpb   $0x0,(%rdx,%rax,1)
    111f:	0f 85 d3 00 00 00    	jne    11f8 <unprohibit_buffer+0x188>
    1125:	4c 89 e2             	mov    %r12,%rdx
    1128:	4d 89 65 08          	mov    %r12,0x8(%r13)
    112c:	48 b8 00 00 00 00 00 	movabs $0xdffffc0000000000,%rax
    1133:	fc ff df 
    1136:	48 c1 ea 03          	shr    $0x3,%rdx
    113a:	80 3c 02 00          	cmpb   $0x0,(%rdx,%rax,1)
    113e:	0f 85 9f 00 00 00    	jne    11e3 <unprohibit_buffer+0x173>
    1144:	48 b8 22 01 00 00 00 	movabs $0xdead000000000122,%rax
    114b:	00 ad de 
    114e:	4d 89 2c 24          	mov    %r13,(%r12)
    1152:	48 89 46 10          	mov    %rax,0x10(%rsi)
    1156:	48 83 c4 08          	add    $0x8,%rsp
    115a:	41 5c                	pop    %r12
    115c:	41 5d                	pop    %r13
    115e:	5d                   	pop    %rbp
    115f:	e9 00 00 00 00       	jmp    1164 <unprohibit_buffer+0xf4>
    1164:	48 b8 00 00 00 00 00 	movabs $0xdffffc0000000000,%rax
    116b:	fc ff df 
    116e:	48 89 f2             	mov    %rsi,%rdx
    1171:	48 c1 ea 03          	shr    $0x3,%rdx
    1175:	0f b6 04 02          	movzbl (%rdx,%rax,1),%eax
    1179:	84 c0                	test   %al,%al
    117b:	74 04                	je     1181 <unprohibit_buffer+0x111>
    117d:	3c 03                	cmp    $0x3,%al
    117f:	7e 2f                	jle    11b0 <unprohibit_buffer+0x140>
    1181:	49 8d 7c 24 38       	lea    0x38(%r12),%rdi
    1186:	44 8b 2e             	mov    (%rsi),%r13d
    1189:	48 b8 00 00 00 00 00 	movabs $0xdffffc0000000000,%rax
    1190:	fc ff df 
    1193:	48 89 fa             	mov    %rdi,%rdx
    1196:	48 c1 ea 03          	shr    $0x3,%rdx
    119a:	0f b6 04 02          	movzbl (%rdx,%rax,1),%eax
    119e:	84 c0                	test   %al,%al
    11a0:	74 04                	je     11a6 <unprohibit_buffer+0x136>
    11a2:	3c 03                	cmp    $0x3,%al
    11a4:	7e 1c                	jle    11c2 <unprohibit_buffer+0x152>
    11a6:	45 89 6c 24 38       	mov    %r13d,0x38(%r12)
    11ab:	e9 10 ff ff ff       	jmp    10c0 <unprohibit_buffer+0x50>
    11b0:	48 89 f7             	mov    %rsi,%rdi
    11b3:	48 89 75 e8          	mov    %rsi,-0x18(%rbp)
    11b7:	e8 00 00 00 00       	call   11bc <unprohibit_buffer+0x14c>
    11bc:	48 8b 75 e8          	mov    -0x18(%rbp),%rsi
    11c0:	eb bf                	jmp    1181 <unprohibit_buffer+0x111>
    11c2:	48 89 75 e8          	mov    %rsi,-0x18(%rbp)
    11c6:	e8 00 00 00 00       	call   11cb <unprohibit_buffer+0x15b>
    11cb:	48 8b 75 e8          	mov    -0x18(%rbp),%rsi
    11cf:	eb d5                	jmp    11a6 <unprohibit_buffer+0x136>
    11d1:	48 89 75 e8          	mov    %rsi,-0x18(%rbp)
    11d5:	e8 00 00 00 00       	call   11da <unprohibit_buffer+0x16a>
    11da:	48 8b 75 e8          	mov    -0x18(%rbp),%rsi
    11de:	e9 c0 fe ff ff       	jmp    10a3 <unprohibit_buffer+0x33>
    11e3:	4c 89 e7             	mov    %r12,%rdi
    11e6:	48 89 75 e8          	mov    %rsi,-0x18(%rbp)
    11ea:	e8 00 00 00 00       	call   11ef <unprohibit_buffer+0x17f>
    11ef:	48 8b 75 e8          	mov    -0x18(%rbp),%rsi
    11f3:	e9 4c ff ff ff       	jmp    1144 <unprohibit_buffer+0xd4>
    11f8:	48 89 75 e8          	mov    %rsi,-0x18(%rbp)
    11fc:	e8 00 00 00 00       	call   1201 <unprohibit_buffer+0x191>
    1201:	48 8b 75 e8          	mov    -0x18(%rbp),%rsi
    1205:	e9 1b ff ff ff       	jmp    1125 <unprohibit_buffer+0xb5>
    120a:	48 89 75 e8          	mov    %rsi,-0x18(%rbp)
    120e:	e8 00 00 00 00       	call   1213 <unprohibit_buffer+0x1a3>
    1213:	48 8b 75 e8          	mov    -0x18(%rbp),%rsi
    1217:	e9 e6 fe ff ff       	jmp    1102 <unprohibit_buffer+0x92>
    121c:	48 89 75 e8          	mov    %rsi,-0x18(%rbp)
    1220:	e8 00 00 00 00       	call   1225 <unprohibit_buffer+0x1b5>
    1225:	48 8b 75 e8          	mov    -0x18(%rbp),%rsi
    1229:	e9 b1 fe ff ff       	jmp    10df <unprohibit_buffer+0x6f>
    122e:	66 90                	xchg   %ax,%ax

0000000000001230 <__pfx_init_positions_desc>:
    1230:	90                   	nop
    1231:	90                   	nop
    1232:	90                   	nop
    1233:	90                   	nop
    1234:	90                   	nop
    1235:	90                   	nop
    1236:	90                   	nop
    1237:	90                   	nop
    1238:	90                   	nop
    1239:	90                   	nop
    123a:	90                   	nop
    123b:	90                   	nop
    123c:	90                   	nop
    123d:	90                   	nop
    123e:	90                   	nop
    123f:	90                   	nop

0000000000001240 <init_positions_desc>:
    1240:	f3 0f 1e fa          	endbr64
    1244:	e8 00 00 00 00       	call   1249 <init_positions_desc+0x9>
    1249:	48 85 ff             	test   %rdi,%rdi
    124c:	0f 84 d0 00 00 00    	je     1322 <init_positions_desc+0xe2>
    1252:	48 b8 00 00 00 00 00 	movabs $0xdffffc0000000000,%rax
    1259:	fc ff df 
    125c:	55                   	push   %rbp
    125d:	48 89 fa             	mov    %rdi,%rdx
    1260:	48 c1 ea 03          	shr    $0x3,%rdx
    1264:	48 89 e5             	mov    %rsp,%rbp
    1267:	41 55                	push   %r13
    1269:	41 54                	push   %r12
    126b:	49 89 fc             	mov    %rdi,%r12
    126e:	53                   	push   %rbx
    126f:	80 3c 02 00          	cmpb   $0x0,(%rdx,%rax,1)
    1273:	0f 85 ca 00 00 00    	jne    1343 <init_positions_desc+0x103>
    1279:	49 8d 7c 24 08       	lea    0x8(%r12),%rdi
    127e:	4d 89 24 24          	mov    %r12,(%r12)
    1282:	48 b8 00 00 00 00 00 	movabs $0xdffffc0000000000,%rax
    1289:	fc ff df 
    128c:	48 89 fa             	mov    %rdi,%rdx
    128f:	48 c1 ea 03          	shr    $0x3,%rdx
    1293:	80 3c 02 00          	cmpb   $0x0,(%rdx,%rax,1)
    1297:	0f 85 b0 00 00 00    	jne    134d <init_positions_desc+0x10d>
    129d:	49 8d 5c 24 10       	lea    0x10(%r12),%rbx
    12a2:	4d 89 64 24 08       	mov    %r12,0x8(%r12)
    12a7:	48 b8 00 00 00 00 00 	movabs $0xdffffc0000000000,%rax
    12ae:	fc ff df 
    12b1:	48 89 da             	mov    %rbx,%rdx
    12b4:	48 c1 ea 03          	shr    $0x3,%rdx
    12b8:	80 3c 02 00          	cmpb   $0x0,(%rdx,%rax,1)
    12bc:	75 78                	jne    1336 <init_positions_desc+0xf6>
    12be:	49 8d 7c 24 18       	lea    0x18(%r12),%rdi
    12c3:	49 89 5c 24 10       	mov    %rbx,0x10(%r12)
    12c8:	48 b8 00 00 00 00 00 	movabs $0xdffffc0000000000,%rax
    12cf:	fc ff df 
    12d2:	48 89 fa             	mov    %rdi,%rdx
    12d5:	48 c1 ea 03          	shr    $0x3,%rdx
    12d9:	80 3c 02 00          	cmpb   $0x0,(%rdx,%rax,1)
    12dd:	75 78                	jne    1357 <init_positions_desc+0x117>
    12df:	49 bd 00 00 00 00 00 	movabs $0xdffffc0000000000,%r13
    12e6:	fc ff df 
    12e9:	49 89 5c 24 18       	mov    %rbx,0x18(%r12)
    12ee:	49 8d 5c 24 20       	lea    0x20(%r12),%rbx
    12f3:	49 83 c4 60          	add    $0x60,%r12
    12f7:	48 89 d8             	mov    %rbx,%rax
    12fa:	48 c1 e8 03          	shr    $0x3,%rax
    12fe:	42 80 3c 28 00       	cmpb   $0x0,(%rax,%r13,1)
    1303:	75 27                	jne    132c <init_positions_desc+0xec>
    1305:	48 c7 03 00 00 00 00 	movq   $0x0,(%rbx)
    130c:	48 83 c3 08          	add    $0x8,%rbx
    1310:	4c 39 e3             	cmp    %r12,%rbx
    1313:	75 e2                	jne    12f7 <init_positions_desc+0xb7>
    1315:	5b                   	pop    %rbx
    1316:	31 c0                	xor    %eax,%eax
    1318:	41 5c                	pop    %r12
    131a:	41 5d                	pop    %r13
    131c:	5d                   	pop    %rbp
    131d:	e9 00 00 00 00       	jmp    1322 <init_positions_desc+0xe2>
    1322:	b8 ea ff ff ff       	mov    $0xffffffea,%eax
    1327:	e9 00 00 00 00       	jmp    132c <init_positions_desc+0xec>
    132c:	48 89 df             	mov    %rbx,%rdi
    132f:	e8 00 00 00 00       	call   1334 <init_positions_desc+0xf4>
    1334:	eb cf                	jmp    1305 <init_positions_desc+0xc5>
    1336:	48 89 df             	mov    %rbx,%rdi
    1339:	e8 00 00 00 00       	call   133e <init_positions_desc+0xfe>
    133e:	e9 7b ff ff ff       	jmp    12be <init_positions_desc+0x7e>
    1343:	e8 00 00 00 00       	call   1348 <init_positions_desc+0x108>
    1348:	e9 2c ff ff ff       	jmp    1279 <init_positions_desc+0x39>
    134d:	e8 00 00 00 00       	call   1352 <init_positions_desc+0x112>
    1352:	e9 46 ff ff ff       	jmp    129d <init_positions_desc+0x5d>
    1357:	e8 00 00 00 00       	call   135c <init_positions_desc+0x11c>
    135c:	eb 81                	jmp    12df <init_positions_desc+0x9f>
    135e:	66 90                	xchg   %ax,%ax

0000000000001360 <__pfx_deinit_positions_desc>:
    1360:	90                   	nop
    1361:	90                   	nop
    1362:	90                   	nop
    1363:	90                   	nop
    1364:	90                   	nop
    1365:	90                   	nop
    1366:	90                   	nop
    1367:	90                   	nop
    1368:	90                   	nop
    1369:	90                   	nop
    136a:	90                   	nop
    136b:	90                   	nop
    136c:	90                   	nop
    136d:	90                   	nop
    136e:	90                   	nop
    136f:	90                   	nop

0000000000001370 <deinit_positions_desc>:
    1370:	f3 0f 1e fa          	endbr64
    1374:	e8 00 00 00 00       	call   1379 <deinit_positions_desc+0x9>
    1379:	48 85 ff             	test   %rdi,%rdi
    137c:	0f 84 0f 01 00 00    	je     1491 <deinit_positions_desc+0x121>
    1382:	48 b8 00 00 00 00 00 	movabs $0xdffffc0000000000,%rax
    1389:	fc ff df 
    138c:	55                   	push   %rbp
    138d:	48 89 e5             	mov    %rsp,%rbp
    1390:	41 56                	push   %r14
    1392:	41 55                	push   %r13
    1394:	41 54                	push   %r12
    1396:	4c 8d 67 10          	lea    0x10(%rdi),%r12
    139a:	53                   	push   %rbx
    139b:	4c 89 e2             	mov    %r12,%rdx
    139e:	48 89 fb             	mov    %rdi,%rbx
    13a1:	48 c1 ea 03          	shr    $0x3,%rdx
    13a5:	48 83 ec 08          	sub    $0x8,%rsp
    13a9:	80 3c 02 00          	cmpb   $0x0,(%rdx,%rax,1)
    13ad:	0f 85 2d 01 00 00    	jne    14e0 <deinit_positions_desc+0x170>
    13b3:	48 b8 00 00 00 00 00 	movabs $0xdffffc0000000000,%rax
    13ba:	fc ff df 
    13bd:	48 8b 7b 10          	mov    0x10(%rbx),%rdi
    13c1:	48 89 fa             	mov    %rdi,%rdx
    13c4:	48 c1 ea 03          	shr    $0x3,%rdx
    13c8:	80 3c 02 00          	cmpb   $0x0,(%rdx,%rax,1)
    13cc:	0f 85 fc 00 00 00    	jne    14ce <deinit_positions_desc+0x15e>
    13d2:	49 bd 00 00 00 00 00 	movabs $0xdffffc0000000000,%r13
    13d9:	fc ff df 
    13dc:	4c 8b 37             	mov    (%rdi),%r14
    13df:	49 39 fc             	cmp    %rdi,%r12
    13e2:	75 05                	jne    13e9 <deinit_positions_desc+0x79>
    13e4:	eb 29                	jmp    140f <deinit_positions_desc+0x9f>
    13e6:	49 89 c6             	mov    %rax,%r14
    13e9:	48 83 ef 18          	sub    $0x18,%rdi
    13ed:	e8 00 00 00 00       	call   13f2 <deinit_positions_desc+0x82>
    13f2:	4c 89 f0             	mov    %r14,%rax
    13f5:	48 c1 e8 03          	shr    $0x3,%rax
    13f9:	42 80 3c 28 00       	cmpb   $0x0,(%rax,%r13,1)
    13fe:	0f 85 a1 00 00 00    	jne    14a5 <deinit_positions_desc+0x135>
    1404:	49 8b 06             	mov    (%r14),%rax
    1407:	4c 89 f7             	mov    %r14,%rdi
    140a:	4d 39 f4             	cmp    %r14,%r12
    140d:	75 d7                	jne    13e6 <deinit_positions_desc+0x76>
    140f:	48 b8 00 00 00 00 00 	movabs $0xdffffc0000000000,%rax
    1416:	fc ff df 
    1419:	48 89 da             	mov    %rbx,%rdx
    141c:	48 c1 ea 03          	shr    $0x3,%rdx
    1420:	80 3c 02 00          	cmpb   $0x0,(%rdx,%rax,1)
    1424:	0f 85 97 00 00 00    	jne    14c1 <deinit_positions_desc+0x151>
    142a:	48 b8 00 00 00 00 00 	movabs $0xdffffc0000000000,%rax
    1431:	fc ff df 
    1434:	48 8b 3b             	mov    (%rbx),%rdi
    1437:	48 89 fa             	mov    %rdi,%rdx
    143a:	48 c1 ea 03          	shr    $0x3,%rdx
    143e:	80 3c 02 00          	cmpb   $0x0,(%rdx,%rax,1)
    1442:	75 6e                	jne    14b2 <deinit_positions_desc+0x142>
    1444:	49 bd 00 00 00 00 00 	movabs $0xdffffc0000000000,%r13
    144b:	fc ff df 
    144e:	4c 8b 27             	mov    (%rdi),%r12
    1451:	48 39 df             	cmp    %rbx,%rdi
    1454:	75 05                	jne    145b <deinit_positions_desc+0xeb>
    1456:	eb 26                	jmp    147e <deinit_positions_desc+0x10e>
    1458:	49 89 c4             	mov    %rax,%r12
    145b:	48 83 ef 18          	sub    $0x18,%rdi
    145f:	e8 00 00 00 00       	call   1464 <deinit_positions_desc+0xf4>
    1464:	4c 89 e0             	mov    %r12,%rax
    1467:	48 c1 e8 03          	shr    $0x3,%rax
    146b:	42 80 3c 28 00       	cmpb   $0x0,(%rax,%r13,1)
    1470:	75 29                	jne    149b <deinit_positions_desc+0x12b>
    1472:	49 8b 04 24          	mov    (%r12),%rax
    1476:	4c 89 e7             	mov    %r12,%rdi
    1479:	4c 39 e3             	cmp    %r12,%rbx
    147c:	75 da                	jne    1458 <deinit_positions_desc+0xe8>
    147e:	48 83 c4 08          	add    $0x8,%rsp
    1482:	31 c0                	xor    %eax,%eax
    1484:	5b                   	pop    %rbx
    1485:	41 5c                	pop    %r12
    1487:	41 5d                	pop    %r13
    1489:	41 5e                	pop    %r14
    148b:	5d                   	pop    %rbp
    148c:	e9 00 00 00 00       	jmp    1491 <deinit_positions_desc+0x121>
    1491:	b8 ea ff ff ff       	mov    $0xffffffea,%eax
    1496:	e9 00 00 00 00       	jmp    149b <deinit_positions_desc+0x12b>
    149b:	4c 89 e7             	mov    %r12,%rdi
    149e:	e8 00 00 00 00       	call   14a3 <deinit_positions_desc+0x133>
    14a3:	eb cd                	jmp    1472 <deinit_positions_desc+0x102>
    14a5:	4c 89 f7             	mov    %r14,%rdi
    14a8:	e8 00 00 00 00       	call   14ad <deinit_positions_desc+0x13d>
    14ad:	e9 52 ff ff ff       	jmp    1404 <deinit_positions_desc+0x94>
    14b2:	48 89 7d d8          	mov    %rdi,-0x28(%rbp)
    14b6:	e8 00 00 00 00       	call   14bb <deinit_positions_desc+0x14b>
    14bb:	48 8b 7d d8          	mov    -0x28(%rbp),%rdi
    14bf:	eb 83                	jmp    1444 <deinit_positions_desc+0xd4>
    14c1:	48 89 df             	mov    %rbx,%rdi
    14c4:	e8 00 00 00 00       	call   14c9 <deinit_positions_desc+0x159>
    14c9:	e9 5c ff ff ff       	jmp    142a <deinit_positions_desc+0xba>
    14ce:	48 89 7d d8          	mov    %rdi,-0x28(%rbp)
    14d2:	e8 00 00 00 00       	call   14d7 <deinit_positions_desc+0x167>
    14d7:	48 8b 7d d8          	mov    -0x28(%rbp),%rdi
    14db:	e9 f2 fe ff ff       	jmp    13d2 <deinit_positions_desc+0x62>
    14e0:	4c 89 e7             	mov    %r12,%rdi
    14e3:	e8 00 00 00 00       	call   14e8 <deinit_positions_desc+0x178>
    14e8:	e9 c6 fe ff ff       	jmp    13b3 <deinit_positions_desc+0x43>
    14ed:	0f 1f 00             	nopl   (%rax)

00000000000014f0 <__pfx_create_position_struct>:
    14f0:	90                   	nop
    14f1:	90                   	nop
    14f2:	90                   	nop
    14f3:	90                   	nop
    14f4:	90                   	nop
    14f5:	90                   	nop
    14f6:	90                   	nop
    14f7:	90                   	nop
    14f8:	90                   	nop
    14f9:	90                   	nop
    14fa:	90                   	nop
    14fb:	90                   	nop
    14fc:	90                   	nop
    14fd:	90                   	nop
    14fe:	90                   	nop
    14ff:	90                   	nop

0000000000001500 <create_position_struct>:
    1500:	f3 0f 1e fa          	endbr64
    1504:	e8 00 00 00 00       	call   1509 <create_position_struct+0x9>
    1509:	48 85 ff             	test   %rdi,%rdi
    150c:	0f 84 56 01 00 00    	je     1668 <create_position_struct+0x168>
    1512:	48 b8 00 00 00 00 00 	movabs $0xdffffc0000000000,%rax
    1519:	fc ff df 
    151c:	55                   	push   %rbp
    151d:	48 89 e5             	mov    %rsp,%rbp
    1520:	41 56                	push   %r14
    1522:	41 55                	push   %r13
    1524:	41 54                	push   %r12
    1526:	49 89 fc             	mov    %rdi,%r12
    1529:	53                   	push   %rbx
    152a:	65 48 8b 1d 00 00 00 	mov    %gs:0x0(%rip),%rbx        # 1532 <create_position_struct+0x32>
    1531:	00 
    1532:	48 8d 7b 38          	lea    0x38(%rbx),%rdi
    1536:	48 89 fa             	mov    %rdi,%rdx
    1539:	48 c1 ea 03          	shr    $0x3,%rdx
    153d:	80 3c 02 00          	cmpb   $0x0,(%rdx,%rax,1)
    1541:	0f 85 6e 01 00 00    	jne    16b5 <create_position_struct+0x1b5>
    1547:	48 b8 00 00 00 00 00 	movabs $0xdffffc0000000000,%rax
    154e:	fc ff df 
    1551:	4c 8b 73 38          	mov    0x38(%rbx),%r14
    1555:	65 48 8b 1d 00 00 00 	mov    %gs:0x0(%rip),%rbx        # 155d <create_position_struct+0x5d>
    155c:	00 
    155d:	48 8d 7b 38          	lea    0x38(%rbx),%rdi
    1561:	48 89 fa             	mov    %rdi,%rdx
    1564:	48 c1 ea 03          	shr    $0x3,%rdx
    1568:	80 3c 02 00          	cmpb   $0x0,(%rdx,%rax,1)
    156c:	0f 85 39 01 00 00    	jne    16ab <create_position_struct+0x1ab>
    1572:	48 c7 43 38 00 00 00 	movq   $0x0,0x38(%rbx)
    1579:	00 
    157a:	bf 28 00 00 00       	mov    $0x28,%edi
    157f:	65 4c 8b 2d 00 00 00 	mov    %gs:0x0(%rip),%r13        # 1587 <create_position_struct+0x87>
    1586:	00 
    1587:	e8 00 00 00 00       	call   158c <create_position_struct+0x8c>
    158c:	49 8d 7d 38          	lea    0x38(%r13),%rdi
    1590:	48 89 fa             	mov    %rdi,%rdx
    1593:	48 89 c3             	mov    %rax,%rbx
    1596:	48 b8 00 00 00 00 00 	movabs $0xdffffc0000000000,%rax
    159d:	fc ff df 
    15a0:	48 c1 ea 03          	shr    $0x3,%rdx
    15a4:	80 3c 02 00          	cmpb   $0x0,(%rdx,%rax,1)
    15a8:	0f 85 f3 00 00 00    	jne    16a1 <create_position_struct+0x1a1>
    15ae:	48 b8 00 00 00 00 00 	movabs $0xdffffc0000000000,%rax
    15b5:	fc ff df 
    15b8:	4d 89 75 38          	mov    %r14,0x38(%r13)
    15bc:	4c 8d 6b 18          	lea    0x18(%rbx),%r13
    15c0:	4c 89 ea             	mov    %r13,%rdx
    15c3:	48 c1 ea 03          	shr    $0x3,%rdx
    15c7:	80 3c 02 00          	cmpb   $0x0,(%rdx,%rax,1)
    15cb:	0f 85 c3 00 00 00    	jne    1694 <create_position_struct+0x194>
    15d1:	48 8d 7b 20          	lea    0x20(%rbx),%rdi
    15d5:	4c 89 6b 18          	mov    %r13,0x18(%rbx)
    15d9:	48 b8 00 00 00 00 00 	movabs $0xdffffc0000000000,%rax
    15e0:	fc ff df 
    15e3:	48 89 fa             	mov    %rdi,%rdx
    15e6:	48 c1 ea 03          	shr    $0x3,%rdx
    15ea:	80 3c 02 00          	cmpb   $0x0,(%rdx,%rax,1)
    15ee:	0f 85 96 00 00 00    	jne    168a <create_position_struct+0x18a>
    15f4:	48 8d 7b 08          	lea    0x8(%rbx),%rdi
    15f8:	4c 89 6b 20          	mov    %r13,0x20(%rbx)
    15fc:	48 b8 00 00 00 00 00 	movabs $0xdffffc0000000000,%rax
    1603:	fc ff df 
    1606:	48 89 fa             	mov    %rdi,%rdx
    1609:	48 c1 ea 03          	shr    $0x3,%rdx
    160d:	80 3c 02 00          	cmpb   $0x0,(%rdx,%rax,1)
    1611:	75 70                	jne    1683 <create_position_struct+0x183>
    1613:	48 8d 7b 10          	lea    0x10(%rbx),%rdi
    1617:	48 c7 43 08 00 00 00 	movq   $0x0,0x8(%rbx)
    161e:	00 
    161f:	48 b8 00 00 00 00 00 	movabs $0xdffffc0000000000,%rax
    1626:	fc ff df 
    1629:	48 89 fa             	mov    %rdi,%rdx
    162c:	48 c1 ea 03          	shr    $0x3,%rdx
    1630:	80 3c 02 00          	cmpb   $0x0,(%rdx,%rax,1)
    1634:	75 46                	jne    167c <create_position_struct+0x17c>
    1636:	4c 89 e2             	mov    %r12,%rdx
    1639:	48 c7 43 10 00 00 00 	movq   $0x0,0x10(%rbx)
    1640:	00 
    1641:	48 b8 00 00 00 00 00 	movabs $0xdffffc0000000000,%rax
    1648:	fc ff df 
    164b:	48 c1 ea 03          	shr    $0x3,%rdx
    164f:	80 3c 02 00          	cmpb   $0x0,(%rdx,%rax,1)
    1653:	75 1d                	jne    1672 <create_position_struct+0x172>
    1655:	49 89 1c 24          	mov    %rbx,(%r12)
    1659:	31 c0                	xor    %eax,%eax
    165b:	5b                   	pop    %rbx
    165c:	41 5c                	pop    %r12
    165e:	41 5d                	pop    %r13
    1660:	41 5e                	pop    %r14
    1662:	5d                   	pop    %rbp
    1663:	e9 00 00 00 00       	jmp    1668 <create_position_struct+0x168>
    1668:	b8 ea ff ff ff       	mov    $0xffffffea,%eax
    166d:	e9 00 00 00 00       	jmp    1672 <create_position_struct+0x172>
    1672:	4c 89 e7             	mov    %r12,%rdi
    1675:	e8 00 00 00 00       	call   167a <create_position_struct+0x17a>
    167a:	eb d9                	jmp    1655 <create_position_struct+0x155>
    167c:	e8 00 00 00 00       	call   1681 <create_position_struct+0x181>
    1681:	eb b3                	jmp    1636 <create_position_struct+0x136>
    1683:	e8 00 00 00 00       	call   1688 <create_position_struct+0x188>
    1688:	eb 89                	jmp    1613 <create_position_struct+0x113>
    168a:	e8 00 00 00 00       	call   168f <create_position_struct+0x18f>
    168f:	e9 60 ff ff ff       	jmp    15f4 <create_position_struct+0xf4>
    1694:	4c 89 ef             	mov    %r13,%rdi
    1697:	e8 00 00 00 00       	call   169c <create_position_struct+0x19c>
    169c:	e9 30 ff ff ff       	jmp    15d1 <create_position_struct+0xd1>
    16a1:	e8 00 00 00 00       	call   16a6 <create_position_struct+0x1a6>
    16a6:	e9 03 ff ff ff       	jmp    15ae <create_position_struct+0xae>
    16ab:	e8 00 00 00 00       	call   16b0 <create_position_struct+0x1b0>
    16b0:	e9 bd fe ff ff       	jmp    1572 <create_position_struct+0x72>
    16b5:	e8 00 00 00 00       	call   16ba <create_position_struct+0x1ba>
    16ba:	e9 88 fe ff ff       	jmp    1547 <create_position_struct+0x47>
    16bf:	90                   	nop

00000000000016c0 <__pfx_delete_position_struct>:
    16c0:	90                   	nop
    16c1:	90                   	nop
    16c2:	90                   	nop
    16c3:	90                   	nop
    16c4:	90                   	nop
    16c5:	90                   	nop
    16c6:	90                   	nop
    16c7:	90                   	nop
    16c8:	90                   	nop
    16c9:	90                   	nop
    16ca:	90                   	nop
    16cb:	90                   	nop
    16cc:	90                   	nop
    16cd:	90                   	nop
    16ce:	90                   	nop
    16cf:	90                   	nop

00000000000016d0 <delete_position_struct>:
    16d0:	f3 0f 1e fa          	endbr64
    16d4:	e8 00 00 00 00       	call   16d9 <delete_position_struct+0x9>
    16d9:	48 85 ff             	test   %rdi,%rdi
    16dc:	74 11                	je     16ef <delete_position_struct+0x1f>
    16de:	55                   	push   %rbp
    16df:	48 89 e5             	mov    %rsp,%rbp
    16e2:	e8 00 00 00 00       	call   16e7 <delete_position_struct+0x17>
    16e7:	31 c0                	xor    %eax,%eax
    16e9:	5d                   	pop    %rbp
    16ea:	e9 00 00 00 00       	jmp    16ef <delete_position_struct+0x1f>
    16ef:	b8 ea ff ff ff       	mov    $0xffffffea,%eax
    16f4:	e9 00 00 00 00       	jmp    16f9 <delete_position_struct+0x29>
    16f9:	0f 1f 80 00 00 00 00 	nopl   0x0(%rax)

0000000000001700 <__pfx_set_position_num>:
    1700:	90                   	nop
    1701:	90                   	nop
    1702:	90                   	nop
    1703:	90                   	nop
    1704:	90                   	nop
    1705:	90                   	nop
    1706:	90                   	nop
    1707:	90                   	nop
    1708:	90                   	nop
    1709:	90                   	nop
    170a:	90                   	nop
    170b:	90                   	nop
    170c:	90                   	nop
    170d:	90                   	nop
    170e:	90                   	nop
    170f:	90                   	nop

0000000000001710 <set_position_num>:
    1710:	f3 0f 1e fa          	endbr64
    1714:	e8 00 00 00 00       	call   1719 <set_position_num+0x9>
    1719:	48 b8 00 00 00 00 00 	movabs $0xdffffc0000000000,%rax
    1720:	fc ff df 
    1723:	55                   	push   %rbp
    1724:	48 89 e5             	mov    %rsp,%rbp
    1727:	53                   	push   %rbx
    1728:	48 89 fb             	mov    %rdi,%rbx
    172b:	48 83 c7 04          	add    $0x4,%rdi
    172f:	48 89 fa             	mov    %rdi,%rdx
    1732:	48 c1 ea 03          	shr    $0x3,%rdx
    1736:	48 83 ec 08          	sub    $0x8,%rsp
    173a:	0f b6 14 02          	movzbl (%rdx,%rax,1),%edx
    173e:	48 89 f8             	mov    %rdi,%rax
    1741:	83 e0 07             	and    $0x7,%eax
    1744:	83 c0 03             	add    $0x3,%eax
    1747:	38 d0                	cmp    %dl,%al
    1749:	7c 04                	jl     174f <set_position_num+0x3f>
    174b:	84 d2                	test   %dl,%dl
    174d:	75 0d                	jne    175c <set_position_num+0x4c>
    174f:	89 73 04             	mov    %esi,0x4(%rbx)
    1752:	48 8b 5d f8          	mov    -0x8(%rbp),%rbx
    1756:	c9                   	leave
    1757:	e9 00 00 00 00       	jmp    175c <set_position_num+0x4c>
    175c:	89 75 f4             	mov    %esi,-0xc(%rbp)
    175f:	e8 00 00 00 00       	call   1764 <set_position_num+0x54>
    1764:	8b 75 f4             	mov    -0xc(%rbp),%esi
    1767:	eb e6                	jmp    174f <set_position_num+0x3f>
    1769:	0f 1f 80 00 00 00 00 	nopl   0x0(%rax)

0000000000001770 <__pfx_get_position_num>:
    1770:	90                   	nop
    1771:	90                   	nop
    1772:	90                   	nop
    1773:	90                   	nop
    1774:	90                   	nop
    1775:	90                   	nop
    1776:	90                   	nop
    1777:	90                   	nop
    1778:	90                   	nop
    1779:	90                   	nop
    177a:	90                   	nop
    177b:	90                   	nop
    177c:	90                   	nop
    177d:	90                   	nop
    177e:	90                   	nop
    177f:	90                   	nop

0000000000001780 <get_position_num>:
    1780:	f3 0f 1e fa          	endbr64
    1784:	e8 00 00 00 00       	call   1789 <get_position_num+0x9>
    1789:	48 b8 00 00 00 00 00 	movabs $0xdffffc0000000000,%rax
    1790:	fc ff df 
    1793:	55                   	push   %rbp
    1794:	48 89 e5             	mov    %rsp,%rbp
    1797:	53                   	push   %rbx
    1798:	48 89 fb             	mov    %rdi,%rbx
    179b:	48 83 c7 04          	add    $0x4,%rdi
    179f:	48 89 fa             	mov    %rdi,%rdx
    17a2:	48 c1 ea 03          	shr    $0x3,%rdx
    17a6:	0f b6 14 02          	movzbl (%rdx,%rax,1),%edx
    17aa:	48 89 f8             	mov    %rdi,%rax
    17ad:	83 e0 07             	and    $0x7,%eax
    17b0:	83 c0 03             	add    $0x3,%eax
    17b3:	38 d0                	cmp    %dl,%al
    17b5:	7c 04                	jl     17bb <get_position_num+0x3b>
    17b7:	84 d2                	test   %dl,%dl
    17b9:	75 0d                	jne    17c8 <get_position_num+0x48>
    17bb:	8b 43 04             	mov    0x4(%rbx),%eax
    17be:	48 8b 5d f8          	mov    -0x8(%rbp),%rbx
    17c2:	c9                   	leave
    17c3:	e9 00 00 00 00       	jmp    17c8 <get_position_num+0x48>
    17c8:	e8 00 00 00 00       	call   17cd <get_position_num+0x4d>
    17cd:	eb ec                	jmp    17bb <get_position_num+0x3b>
    17cf:	90                   	nop

00000000000017d0 <__pfx_is_position_not_used>:
    17d0:	90                   	nop
    17d1:	90                   	nop
    17d2:	90                   	nop
    17d3:	90                   	nop
    17d4:	90                   	nop
    17d5:	90                   	nop
    17d6:	90                   	nop
    17d7:	90                   	nop
    17d8:	90                   	nop
    17d9:	90                   	nop
    17da:	90                   	nop
    17db:	90                   	nop
    17dc:	90                   	nop
    17dd:	90                   	nop
    17de:	90                   	nop
    17df:	90                   	nop

00000000000017e0 <is_position_not_used>:
    17e0:	f3 0f 1e fa          	endbr64
    17e4:	e8 00 00 00 00       	call   17e9 <is_position_not_used+0x9>
    17e9:	48 b8 00 00 00 00 00 	movabs $0xdffffc0000000000,%rax
    17f0:	fc ff df 
    17f3:	48 89 fa             	mov    %rdi,%rdx
    17f6:	48 c1 ea 03          	shr    $0x3,%rdx
    17fa:	0f b6 04 02          	movzbl (%rdx,%rax,1),%eax
    17fe:	84 c0                	test   %al,%al
    1800:	74 04                	je     1806 <is_position_not_used+0x26>
    1802:	3c 03                	cmp    $0x3,%al
    1804:	7e 0e                	jle    1814 <is_position_not_used+0x34>
    1806:	8b 17                	mov    (%rdi),%edx
    1808:	31 c0                	xor    %eax,%eax
    180a:	85 d2                	test   %edx,%edx
    180c:	0f 94 c0             	sete   %al
    180f:	e9 00 00 00 00       	jmp    1814 <is_position_not_used+0x34>
    1814:	55                   	push   %rbp
    1815:	48 89 e5             	mov    %rsp,%rbp
    1818:	51                   	push   %rcx
    1819:	48 89 7d f8          	mov    %rdi,-0x8(%rbp)
    181d:	e8 00 00 00 00       	call   1822 <is_position_not_used+0x42>
    1822:	48 8b 7d f8          	mov    -0x8(%rbp),%rdi
    1826:	31 c0                	xor    %eax,%eax
    1828:	83 3f 00             	cmpl   $0x0,(%rdi)
    182b:	c9                   	leave
    182c:	0f 94 c0             	sete   %al
    182f:	e9 00 00 00 00       	jmp    1834 <is_position_not_used+0x54>
    1834:	66 66 2e 0f 1f 84 00 	data16 cs nopw 0x0(%rax,%rax,1)
    183b:	00 00 00 00 
    183f:	90                   	nop

0000000000001840 <__pfx_up_position>:
    1840:	90                   	nop
    1841:	90                   	nop
    1842:	90                   	nop
    1843:	90                   	nop
    1844:	90                   	nop
    1845:	90                   	nop
    1846:	90                   	nop
    1847:	90                   	nop
    1848:	90                   	nop
    1849:	90                   	nop
    184a:	90                   	nop
    184b:	90                   	nop
    184c:	90                   	nop
    184d:	90                   	nop
    184e:	90                   	nop
    184f:	90                   	nop

0000000000001850 <up_position>:
    1850:	f3 0f 1e fa          	endbr64
    1854:	e8 00 00 00 00       	call   1859 <up_position+0x9>
    1859:	48 85 ff             	test   %rdi,%rdi
    185c:	74 44                	je     18a2 <up_position+0x52>
    185e:	48 b8 00 00 00 00 00 	movabs $0xdffffc0000000000,%rax
    1865:	fc ff df 
    1868:	48 89 fa             	mov    %rdi,%rdx
    186b:	48 c1 ea 03          	shr    $0x3,%rdx
    186f:	0f b6 04 02          	movzbl (%rdx,%rax,1),%eax
    1873:	84 c0                	test   %al,%al
    1875:	74 04                	je     187b <up_position+0x2b>
    1877:	3c 03                	cmp    $0x3,%al
    1879:	7e 0a                	jle    1885 <up_position+0x35>
    187b:	83 2f 01             	subl   $0x1,(%rdi)
    187e:	31 c0                	xor    %eax,%eax
    1880:	e9 00 00 00 00       	jmp    1885 <up_position+0x35>
    1885:	55                   	push   %rbp
    1886:	48 89 e5             	mov    %rsp,%rbp
    1889:	50                   	push   %rax
    188a:	48 89 7d f8          	mov    %rdi,-0x8(%rbp)
    188e:	e8 00 00 00 00       	call   1893 <up_position+0x43>
    1893:	48 8b 7d f8          	mov    -0x8(%rbp),%rdi
    1897:	31 c0                	xor    %eax,%eax
    1899:	83 2f 01             	subl   $0x1,(%rdi)
    189c:	c9                   	leave
    189d:	e9 00 00 00 00       	jmp    18a2 <up_position+0x52>
    18a2:	b8 ea ff ff ff       	mov    $0xffffffea,%eax
    18a7:	e9 00 00 00 00       	jmp    18ac <up_position+0x5c>
    18ac:	0f 1f 40 00          	nopl   0x0(%rax)

00000000000018b0 <__pfx_down_position>:
    18b0:	90                   	nop
    18b1:	90                   	nop
    18b2:	90                   	nop
    18b3:	90                   	nop
    18b4:	90                   	nop
    18b5:	90                   	nop
    18b6:	90                   	nop
    18b7:	90                   	nop
    18b8:	90                   	nop
    18b9:	90                   	nop
    18ba:	90                   	nop
    18bb:	90                   	nop
    18bc:	90                   	nop
    18bd:	90                   	nop
    18be:	90                   	nop
    18bf:	90                   	nop

00000000000018c0 <down_position>:
    18c0:	f3 0f 1e fa          	endbr64
    18c4:	e8 00 00 00 00       	call   18c9 <down_position+0x9>
    18c9:	48 85 ff             	test   %rdi,%rdi
    18cc:	74 44                	je     1912 <down_position+0x52>
    18ce:	48 b8 00 00 00 00 00 	movabs $0xdffffc0000000000,%rax
    18d5:	fc ff df 
    18d8:	48 89 fa             	mov    %rdi,%rdx
    18db:	48 c1 ea 03          	shr    $0x3,%rdx
    18df:	0f b6 04 02          	movzbl (%rdx,%rax,1),%eax
    18e3:	84 c0                	test   %al,%al
    18e5:	74 04                	je     18eb <down_position+0x2b>
    18e7:	3c 03                	cmp    $0x3,%al
    18e9:	7e 0a                	jle    18f5 <down_position+0x35>
    18eb:	83 07 01             	addl   $0x1,(%rdi)
    18ee:	31 c0                	xor    %eax,%eax
    18f0:	e9 00 00 00 00       	jmp    18f5 <down_position+0x35>
    18f5:	55                   	push   %rbp
    18f6:	48 89 e5             	mov    %rsp,%rbp
    18f9:	50                   	push   %rax
    18fa:	48 89 7d f8          	mov    %rdi,-0x8(%rbp)
    18fe:	e8 00 00 00 00       	call   1903 <down_position+0x43>
    1903:	48 8b 7d f8          	mov    -0x8(%rbp),%rdi
    1907:	31 c0                	xor    %eax,%eax
    1909:	83 07 01             	addl   $0x1,(%rdi)
    190c:	c9                   	leave
    190d:	e9 00 00 00 00       	jmp    1912 <down_position+0x52>
    1912:	b8 ea ff ff ff       	mov    $0xffffffea,%eax
    1917:	e9 00 00 00 00       	jmp    191c <down_position+0x5c>
    191c:	0f 1f 40 00          	nopl   0x0(%rax)

0000000000001920 <__pfx_push_free_position>:
    1920:	90                   	nop
    1921:	90                   	nop
    1922:	90                   	nop
    1923:	90                   	nop
    1924:	90                   	nop
    1925:	90                   	nop
    1926:	90                   	nop
    1927:	90                   	nop
    1928:	90                   	nop
    1929:	90                   	nop
    192a:	90                   	nop
    192b:	90                   	nop
    192c:	90                   	nop
    192d:	90                   	nop
    192e:	90                   	nop
    192f:	90                   	nop

0000000000001930 <push_free_position>:
    1930:	f3 0f 1e fa          	endbr64
    1934:	e8 00 00 00 00       	call   1939 <push_free_position+0x9>
    1939:	48 85 ff             	test   %rdi,%rdi
    193c:	0f 84 aa 00 00 00    	je     19ec <push_free_position+0xbc>
    1942:	48 85 f6             	test   %rsi,%rsi
    1945:	0f 84 a1 00 00 00    	je     19ec <push_free_position+0xbc>
    194b:	48 b8 00 00 00 00 00 	movabs $0xdffffc0000000000,%rax
    1952:	fc ff df 
    1955:	55                   	push   %rbp
    1956:	48 89 e5             	mov    %rsp,%rbp
    1959:	41 55                	push   %r13
    195b:	4c 8d 6e 18          	lea    0x18(%rsi),%r13
    195f:	41 54                	push   %r12
    1961:	53                   	push   %rbx
    1962:	48 89 fb             	mov    %rdi,%rbx
    1965:	48 8d 7f 08          	lea    0x8(%rdi),%rdi
    1969:	48 89 fa             	mov    %rdi,%rdx
    196c:	48 c1 ea 03          	shr    $0x3,%rdx
    1970:	48 83 ec 08          	sub    $0x8,%rsp
    1974:	80 3c 02 00          	cmpb   $0x0,(%rdx,%rax,1)
    1978:	0f 85 a6 00 00 00    	jne    1a24 <push_free_position+0xf4>
    197e:	4c 89 ea             	mov    %r13,%rdx
    1981:	4c 8b 63 08          	mov    0x8(%rbx),%r12
    1985:	4c 89 6b 08          	mov    %r13,0x8(%rbx)
    1989:	48 b8 00 00 00 00 00 	movabs $0xdffffc0000000000,%rax
    1990:	fc ff df 
    1993:	48 c1 ea 03          	shr    $0x3,%rdx
    1997:	80 3c 02 00          	cmpb   $0x0,(%rdx,%rax,1)
    199b:	75 72                	jne    1a0f <push_free_position+0xdf>
    199d:	48 8d 7e 20          	lea    0x20(%rsi),%rdi
    19a1:	48 89 5e 18          	mov    %rbx,0x18(%rsi)
    19a5:	48 b8 00 00 00 00 00 	movabs $0xdffffc0000000000,%rax
    19ac:	fc ff df 
    19af:	48 89 fa             	mov    %rdi,%rdx
    19b2:	48 c1 ea 03          	shr    $0x3,%rdx
    19b6:	80 3c 02 00          	cmpb   $0x0,(%rdx,%rax,1)
    19ba:	75 44                	jne    1a00 <push_free_position+0xd0>
    19bc:	4c 89 e2             	mov    %r12,%rdx
    19bf:	4c 89 66 20          	mov    %r12,0x20(%rsi)
    19c3:	48 b8 00 00 00 00 00 	movabs $0xdffffc0000000000,%rax
    19ca:	fc ff df 
    19cd:	48 c1 ea 03          	shr    $0x3,%rdx
    19d1:	80 3c 02 00          	cmpb   $0x0,(%rdx,%rax,1)
    19d5:	75 1f                	jne    19f6 <push_free_position+0xc6>
    19d7:	4d 89 2c 24          	mov    %r13,(%r12)
    19db:	48 83 c4 08          	add    $0x8,%rsp
    19df:	31 c0                	xor    %eax,%eax
    19e1:	5b                   	pop    %rbx
    19e2:	41 5c                	pop    %r12
    19e4:	41 5d                	pop    %r13
    19e6:	5d                   	pop    %rbp
    19e7:	e9 00 00 00 00       	jmp    19ec <push_free_position+0xbc>
    19ec:	b8 ea ff ff ff       	mov    $0xffffffea,%eax
    19f1:	e9 00 00 00 00       	jmp    19f6 <push_free_position+0xc6>
    19f6:	4c 89 e7             	mov    %r12,%rdi
    19f9:	e8 00 00 00 00       	call   19fe <push_free_position+0xce>
    19fe:	eb d7                	jmp    19d7 <push_free_position+0xa7>
    1a00:	48 89 75 e0          	mov    %rsi,-0x20(%rbp)
    1a04:	e8 00 00 00 00       	call   1a09 <push_free_position+0xd9>
    1a09:	48 8b 75 e0          	mov    -0x20(%rbp),%rsi
    1a0d:	eb ad                	jmp    19bc <push_free_position+0x8c>
    1a0f:	4c 89 ef             	mov    %r13,%rdi
    1a12:	48 89 75 e0          	mov    %rsi,-0x20(%rbp)
    1a16:	e8 00 00 00 00       	call   1a1b <push_free_position+0xeb>
    1a1b:	48 8b 75 e0          	mov    -0x20(%rbp),%rsi
    1a1f:	e9 79 ff ff ff       	jmp    199d <push_free_position+0x6d>
    1a24:	48 89 75 e0          	mov    %rsi,-0x20(%rbp)
    1a28:	e8 00 00 00 00       	call   1a2d <push_free_position+0xfd>
    1a2d:	48 8b 75 e0          	mov    -0x20(%rbp),%rsi
    1a31:	e9 48 ff ff ff       	jmp    197e <push_free_position+0x4e>
    1a36:	66 2e 0f 1f 84 00 00 	cs nopw 0x0(%rax,%rax,1)
    1a3d:	00 00 00 

0000000000001a40 <__pfx_pop_free_position>:
    1a40:	90                   	nop
    1a41:	90                   	nop
    1a42:	90                   	nop
    1a43:	90                   	nop
    1a44:	90                   	nop
    1a45:	90                   	nop
    1a46:	90                   	nop
    1a47:	90                   	nop
    1a48:	90                   	nop
    1a49:	90                   	nop
    1a4a:	90                   	nop
    1a4b:	90                   	nop
    1a4c:	90                   	nop
    1a4d:	90                   	nop
    1a4e:	90                   	nop
    1a4f:	90                   	nop

0000000000001a50 <pop_free_position>:
    1a50:	f3 0f 1e fa          	endbr64
    1a54:	e8 00 00 00 00       	call   1a59 <pop_free_position+0x9>
    1a59:	48 85 ff             	test   %rdi,%rdi
    1a5c:	0f 84 bb 00 00 00    	je     1b1d <pop_free_position+0xcd>
    1a62:	48 85 f6             	test   %rsi,%rsi
    1a65:	0f 84 b2 00 00 00    	je     1b1d <pop_free_position+0xcd>
    1a6b:	48 b8 00 00 00 00 00 	movabs $0xdffffc0000000000,%rax
    1a72:	fc ff df 
    1a75:	55                   	push   %rbp
    1a76:	48 8d 7e 18          	lea    0x18(%rsi),%rdi
    1a7a:	48 89 fa             	mov    %rdi,%rdx
    1a7d:	48 c1 ea 03          	shr    $0x3,%rdx
    1a81:	48 89 e5             	mov    %rsp,%rbp
    1a84:	41 55                	push   %r13
    1a86:	41 54                	push   %r12
    1a88:	48 83 ec 08          	sub    $0x8,%rsp
    1a8c:	80 3c 02 00          	cmpb   $0x0,(%rdx,%rax,1)
    1a90:	0f 85 c4 00 00 00    	jne    1b5a <pop_free_position+0x10a>
    1a96:	48 8d 7e 20          	lea    0x20(%rsi),%rdi
    1a9a:	4c 8b 6e 18          	mov    0x18(%rsi),%r13
    1a9e:	48 b8 00 00 00 00 00 	movabs $0xdffffc0000000000,%rax
    1aa5:	fc ff df 
    1aa8:	48 89 fa             	mov    %rdi,%rdx
    1aab:	48 c1 ea 03          	shr    $0x3,%rdx
    1aaf:	80 3c 02 00          	cmpb   $0x0,(%rdx,%rax,1)
    1ab3:	0f 85 8f 00 00 00    	jne    1b48 <pop_free_position+0xf8>
    1ab9:	49 8d 7d 08          	lea    0x8(%r13),%rdi
    1abd:	4c 8b 66 20          	mov    0x20(%rsi),%r12
    1ac1:	48 b8 00 00 00 00 00 	movabs $0xdffffc0000000000,%rax
    1ac8:	fc ff df 
    1acb:	48 89 fa             	mov    %rdi,%rdx
    1ace:	48 c1 ea 03          	shr    $0x3,%rdx
    1ad2:	80 3c 02 00          	cmpb   $0x0,(%rdx,%rax,1)
    1ad6:	75 61                	jne    1b39 <pop_free_position+0xe9>
    1ad8:	4c 89 e2             	mov    %r12,%rdx
    1adb:	4d 89 65 08          	mov    %r12,0x8(%r13)
    1adf:	48 b8 00 00 00 00 00 	movabs $0xdffffc0000000000,%rax
    1ae6:	fc ff df 
    1ae9:	48 c1 ea 03          	shr    $0x3,%rdx
    1aed:	80 3c 02 00          	cmpb   $0x0,(%rdx,%rax,1)
    1af1:	75 34                	jne    1b27 <pop_free_position+0xd7>
    1af3:	48 b8 00 01 00 00 00 	movabs $0xdead000000000100,%rax
    1afa:	00 ad de 
    1afd:	4d 89 2c 24          	mov    %r13,(%r12)
    1b01:	48 89 46 18          	mov    %rax,0x18(%rsi)
    1b05:	48 83 c0 22          	add    $0x22,%rax
    1b09:	48 89 46 20          	mov    %rax,0x20(%rsi)
    1b0d:	48 83 c4 08          	add    $0x8,%rsp
    1b11:	31 c0                	xor    %eax,%eax
    1b13:	41 5c                	pop    %r12
    1b15:	41 5d                	pop    %r13
    1b17:	5d                   	pop    %rbp
    1b18:	e9 00 00 00 00       	jmp    1b1d <pop_free_position+0xcd>
    1b1d:	b8 ea ff ff ff       	mov    $0xffffffea,%eax
    1b22:	e9 00 00 00 00       	jmp    1b27 <pop_free_position+0xd7>
    1b27:	4c 89 e7             	mov    %r12,%rdi
    1b2a:	48 89 75 e8          	mov    %rsi,-0x18(%rbp)
    1b2e:	e8 00 00 00 00       	call   1b33 <pop_free_position+0xe3>
    1b33:	48 8b 75 e8          	mov    -0x18(%rbp),%rsi
    1b37:	eb ba                	jmp    1af3 <pop_free_position+0xa3>
    1b39:	48 89 75 e8          	mov    %rsi,-0x18(%rbp)
    1b3d:	e8 00 00 00 00       	call   1b42 <pop_free_position+0xf2>
    1b42:	48 8b 75 e8          	mov    -0x18(%rbp),%rsi
    1b46:	eb 90                	jmp    1ad8 <pop_free_position+0x88>
    1b48:	48 89 75 e8          	mov    %rsi,-0x18(%rbp)
    1b4c:	e8 00 00 00 00       	call   1b51 <pop_free_position+0x101>
    1b51:	48 8b 75 e8          	mov    -0x18(%rbp),%rsi
    1b55:	e9 5f ff ff ff       	jmp    1ab9 <pop_free_position+0x69>
    1b5a:	48 89 75 e8          	mov    %rsi,-0x18(%rbp)
    1b5e:	e8 00 00 00 00       	call   1b63 <pop_free_position+0x113>
    1b63:	48 8b 75 e8          	mov    -0x18(%rbp),%rsi
    1b67:	e9 2a ff ff ff       	jmp    1a96 <pop_free_position+0x46>
    1b6c:	0f 1f 40 00          	nopl   0x0(%rax)

0000000000001b70 <__pfx_push_used_position_last>:
    1b70:	90                   	nop
    1b71:	90                   	nop
    1b72:	90                   	nop
    1b73:	90                   	nop
    1b74:	90                   	nop
    1b75:	90                   	nop
    1b76:	90                   	nop
    1b77:	90                   	nop
    1b78:	90                   	nop
    1b79:	90                   	nop
    1b7a:	90                   	nop
    1b7b:	90                   	nop
    1b7c:	90                   	nop
    1b7d:	90                   	nop
    1b7e:	90                   	nop
    1b7f:	90                   	nop

0000000000001b80 <push_used_position_last>:
    1b80:	f3 0f 1e fa          	endbr64
    1b84:	e8 00 00 00 00       	call   1b89 <push_used_position_last+0x9>
    1b89:	48 85 ff             	test   %rdi,%rdi
    1b8c:	0f 84 c5 01 00 00    	je     1d57 <push_used_position_last+0x1d7>
    1b92:	48 85 f6             	test   %rsi,%rsi
    1b95:	0f 84 bc 01 00 00    	je     1d57 <push_used_position_last+0x1d7>
    1b9b:	48 b8 00 00 00 00 00 	movabs $0xdffffc0000000000,%rax
    1ba2:	fc ff df 
    1ba5:	55                   	push   %rbp
    1ba6:	48 89 e5             	mov    %rsp,%rbp
    1ba9:	41 57                	push   %r15
    1bab:	41 56                	push   %r14
    1bad:	41 55                	push   %r13
    1baf:	41 54                	push   %r12
    1bb1:	49 89 fc             	mov    %rdi,%r12
    1bb4:	48 8d 7e 04          	lea    0x4(%rsi),%rdi
    1bb8:	48 89 fa             	mov    %rdi,%rdx
    1bbb:	48 c1 ea 03          	shr    $0x3,%rdx
    1bbf:	48 83 ec 08          	sub    $0x8,%rsp
    1bc3:	0f b6 14 02          	movzbl (%rdx,%rax,1),%edx
    1bc7:	48 89 f8             	mov    %rdi,%rax
    1bca:	83 e0 07             	and    $0x7,%eax
    1bcd:	83 c0 03             	add    $0x3,%eax
    1bd0:	38 d0                	cmp    %dl,%al
    1bd2:	7c 08                	jl     1bdc <push_used_position_last+0x5c>
    1bd4:	84 d2                	test   %dl,%dl
    1bd6:	0f 85 69 01 00 00    	jne    1d45 <push_used_position_last+0x1c5>
    1bdc:	69 46 04 47 86 c8 61 	imul   $0x61c88647,0x4(%rsi),%eax
    1be3:	4c 8d 7e 08          	lea    0x8(%rsi),%r15
    1be7:	c1 e8 1d             	shr    $0x1d,%eax
    1bea:	41 89 c5             	mov    %eax,%r13d
    1bed:	83 c0 04             	add    $0x4,%eax
    1bf0:	4b 8d 7c ec 20       	lea    0x20(%r12,%r13,8),%rdi
    1bf5:	4d 8d 34 c4          	lea    (%r12,%rax,8),%r14
    1bf9:	48 b8 00 00 00 00 00 	movabs $0xdffffc0000000000,%rax
    1c00:	fc ff df 
    1c03:	48 89 fa             	mov    %rdi,%rdx
    1c06:	48 c1 ea 03          	shr    $0x3,%rdx
    1c0a:	80 3c 02 00          	cmpb   $0x0,(%rdx,%rax,1)
    1c0e:	0f 85 7e 01 00 00    	jne    1d92 <push_used_position_last+0x212>
    1c14:	4c 89 fa             	mov    %r15,%rdx
    1c17:	4f 8b 6c ec 20       	mov    0x20(%r12,%r13,8),%r13
    1c1c:	48 b8 00 00 00 00 00 	movabs $0xdffffc0000000000,%rax
    1c23:	fc ff df 
    1c26:	48 c1 ea 03          	shr    $0x3,%rdx
    1c2a:	80 3c 02 00          	cmpb   $0x0,(%rdx,%rax,1)
    1c2e:	0f 85 97 01 00 00    	jne    1dcb <push_used_position_last+0x24b>
    1c34:	4c 89 6e 08          	mov    %r13,0x8(%rsi)
    1c38:	4d 85 ed             	test   %r13,%r13
    1c3b:	74 23                	je     1c60 <push_used_position_last+0xe0>
    1c3d:	48 b8 00 00 00 00 00 	movabs $0xdffffc0000000000,%rax
    1c44:	fc ff df 
    1c47:	49 8d 7d 08          	lea    0x8(%r13),%rdi
    1c4b:	48 89 fa             	mov    %rdi,%rdx
    1c4e:	48 c1 ea 03          	shr    $0x3,%rdx
    1c52:	80 3c 02 00          	cmpb   $0x0,(%rdx,%rax,1)
    1c56:	0f 85 96 01 00 00    	jne    1df2 <push_used_position_last+0x272>
    1c5c:	4d 89 7d 08          	mov    %r15,0x8(%r13)
    1c60:	48 b8 00 00 00 00 00 	movabs $0xdffffc0000000000,%rax
    1c67:	fc ff df 
    1c6a:	4c 89 f2             	mov    %r14,%rdx
    1c6d:	48 c1 ea 03          	shr    $0x3,%rdx
    1c71:	80 3c 02 00          	cmpb   $0x0,(%rdx,%rax,1)
    1c75:	0f 85 3b 01 00 00    	jne    1db6 <push_used_position_last+0x236>
    1c7b:	48 8d 7e 10          	lea    0x10(%rsi),%rdi
    1c7f:	4d 89 3e             	mov    %r15,(%r14)
    1c82:	48 b8 00 00 00 00 00 	movabs $0xdffffc0000000000,%rax
    1c89:	fc ff df 
    1c8c:	48 89 fa             	mov    %rdi,%rdx
    1c8f:	48 c1 ea 03          	shr    $0x3,%rdx
    1c93:	80 3c 02 00          	cmpb   $0x0,(%rdx,%rax,1)
    1c97:	0f 85 07 01 00 00    	jne    1da4 <push_used_position_last+0x224>
    1c9d:	49 8d 7c 24 18       	lea    0x18(%r12),%rdi
    1ca2:	4c 89 76 10          	mov    %r14,0x10(%rsi)
    1ca6:	4d 8d 7c 24 10       	lea    0x10(%r12),%r15
    1cab:	48 b8 00 00 00 00 00 	movabs $0xdffffc0000000000,%rax
    1cb2:	fc ff df 
    1cb5:	48 89 fa             	mov    %rdi,%rdx
    1cb8:	4c 8d 76 18          	lea    0x18(%rsi),%r14
    1cbc:	48 c1 ea 03          	shr    $0x3,%rdx
    1cc0:	80 3c 02 00          	cmpb   $0x0,(%rdx,%rax,1)
    1cc4:	0f 85 a1 00 00 00    	jne    1d6b <push_used_position_last+0x1eb>
    1cca:	4c 89 f2             	mov    %r14,%rdx
    1ccd:	4d 8b 6c 24 18       	mov    0x18(%r12),%r13
    1cd2:	4d 89 74 24 18       	mov    %r14,0x18(%r12)
    1cd7:	48 b8 00 00 00 00 00 	movabs $0xdffffc0000000000,%rax
    1cde:	fc ff df 
    1ce1:	48 c1 ea 03          	shr    $0x3,%rdx
    1ce5:	80 3c 02 00          	cmpb   $0x0,(%rdx,%rax,1)
    1ce9:	0f 85 8e 00 00 00    	jne    1d7d <push_used_position_last+0x1fd>
    1cef:	48 8d 7e 20          	lea    0x20(%rsi),%rdi
    1cf3:	4c 89 7e 18          	mov    %r15,0x18(%rsi)
    1cf7:	48 b8 00 00 00 00 00 	movabs $0xdffffc0000000000,%rax
    1cfe:	fc ff df 
    1d01:	48 89 fa             	mov    %rdi,%rdx
    1d04:	48 c1 ea 03          	shr    $0x3,%rdx
    1d08:	80 3c 02 00          	cmpb   $0x0,(%rdx,%rax,1)
    1d0c:	0f 85 ce 00 00 00    	jne    1de0 <push_used_position_last+0x260>
    1d12:	4c 89 ea             	mov    %r13,%rdx
    1d15:	4c 89 6e 20          	mov    %r13,0x20(%rsi)
    1d19:	48 b8 00 00 00 00 00 	movabs $0xdffffc0000000000,%rax
    1d20:	fc ff df 
    1d23:	48 c1 ea 03          	shr    $0x3,%rdx
    1d27:	80 3c 02 00          	cmpb   $0x0,(%rdx,%rax,1)
    1d2b:	75 34                	jne    1d61 <push_used_position_last+0x1e1>
    1d2d:	4d 89 75 00          	mov    %r14,0x0(%r13)
    1d31:	48 83 c4 08          	add    $0x8,%rsp
    1d35:	31 c0                	xor    %eax,%eax
    1d37:	41 5c                	pop    %r12
    1d39:	41 5d                	pop    %r13
    1d3b:	41 5e                	pop    %r14
    1d3d:	41 5f                	pop    %r15
    1d3f:	5d                   	pop    %rbp
    1d40:	e9 00 00 00 00       	jmp    1d45 <push_used_position_last+0x1c5>
    1d45:	48 89 75 d8          	mov    %rsi,-0x28(%rbp)
    1d49:	e8 00 00 00 00       	call   1d4e <push_used_position_last+0x1ce>
    1d4e:	48 8b 75 d8          	mov    -0x28(%rbp),%rsi
    1d52:	e9 85 fe ff ff       	jmp    1bdc <push_used_position_last+0x5c>
    1d57:	b8 ea ff ff ff       	mov    $0xffffffea,%eax
    1d5c:	e9 00 00 00 00       	jmp    1d61 <push_used_position_last+0x1e1>
    1d61:	4c 89 ef             	mov    %r13,%rdi
    1d64:	e8 00 00 00 00       	call   1d69 <push_used_position_last+0x1e9>
    1d69:	eb c2                	jmp    1d2d <push_used_position_last+0x1ad>
    1d6b:	48 89 75 d8          	mov    %rsi,-0x28(%rbp)
    1d6f:	e8 00 00 00 00       	call   1d74 <push_used_position_last+0x1f4>
    1d74:	48 8b 75 d8          	mov    -0x28(%rbp),%rsi
    1d78:	e9 4d ff ff ff       	jmp    1cca <push_used_position_last+0x14a>
    1d7d:	4c 89 f7             	mov    %r14,%rdi
    1d80:	48 89 75 d8          	mov    %rsi,-0x28(%rbp)
    1d84:	e8 00 00 00 00       	call   1d89 <push_used_position_last+0x209>
    1d89:	48 8b 75 d8          	mov    -0x28(%rbp),%rsi
    1d8d:	e9 5d ff ff ff       	jmp    1cef <push_used_position_last+0x16f>
    1d92:	48 89 75 d8          	mov    %rsi,-0x28(%rbp)
    1d96:	e8 00 00 00 00       	call   1d9b <push_used_position_last+0x21b>
    1d9b:	48 8b 75 d8          	mov    -0x28(%rbp),%rsi
    1d9f:	e9 70 fe ff ff       	jmp    1c14 <push_used_position_last+0x94>
    1da4:	48 89 75 d8          	mov    %rsi,-0x28(%rbp)
    1da8:	e8 00 00 00 00       	call   1dad <push_used_position_last+0x22d>
    1dad:	48 8b 75 d8          	mov    -0x28(%rbp),%rsi
    1db1:	e9 e7 fe ff ff       	jmp    1c9d <push_used_position_last+0x11d>
    1db6:	4c 89 f7             	mov    %r14,%rdi
    1db9:	48 89 75 d8          	mov    %rsi,-0x28(%rbp)
    1dbd:	e8 00 00 00 00       	call   1dc2 <push_used_position_last+0x242>
    1dc2:	48 8b 75 d8          	mov    -0x28(%rbp),%rsi
    1dc6:	e9 b0 fe ff ff       	jmp    1c7b <push_used_position_last+0xfb>
    1dcb:	4c 89 ff             	mov    %r15,%rdi
    1dce:	48 89 75 d8          	mov    %rsi,-0x28(%rbp)
    1dd2:	e8 00 00 00 00       	call   1dd7 <push_used_position_last+0x257>
    1dd7:	48 8b 75 d8          	mov    -0x28(%rbp),%rsi
    1ddb:	e9 54 fe ff ff       	jmp    1c34 <push_used_position_last+0xb4>
    1de0:	48 89 75 d8          	mov    %rsi,-0x28(%rbp)
    1de4:	e8 00 00 00 00       	call   1de9 <push_used_position_last+0x269>
    1de9:	48 8b 75 d8          	mov    -0x28(%rbp),%rsi
    1ded:	e9 20 ff ff ff       	jmp    1d12 <push_used_position_last+0x192>
    1df2:	48 89 75 d8          	mov    %rsi,-0x28(%rbp)
    1df6:	e8 00 00 00 00       	call   1dfb <push_used_position_last+0x27b>
    1dfb:	48 8b 75 d8          	mov    -0x28(%rbp),%rsi
    1dff:	e9 58 fe ff ff       	jmp    1c5c <push_used_position_last+0xdc>
    1e04:	66 66 2e 0f 1f 84 00 	data16 cs nopw 0x0(%rax,%rax,1)
    1e0b:	00 00 00 00 
    1e0f:	90                   	nop

0000000000001e10 <__pfx_push_used_position_before>:
    1e10:	90                   	nop
    1e11:	90                   	nop
    1e12:	90                   	nop
    1e13:	90                   	nop
    1e14:	90                   	nop
    1e15:	90                   	nop
    1e16:	90                   	nop
    1e17:	90                   	nop
    1e18:	90                   	nop
    1e19:	90                   	nop
    1e1a:	90                   	nop
    1e1b:	90                   	nop
    1e1c:	90                   	nop
    1e1d:	90                   	nop
    1e1e:	90                   	nop
    1e1f:	90                   	nop

0000000000001e20 <push_used_position_before>:
    1e20:	f3 0f 1e fa          	endbr64
    1e24:	e8 00 00 00 00       	call   1e29 <push_used_position_before+0x9>
    1e29:	48 85 ff             	test   %rdi,%rdi
    1e2c:	0f 84 c4 01 00 00    	je     1ff6 <push_used_position_before+0x1d6>
    1e32:	48 85 f6             	test   %rsi,%rsi
    1e35:	0f 84 bb 01 00 00    	je     1ff6 <push_used_position_before+0x1d6>
    1e3b:	48 b8 00 00 00 00 00 	movabs $0xdffffc0000000000,%rax
    1e42:	fc ff df 
    1e45:	55                   	push   %rbp
    1e46:	48 89 e5             	mov    %rsp,%rbp
    1e49:	41 57                	push   %r15
    1e4b:	4c 8d 7a 18          	lea    0x18(%rdx),%r15
    1e4f:	41 56                	push   %r14
    1e51:	4c 8d 76 18          	lea    0x18(%rsi),%r14
    1e55:	41 55                	push   %r13
    1e57:	41 54                	push   %r12
    1e59:	49 89 fc             	mov    %rdi,%r12
    1e5c:	48 8d 7a 20          	lea    0x20(%rdx),%rdi
    1e60:	48 89 f9             	mov    %rdi,%rcx
    1e63:	48 c1 e9 03          	shr    $0x3,%rcx
    1e67:	48 83 ec 10          	sub    $0x10,%rsp
    1e6b:	80 3c 01 00          	cmpb   $0x0,(%rcx,%rax,1)
    1e6f:	0f 85 d3 01 00 00    	jne    2048 <push_used_position_before+0x228>
    1e75:	48 b8 00 00 00 00 00 	movabs $0xdffffc0000000000,%rax
    1e7c:	fc ff df 
    1e7f:	4c 8b 6a 20          	mov    0x20(%rdx),%r13
    1e83:	4c 89 72 20          	mov    %r14,0x20(%rdx)
    1e87:	4c 89 f2             	mov    %r14,%rdx
    1e8a:	48 c1 ea 03          	shr    $0x3,%rdx
    1e8e:	80 3c 02 00          	cmpb   $0x0,(%rdx,%rax,1)
    1e92:	0f 85 77 01 00 00    	jne    200f <push_used_position_before+0x1ef>
    1e98:	48 8d 7e 20          	lea    0x20(%rsi),%rdi
    1e9c:	4c 89 7e 18          	mov    %r15,0x18(%rsi)
    1ea0:	48 b8 00 00 00 00 00 	movabs $0xdffffc0000000000,%rax
    1ea7:	fc ff df 
    1eaa:	48 89 fa             	mov    %rdi,%rdx
    1ead:	48 c1 ea 03          	shr    $0x3,%rdx
    1eb1:	80 3c 02 00          	cmpb   $0x0,(%rdx,%rax,1)
    1eb5:	0f 85 69 01 00 00    	jne    2024 <push_used_position_before+0x204>
    1ebb:	4c 89 ea             	mov    %r13,%rdx
    1ebe:	4c 89 6e 20          	mov    %r13,0x20(%rsi)
    1ec2:	48 b8 00 00 00 00 00 	movabs $0xdffffc0000000000,%rax
    1ec9:	fc ff df 
    1ecc:	48 c1 ea 03          	shr    $0x3,%rdx
    1ed0:	80 3c 02 00          	cmpb   $0x0,(%rdx,%rax,1)
    1ed4:	0f 85 b2 01 00 00    	jne    208c <push_used_position_before+0x26c>
    1eda:	48 8d 7e 04          	lea    0x4(%rsi),%rdi
    1ede:	4d 89 75 00          	mov    %r14,0x0(%r13)
    1ee2:	48 b8 00 00 00 00 00 	movabs $0xdffffc0000000000,%rax
    1ee9:	fc ff df 
    1eec:	48 89 fa             	mov    %rdi,%rdx
    1eef:	48 c1 ea 03          	shr    $0x3,%rdx
    1ef3:	0f b6 14 02          	movzbl (%rdx,%rax,1),%edx
    1ef7:	48 89 f8             	mov    %rdi,%rax
    1efa:	83 e0 07             	and    $0x7,%eax
    1efd:	83 c0 03             	add    $0x3,%eax
    1f00:	38 d0                	cmp    %dl,%al
    1f02:	7c 08                	jl     1f0c <push_used_position_before+0xec>
    1f04:	84 d2                	test   %dl,%dl
    1f06:	0f 85 d8 00 00 00    	jne    1fe4 <push_used_position_before+0x1c4>
    1f0c:	69 46 04 47 86 c8 61 	imul   $0x61c88647,0x4(%rsi),%eax
    1f13:	4c 8d 76 08          	lea    0x8(%rsi),%r14
    1f17:	c1 e8 1d             	shr    $0x1d,%eax
    1f1a:	41 89 c7             	mov    %eax,%r15d
    1f1d:	83 c0 04             	add    $0x4,%eax
    1f20:	4b 8d 7c fc 20       	lea    0x20(%r12,%r15,8),%rdi
    1f25:	4d 8d 2c c4          	lea    (%r12,%rax,8),%r13
    1f29:	48 b8 00 00 00 00 00 	movabs $0xdffffc0000000000,%rax
    1f30:	fc ff df 
    1f33:	48 89 fa             	mov    %rdi,%rdx
    1f36:	48 c1 ea 03          	shr    $0x3,%rdx
    1f3a:	80 3c 02 00          	cmpb   $0x0,(%rdx,%rax,1)
    1f3e:	0f 85 f2 00 00 00    	jne    2036 <push_used_position_before+0x216>
    1f44:	4c 89 f2             	mov    %r14,%rdx
    1f47:	4f 8b 64 fc 20       	mov    0x20(%r12,%r15,8),%r12
    1f4c:	48 b8 00 00 00 00 00 	movabs $0xdffffc0000000000,%rax
    1f53:	fc ff df 
    1f56:	48 c1 ea 03          	shr    $0x3,%rdx
    1f5a:	80 3c 02 00          	cmpb   $0x0,(%rdx,%rax,1)
    1f5e:	0f 85 13 01 00 00    	jne    2077 <push_used_position_before+0x257>
    1f64:	4c 89 66 08          	mov    %r12,0x8(%rsi)
    1f68:	4d 85 e4             	test   %r12,%r12
    1f6b:	74 25                	je     1f92 <push_used_position_before+0x172>
    1f6d:	48 b8 00 00 00 00 00 	movabs $0xdffffc0000000000,%rax
    1f74:	fc ff df 
    1f77:	49 8d 7c 24 08       	lea    0x8(%r12),%rdi
    1f7c:	48 89 fa             	mov    %rdi,%rdx
    1f7f:	48 c1 ea 03          	shr    $0x3,%rdx
    1f83:	80 3c 02 00          	cmpb   $0x0,(%rdx,%rax,1)
    1f87:	0f 85 14 01 00 00    	jne    20a1 <push_used_position_before+0x281>
    1f8d:	4d 89 74 24 08       	mov    %r14,0x8(%r12)
    1f92:	48 b8 00 00 00 00 00 	movabs $0xdffffc0000000000,%rax
    1f99:	fc ff df 
    1f9c:	4c 89 ea             	mov    %r13,%rdx
    1f9f:	48 c1 ea 03          	shr    $0x3,%rdx
    1fa3:	80 3c 02 00          	cmpb   $0x0,(%rdx,%rax,1)
    1fa7:	0f 85 b5 00 00 00    	jne    2062 <push_used_position_before+0x242>
    1fad:	48 8d 7e 10          	lea    0x10(%rsi),%rdi
    1fb1:	4d 89 75 00          	mov    %r14,0x0(%r13)
    1fb5:	48 b8 00 00 00 00 00 	movabs $0xdffffc0000000000,%rax
    1fbc:	fc ff df 
    1fbf:	48 89 fa             	mov    %rdi,%rdx
    1fc2:	48 c1 ea 03          	shr    $0x3,%rdx
    1fc6:	80 3c 02 00          	cmpb   $0x0,(%rdx,%rax,1)
    1fca:	75 34                	jne    2000 <push_used_position_before+0x1e0>
    1fcc:	4c 89 6e 10          	mov    %r13,0x10(%rsi)
    1fd0:	48 83 c4 10          	add    $0x10,%rsp
    1fd4:	31 c0                	xor    %eax,%eax
    1fd6:	41 5c                	pop    %r12
    1fd8:	41 5d                	pop    %r13
    1fda:	41 5e                	pop    %r14
    1fdc:	41 5f                	pop    %r15
    1fde:	5d                   	pop    %rbp
    1fdf:	e9 00 00 00 00       	jmp    1fe4 <push_used_position_before+0x1c4>
    1fe4:	48 89 75 d8          	mov    %rsi,-0x28(%rbp)
    1fe8:	e8 00 00 00 00       	call   1fed <push_used_position_before+0x1cd>
    1fed:	48 8b 75 d8          	mov    -0x28(%rbp),%rsi
    1ff1:	e9 16 ff ff ff       	jmp    1f0c <push_used_position_before+0xec>
    1ff6:	b8 ea ff ff ff       	mov    $0xffffffea,%eax
    1ffb:	e9 00 00 00 00       	jmp    2000 <push_used_position_before+0x1e0>
    2000:	48 89 75 d8          	mov    %rsi,-0x28(%rbp)
    2004:	e8 00 00 00 00       	call   2009 <push_used_position_before+0x1e9>
    2009:	48 8b 75 d8          	mov    -0x28(%rbp),%rsi
    200d:	eb bd                	jmp    1fcc <push_used_position_before+0x1ac>
    200f:	4c 89 f7             	mov    %r14,%rdi
    2012:	48 89 75 d8          	mov    %rsi,-0x28(%rbp)
    2016:	e8 00 00 00 00       	call   201b <push_used_position_before+0x1fb>
    201b:	48 8b 75 d8          	mov    -0x28(%rbp),%rsi
    201f:	e9 74 fe ff ff       	jmp    1e98 <push_used_position_before+0x78>
    2024:	48 89 75 d8          	mov    %rsi,-0x28(%rbp)
    2028:	e8 00 00 00 00       	call   202d <push_used_position_before+0x20d>
    202d:	48 8b 75 d8          	mov    -0x28(%rbp),%rsi
    2031:	e9 85 fe ff ff       	jmp    1ebb <push_used_position_before+0x9b>
    2036:	48 89 75 d8          	mov    %rsi,-0x28(%rbp)
    203a:	e8 00 00 00 00       	call   203f <push_used_position_before+0x21f>
    203f:	48 8b 75 d8          	mov    -0x28(%rbp),%rsi
    2043:	e9 fc fe ff ff       	jmp    1f44 <push_used_position_before+0x124>
    2048:	48 89 55 d0          	mov    %rdx,-0x30(%rbp)
    204c:	48 89 75 d8          	mov    %rsi,-0x28(%rbp)
    2050:	e8 00 00 00 00       	call   2055 <push_used_position_before+0x235>
    2055:	48 8b 55 d0          	mov    -0x30(%rbp),%rdx
    2059:	48 8b 75 d8          	mov    -0x28(%rbp),%rsi
    205d:	e9 13 fe ff ff       	jmp    1e75 <push_used_position_before+0x55>
    2062:	4c 89 ef             	mov    %r13,%rdi
    2065:	48 89 75 d8          	mov    %rsi,-0x28(%rbp)
    2069:	e8 00 00 00 00       	call   206e <push_used_position_before+0x24e>
    206e:	48 8b 75 d8          	mov    -0x28(%rbp),%rsi
    2072:	e9 36 ff ff ff       	jmp    1fad <push_used_position_before+0x18d>
    2077:	4c 89 f7             	mov    %r14,%rdi
    207a:	48 89 75 d8          	mov    %rsi,-0x28(%rbp)
    207e:	e8 00 00 00 00       	call   2083 <push_used_position_before+0x263>
    2083:	48 8b 75 d8          	mov    -0x28(%rbp),%rsi
    2087:	e9 d8 fe ff ff       	jmp    1f64 <push_used_position_before+0x144>
    208c:	4c 89 ef             	mov    %r13,%rdi
    208f:	48 89 75 d8          	mov    %rsi,-0x28(%rbp)
    2093:	e8 00 00 00 00       	call   2098 <push_used_position_before+0x278>
    2098:	48 8b 75 d8          	mov    -0x28(%rbp),%rsi
    209c:	e9 39 fe ff ff       	jmp    1eda <push_used_position_before+0xba>
    20a1:	48 89 75 d8          	mov    %rsi,-0x28(%rbp)
    20a5:	e8 00 00 00 00       	call   20aa <push_used_position_before+0x28a>
    20aa:	48 8b 75 d8          	mov    -0x28(%rbp),%rsi
    20ae:	e9 da fe ff ff       	jmp    1f8d <push_used_position_before+0x16d>
    20b3:	66 66 2e 0f 1f 84 00 	data16 cs nopw 0x0(%rax,%rax,1)
    20ba:	00 00 00 00 
    20be:	66 90                	xchg   %ax,%ax

00000000000020c0 <__pfx_pop_used_position>:
    20c0:	90                   	nop
    20c1:	90                   	nop
    20c2:	90                   	nop
    20c3:	90                   	nop
    20c4:	90                   	nop
    20c5:	90                   	nop
    20c6:	90                   	nop
    20c7:	90                   	nop
    20c8:	90                   	nop
    20c9:	90                   	nop
    20ca:	90                   	nop
    20cb:	90                   	nop
    20cc:	90                   	nop
    20cd:	90                   	nop
    20ce:	90                   	nop
    20cf:	90                   	nop

00000000000020d0 <pop_used_position>:
    20d0:	f3 0f 1e fa          	endbr64
    20d4:	e8 00 00 00 00       	call   20d9 <pop_used_position+0x9>
    20d9:	48 85 ff             	test   %rdi,%rdi
    20dc:	0f 84 5d 01 00 00    	je     223f <pop_used_position+0x16f>
    20e2:	48 85 f6             	test   %rsi,%rsi
    20e5:	0f 84 54 01 00 00    	je     223f <pop_used_position+0x16f>
    20eb:	48 b8 00 00 00 00 00 	movabs $0xdffffc0000000000,%rax
    20f2:	fc ff df 
    20f5:	55                   	push   %rbp
    20f6:	48 8d 7e 10          	lea    0x10(%rsi),%rdi
    20fa:	48 89 fa             	mov    %rdi,%rdx
    20fd:	48 c1 ea 03          	shr    $0x3,%rdx
    2101:	48 89 e5             	mov    %rsp,%rbp
    2104:	41 55                	push   %r13
    2106:	41 54                	push   %r12
    2108:	48 83 ec 08          	sub    $0x8,%rsp
    210c:	80 3c 02 00          	cmpb   $0x0,(%rdx,%rax,1)
    2110:	0f 85 33 01 00 00    	jne    2249 <pop_used_position+0x179>
    2116:	4c 8b 66 10          	mov    0x10(%rsi),%r12
    211a:	4d 85 e4             	test   %r12,%r12
    211d:	74 7a                	je     2199 <pop_used_position+0xc9>
    211f:	48 b8 00 00 00 00 00 	movabs $0xdffffc0000000000,%rax
    2126:	fc ff df 
    2129:	48 8d 7e 08          	lea    0x8(%rsi),%rdi
    212d:	48 89 fa             	mov    %rdi,%rdx
    2130:	48 c1 ea 03          	shr    $0x3,%rdx
    2134:	80 3c 02 00          	cmpb   $0x0,(%rdx,%rax,1)
    2138:	0f 85 7a 01 00 00    	jne    22b8 <pop_used_position+0x1e8>
    213e:	4c 89 e2             	mov    %r12,%rdx
    2141:	4c 8b 6e 08          	mov    0x8(%rsi),%r13
    2145:	48 b8 00 00 00 00 00 	movabs $0xdffffc0000000000,%rax
    214c:	fc ff df 
    214f:	48 c1 ea 03          	shr    $0x3,%rdx
    2153:	80 3c 02 00          	cmpb   $0x0,(%rdx,%rax,1)
    2157:	0f 85 46 01 00 00    	jne    22a3 <pop_used_position+0x1d3>
    215d:	4d 89 2c 24          	mov    %r13,(%r12)
    2161:	4d 85 ed             	test   %r13,%r13
    2164:	74 23                	je     2189 <pop_used_position+0xb9>
    2166:	48 b8 00 00 00 00 00 	movabs $0xdffffc0000000000,%rax
    216d:	fc ff df 
    2170:	49 8d 7d 08          	lea    0x8(%r13),%rdi
    2174:	48 89 fa             	mov    %rdi,%rdx
    2177:	48 c1 ea 03          	shr    $0x3,%rdx
    217b:	80 3c 02 00          	cmpb   $0x0,(%rdx,%rax,1)
    217f:	0f 85 45 01 00 00    	jne    22ca <pop_used_position+0x1fa>
    2185:	4d 89 65 08          	mov    %r12,0x8(%r13)
    2189:	48 c7 46 08 00 00 00 	movq   $0x0,0x8(%rsi)
    2190:	00 
    2191:	48 c7 46 10 00 00 00 	movq   $0x0,0x10(%rsi)
    2198:	00 
    2199:	48 b8 00 00 00 00 00 	movabs $0xdffffc0000000000,%rax
    21a0:	fc ff df 
    21a3:	48 8d 7e 18          	lea    0x18(%rsi),%rdi
    21a7:	48 89 fa             	mov    %rdi,%rdx
    21aa:	48 c1 ea 03          	shr    $0x3,%rdx
    21ae:	80 3c 02 00          	cmpb   $0x0,(%rdx,%rax,1)
    21b2:	0f 85 d9 00 00 00    	jne    2291 <pop_used_position+0x1c1>
    21b8:	48 8d 7e 20          	lea    0x20(%rsi),%rdi
    21bc:	4c 8b 6e 18          	mov    0x18(%rsi),%r13
    21c0:	48 b8 00 00 00 00 00 	movabs $0xdffffc0000000000,%rax
    21c7:	fc ff df 
    21ca:	48 89 fa             	mov    %rdi,%rdx
    21cd:	48 c1 ea 03          	shr    $0x3,%rdx
    21d1:	80 3c 02 00          	cmpb   $0x0,(%rdx,%rax,1)
    21d5:	0f 85 a4 00 00 00    	jne    227f <pop_used_position+0x1af>
    21db:	49 8d 7d 08          	lea    0x8(%r13),%rdi
    21df:	4c 8b 66 20          	mov    0x20(%rsi),%r12
    21e3:	48 b8 00 00 00 00 00 	movabs $0xdffffc0000000000,%rax
    21ea:	fc ff df 
    21ed:	48 89 fa             	mov    %rdi,%rdx
    21f0:	48 c1 ea 03          	shr    $0x3,%rdx
    21f4:	80 3c 02 00          	cmpb   $0x0,(%rdx,%rax,1)
    21f8:	75 73                	jne    226d <pop_used_position+0x19d>
    21fa:	4c 89 e2             	mov    %r12,%rdx
    21fd:	4d 89 65 08          	mov    %r12,0x8(%r13)
    2201:	48 b8 00 00 00 00 00 	movabs $0xdffffc0000000000,%rax
    2208:	fc ff df 
    220b:	48 c1 ea 03          	shr    $0x3,%rdx
    220f:	80 3c 02 00          	cmpb   $0x0,(%rdx,%rax,1)
    2213:	75 46                	jne    225b <pop_used_position+0x18b>
    2215:	48 b8 00 01 00 00 00 	movabs $0xdead000000000100,%rax
    221c:	00 ad de 
    221f:	4d 89 2c 24          	mov    %r13,(%r12)
    2223:	48 89 46 18          	mov    %rax,0x18(%rsi)
    2227:	48 83 c0 22          	add    $0x22,%rax
    222b:	48 89 46 20          	mov    %rax,0x20(%rsi)
    222f:	48 83 c4 08          	add    $0x8,%rsp
    2233:	31 c0                	xor    %eax,%eax
    2235:	41 5c                	pop    %r12
    2237:	41 5d                	pop    %r13
    2239:	5d                   	pop    %rbp
    223a:	e9 00 00 00 00       	jmp    223f <pop_used_position+0x16f>
    223f:	b8 ea ff ff ff       	mov    $0xffffffea,%eax
    2244:	e9 00 00 00 00       	jmp    2249 <pop_used_position+0x179>
    2249:	48 89 75 e8          	mov    %rsi,-0x18(%rbp)
    224d:	e8 00 00 00 00       	call   2252 <pop_used_position+0x182>
    2252:	48 8b 75 e8          	mov    -0x18(%rbp),%rsi
    2256:	e9 bb fe ff ff       	jmp    2116 <pop_used_position+0x46>
    225b:	4c 89 e7             	mov    %r12,%rdi
    225e:	48 89 75 e8          	mov    %rsi,-0x18(%rbp)
    2262:	e8 00 00 00 00       	call   2267 <pop_used_position+0x197>
    2267:	48 8b 75 e8          	mov    -0x18(%rbp),%rsi
    226b:	eb a8                	jmp    2215 <pop_used_position+0x145>
    226d:	48 89 75 e8          	mov    %rsi,-0x18(%rbp)
    2271:	e8 00 00 00 00       	call   2276 <pop_used_position+0x1a6>
    2276:	48 8b 75 e8          	mov    -0x18(%rbp),%rsi
    227a:	e9 7b ff ff ff       	jmp    21fa <pop_used_position+0x12a>
    227f:	48 89 75 e8          	mov    %rsi,-0x18(%rbp)
    2283:	e8 00 00 00 00       	call   2288 <pop_used_position+0x1b8>
    2288:	48 8b 75 e8          	mov    -0x18(%rbp),%rsi
    228c:	e9 4a ff ff ff       	jmp    21db <pop_used_position+0x10b>
    2291:	48 89 75 e8          	mov    %rsi,-0x18(%rbp)
    2295:	e8 00 00 00 00       	call   229a <pop_used_position+0x1ca>
    229a:	48 8b 75 e8          	mov    -0x18(%rbp),%rsi
    229e:	e9 15 ff ff ff       	jmp    21b8 <pop_used_position+0xe8>
    22a3:	4c 89 e7             	mov    %r12,%rdi
    22a6:	48 89 75 e8          	mov    %rsi,-0x18(%rbp)
    22aa:	e8 00 00 00 00       	call   22af <pop_used_position+0x1df>
    22af:	48 8b 75 e8          	mov    -0x18(%rbp),%rsi
    22b3:	e9 a5 fe ff ff       	jmp    215d <pop_used_position+0x8d>
    22b8:	48 89 75 e8          	mov    %rsi,-0x18(%rbp)
    22bc:	e8 00 00 00 00       	call   22c1 <pop_used_position+0x1f1>
    22c1:	48 8b 75 e8          	mov    -0x18(%rbp),%rsi
    22c5:	e9 74 fe ff ff       	jmp    213e <pop_used_position+0x6e>
    22ca:	48 89 75 e8          	mov    %rsi,-0x18(%rbp)
    22ce:	e8 00 00 00 00       	call   22d3 <pop_used_position+0x203>
    22d3:	48 8b 75 e8          	mov    -0x18(%rbp),%rsi
    22d7:	e9 a9 fe ff ff       	jmp    2185 <pop_used_position+0xb5>
    22dc:	0f 1f 40 00          	nopl   0x0(%rax)

00000000000022e0 <__pfx_find_free_position>:
    22e0:	90                   	nop
    22e1:	90                   	nop
    22e2:	90                   	nop
    22e3:	90                   	nop
    22e4:	90                   	nop
    22e5:	90                   	nop
    22e6:	90                   	nop
    22e7:	90                   	nop
    22e8:	90                   	nop
    22e9:	90                   	nop
    22ea:	90                   	nop
    22eb:	90                   	nop
    22ec:	90                   	nop
    22ed:	90                   	nop
    22ee:	90                   	nop
    22ef:	90                   	nop

00000000000022f0 <find_free_position>:
    22f0:	f3 0f 1e fa          	endbr64
    22f4:	e8 00 00 00 00       	call   22f9 <find_free_position+0x9>
    22f9:	48 85 ff             	test   %rdi,%rdi
    22fc:	74 5a                	je     2358 <find_free_position+0x68>
    22fe:	48 85 f6             	test   %rsi,%rsi
    2301:	74 55                	je     2358 <find_free_position+0x68>
    2303:	48 b8 00 00 00 00 00 	movabs $0xdffffc0000000000,%rax
    230a:	fc ff df 
    230d:	55                   	push   %rbp
    230e:	48 89 fa             	mov    %rdi,%rdx
    2311:	48 c1 ea 03          	shr    $0x3,%rdx
    2315:	48 89 e5             	mov    %rsp,%rbp
    2318:	53                   	push   %rbx
    2319:	48 83 ec 10          	sub    $0x10,%rsp
    231d:	80 3c 02 00          	cmpb   $0x0,(%rdx,%rax,1)
    2321:	75 58                	jne    237b <find_free_position+0x8b>
    2323:	48 8b 07             	mov    (%rdi),%rax
    2326:	48 39 c7             	cmp    %rax,%rdi
    2329:	74 37                	je     2362 <find_free_position+0x72>
    232b:	48 b8 00 00 00 00 00 	movabs $0xdffffc0000000000,%rax
    2332:	fc ff df 
    2335:	48 8b 1f             	mov    (%rdi),%rbx
    2338:	48 89 f2             	mov    %rsi,%rdx
    233b:	48 c1 ea 03          	shr    $0x3,%rdx
    233f:	48 83 eb 18          	sub    $0x18,%rbx
    2343:	80 3c 02 00          	cmpb   $0x0,(%rdx,%rax,1)
    2347:	75 20                	jne    2369 <find_free_position+0x79>
    2349:	48 89 1e             	mov    %rbx,(%rsi)
    234c:	31 c0                	xor    %eax,%eax
    234e:	48 8b 5d f8          	mov    -0x8(%rbp),%rbx
    2352:	c9                   	leave
    2353:	e9 00 00 00 00       	jmp    2358 <find_free_position+0x68>
    2358:	b8 ea ff ff ff       	mov    $0xffffffea,%eax
    235d:	e9 00 00 00 00       	jmp    2362 <find_free_position+0x72>
    2362:	b8 fe ff ff ff       	mov    $0xfffffffe,%eax
    2367:	eb e5                	jmp    234e <find_free_position+0x5e>
    2369:	48 89 f7             	mov    %rsi,%rdi
    236c:	48 89 75 f0          	mov    %rsi,-0x10(%rbp)
    2370:	e8 00 00 00 00       	call   2375 <find_free_position+0x85>
    2375:	48 8b 75 f0          	mov    -0x10(%rbp),%rsi
    2379:	eb ce                	jmp    2349 <find_free_position+0x59>
    237b:	48 89 75 e8          	mov    %rsi,-0x18(%rbp)
    237f:	48 89 7d f0          	mov    %rdi,-0x10(%rbp)
    2383:	e8 00 00 00 00       	call   2388 <find_free_position+0x98>
    2388:	48 8b 75 e8          	mov    -0x18(%rbp),%rsi
    238c:	48 8b 7d f0          	mov    -0x10(%rbp),%rdi
    2390:	eb 91                	jmp    2323 <find_free_position+0x33>
    2392:	66 66 2e 0f 1f 84 00 	data16 cs nopw 0x0(%rax,%rax,1)
    2399:	00 00 00 00 
    239d:	0f 1f 00             	nopl   (%rax)

00000000000023a0 <__pfx_find_msg_num_position>:
    23a0:	90                   	nop
    23a1:	90                   	nop
    23a2:	90                   	nop
    23a3:	90                   	nop
    23a4:	90                   	nop
    23a5:	90                   	nop
    23a6:	90                   	nop
    23a7:	90                   	nop
    23a8:	90                   	nop
    23a9:	90                   	nop
    23aa:	90                   	nop
    23ab:	90                   	nop
    23ac:	90                   	nop
    23ad:	90                   	nop
    23ae:	90                   	nop
    23af:	90                   	nop

00000000000023b0 <find_msg_num_position>:
    23b0:	f3 0f 1e fa          	endbr64
    23b4:	e8 00 00 00 00       	call   23b9 <find_msg_num_position+0x9>
    23b9:	48 85 ff             	test   %rdi,%rdi
    23bc:	0f 84 27 01 00 00    	je     24e9 <find_msg_num_position+0x139>
    23c2:	55                   	push   %rbp
    23c3:	48 89 e5             	mov    %rsp,%rbp
    23c6:	41 56                	push   %r14
    23c8:	49 89 d6             	mov    %rdx,%r14
    23cb:	41 54                	push   %r12
    23cd:	53                   	push   %rbx
    23ce:	48 83 ec 08          	sub    $0x8,%rsp
    23d2:	48 85 d2             	test   %rdx,%rdx
    23d5:	0f 84 da 00 00 00    	je     24b5 <find_msg_num_position+0x105>
    23db:	69 de 47 86 c8 61    	imul   $0x61c88647,%esi,%ebx
    23e1:	49 89 fc             	mov    %rdi,%r12
    23e4:	48 b8 00 00 00 00 00 	movabs $0xdffffc0000000000,%rax
    23eb:	fc ff df 
    23ee:	c1 eb 1d             	shr    $0x1d,%ebx
    23f1:	48 8d 7c df 20       	lea    0x20(%rdi,%rbx,8),%rdi
    23f6:	48 89 fa             	mov    %rdi,%rdx
    23f9:	48 c1 ea 03          	shr    $0x3,%rdx
    23fd:	80 3c 02 00          	cmpb   $0x0,(%rdx,%rax,1)
    2401:	0f 85 d2 00 00 00    	jne    24d9 <find_msg_num_position+0x129>
    2407:	49 8b 5c dc 20       	mov    0x20(%r12,%rbx,8),%rbx
    240c:	48 85 db             	test   %rbx,%rbx
    240f:	0f 84 8c 00 00 00    	je     24a1 <find_msg_num_position+0xf1>
    2415:	48 83 eb 08          	sub    $0x8,%rbx
    2419:	0f 84 82 00 00 00    	je     24a1 <find_msg_num_position+0xf1>
    241f:	49 bc 00 00 00 00 00 	movabs $0xdffffc0000000000,%r12
    2426:	fc ff df 
    2429:	eb 25                	jmp    2450 <find_msg_num_position+0xa0>
    242b:	48 8d 7b 08          	lea    0x8(%rbx),%rdi
    242f:	48 89 f8             	mov    %rdi,%rax
    2432:	48 c1 e8 03          	shr    $0x3,%rax
    2436:	42 80 3c 20 00       	cmpb   $0x0,(%rax,%r12,1)
    243b:	0f 85 88 00 00 00    	jne    24c9 <find_msg_num_position+0x119>
    2441:	48 8b 5b 08          	mov    0x8(%rbx),%rbx
    2445:	48 85 db             	test   %rbx,%rbx
    2448:	74 57                	je     24a1 <find_msg_num_position+0xf1>
    244a:	48 83 eb 08          	sub    $0x8,%rbx
    244e:	74 51                	je     24a1 <find_msg_num_position+0xf1>
    2450:	48 8d 7b 04          	lea    0x4(%rbx),%rdi
    2454:	48 89 f8             	mov    %rdi,%rax
    2457:	48 c1 e8 03          	shr    $0x3,%rax
    245b:	42 0f b6 14 20       	movzbl (%rax,%r12,1),%edx
    2460:	48 89 f8             	mov    %rdi,%rax
    2463:	83 e0 07             	and    $0x7,%eax
    2466:	83 c0 03             	add    $0x3,%eax
    2469:	38 d0                	cmp    %dl,%al
    246b:	7c 04                	jl     2471 <find_msg_num_position+0xc1>
    246d:	84 d2                	test   %dl,%dl
    246f:	75 4b                	jne    24bc <find_msg_num_position+0x10c>
    2471:	39 73 04             	cmp    %esi,0x4(%rbx)
    2474:	75 b5                	jne    242b <find_msg_num_position+0x7b>
    2476:	48 b8 00 00 00 00 00 	movabs $0xdffffc0000000000,%rax
    247d:	fc ff df 
    2480:	4c 89 f2             	mov    %r14,%rdx
    2483:	48 c1 ea 03          	shr    $0x3,%rdx
    2487:	80 3c 02 00          	cmpb   $0x0,(%rdx,%rax,1)
    248b:	75 66                	jne    24f3 <find_msg_num_position+0x143>
    248d:	49 89 1e             	mov    %rbx,(%r14)
    2490:	48 83 c4 08          	add    $0x8,%rsp
    2494:	31 c0                	xor    %eax,%eax
    2496:	5b                   	pop    %rbx
    2497:	41 5c                	pop    %r12
    2499:	41 5e                	pop    %r14
    249b:	5d                   	pop    %rbp
    249c:	e9 00 00 00 00       	jmp    24a1 <find_msg_num_position+0xf1>
    24a1:	b8 fe ff ff ff       	mov    $0xfffffffe,%eax
    24a6:	48 83 c4 08          	add    $0x8,%rsp
    24aa:	5b                   	pop    %rbx
    24ab:	41 5c                	pop    %r12
    24ad:	41 5e                	pop    %r14
    24af:	5d                   	pop    %rbp
    24b0:	e9 00 00 00 00       	jmp    24b5 <find_msg_num_position+0x105>
    24b5:	b8 ea ff ff ff       	mov    $0xffffffea,%eax
    24ba:	eb ea                	jmp    24a6 <find_msg_num_position+0xf6>
    24bc:	89 75 e4             	mov    %esi,-0x1c(%rbp)
    24bf:	e8 00 00 00 00       	call   24c4 <find_msg_num_position+0x114>
    24c4:	8b 75 e4             	mov    -0x1c(%rbp),%esi
    24c7:	eb a8                	jmp    2471 <find_msg_num_position+0xc1>
    24c9:	89 75 e4             	mov    %esi,-0x1c(%rbp)
    24cc:	e8 00 00 00 00       	call   24d1 <find_msg_num_position+0x121>
    24d1:	8b 75 e4             	mov    -0x1c(%rbp),%esi
    24d4:	e9 68 ff ff ff       	jmp    2441 <find_msg_num_position+0x91>
    24d9:	89 75 e4             	mov    %esi,-0x1c(%rbp)
    24dc:	e8 00 00 00 00       	call   24e1 <find_msg_num_position+0x131>
    24e1:	8b 75 e4             	mov    -0x1c(%rbp),%esi
    24e4:	e9 1e ff ff ff       	jmp    2407 <find_msg_num_position+0x57>
    24e9:	b8 ea ff ff ff       	mov    $0xffffffea,%eax
    24ee:	e9 00 00 00 00       	jmp    24f3 <find_msg_num_position+0x143>
    24f3:	4c 89 f7             	mov    %r14,%rdi
    24f6:	e8 00 00 00 00       	call   24fb <find_msg_num_position+0x14b>
    24fb:	eb 90                	jmp    248d <find_msg_num_position+0xdd>
    24fd:	0f 1f 00             	nopl   (%rax)

0000000000002500 <__pfx_find_next_position>:
    2500:	90                   	nop
    2501:	90                   	nop
    2502:	90                   	nop
    2503:	90                   	nop
    2504:	90                   	nop
    2505:	90                   	nop
    2506:	90                   	nop
    2507:	90                   	nop
    2508:	90                   	nop
    2509:	90                   	nop
    250a:	90                   	nop
    250b:	90                   	nop
    250c:	90                   	nop
    250d:	90                   	nop
    250e:	90                   	nop
    250f:	90                   	nop

0000000000002510 <find_next_position>:
    2510:	f3 0f 1e fa          	endbr64
    2514:	e8 00 00 00 00       	call   2519 <find_next_position+0x9>
    2519:	48 85 f6             	test   %rsi,%rsi
    251c:	48 89 d1             	mov    %rdx,%rcx
    251f:	0f 94 c0             	sete   %al
    2522:	48 85 d2             	test   %rdx,%rdx
    2525:	0f 94 c2             	sete   %dl
    2528:	08 d0                	or     %dl,%al
    252a:	0f 85 71 01 00 00    	jne    26a1 <find_next_position+0x191>
    2530:	55                   	push   %rbp
    2531:	48 89 e5             	mov    %rsp,%rbp
    2534:	41 57                	push   %r15
    2536:	41 56                	push   %r14
    2538:	41 55                	push   %r13
    253a:	49 89 fd             	mov    %rdi,%r13
    253d:	41 54                	push   %r12
    253f:	53                   	push   %rbx
    2540:	48 83 ec 10          	sub    $0x10,%rsp
    2544:	48 85 ff             	test   %rdi,%rdi
    2547:	0f 84 0c 01 00 00    	je     2659 <find_next_position+0x149>
    254d:	48 b8 00 00 00 00 00 	movabs $0xdffffc0000000000,%rax
    2554:	fc ff df 
    2557:	4c 8d 76 18          	lea    0x18(%rsi),%r14
    255b:	4c 89 f2             	mov    %r14,%rdx
    255e:	48 c1 ea 03          	shr    $0x3,%rdx
    2562:	80 3c 02 00          	cmpb   $0x0,(%rdx,%rax,1)
    2566:	0f 85 18 01 00 00    	jne    2684 <find_next_position+0x174>
    256c:	48 8b 5e 18          	mov    0x18(%rsi),%rbx
    2570:	49 39 de             	cmp    %rbx,%r14
    2573:	0f 84 c8 00 00 00    	je     2641 <find_next_position+0x131>
    2579:	49 83 c5 10          	add    $0x10,%r13
    257d:	4c 39 eb             	cmp    %r13,%rbx
    2580:	0f 84 bb 00 00 00    	je     2641 <find_next_position+0x131>
    2586:	48 b8 00 00 00 00 00 	movabs $0xdffffc0000000000,%rax
    258d:	fc ff df 
    2590:	48 8d 7e 04          	lea    0x4(%rsi),%rdi
    2594:	48 89 fa             	mov    %rdi,%rdx
    2597:	48 c1 ea 03          	shr    $0x3,%rdx
    259b:	0f b6 14 02          	movzbl (%rdx,%rax,1),%edx
    259f:	48 89 f8             	mov    %rdi,%rax
    25a2:	83 e0 07             	and    $0x7,%eax
    25a5:	83 c0 03             	add    $0x3,%eax
    25a8:	38 d0                	cmp    %dl,%al
    25aa:	7c 08                	jl     25b4 <find_next_position+0xa4>
    25ac:	84 d2                	test   %dl,%dl
    25ae:	0f 85 f7 00 00 00    	jne    26ab <find_next_position+0x19b>
    25b4:	49 bc 00 00 00 00 00 	movabs $0xdffffc0000000000,%r12
    25bb:	fc ff df 
    25be:	44 8b 7e 04          	mov    0x4(%rsi),%r15d
    25c2:	eb 1f                	jmp    25e3 <find_next_position+0xd3>
    25c4:	48 89 d8             	mov    %rbx,%rax
    25c7:	48 c1 e8 03          	shr    $0x3,%rax
    25cb:	42 80 3c 20 00       	cmpb   $0x0,(%rax,%r12,1)
    25d0:	0f 85 99 00 00 00    	jne    266f <find_next_position+0x15f>
    25d6:	48 8b 1b             	mov    (%rbx),%rbx
    25d9:	49 39 de             	cmp    %rbx,%r14
    25dc:	74 63                	je     2641 <find_next_position+0x131>
    25de:	4c 39 eb             	cmp    %r13,%rbx
    25e1:	74 5e                	je     2641 <find_next_position+0x131>
    25e3:	48 8d 7b ec          	lea    -0x14(%rbx),%rdi
    25e7:	48 89 f8             	mov    %rdi,%rax
    25ea:	48 c1 e8 03          	shr    $0x3,%rax
    25ee:	42 0f b6 14 20       	movzbl (%rax,%r12,1),%edx
    25f3:	48 89 f8             	mov    %rdi,%rax
    25f6:	83 e0 07             	and    $0x7,%eax
    25f9:	83 c0 03             	add    $0x3,%eax
    25fc:	38 d0                	cmp    %dl,%al
    25fe:	7c 04                	jl     2604 <find_next_position+0xf4>
    2600:	84 d2                	test   %dl,%dl
    2602:	75 5c                	jne    2660 <find_next_position+0x150>
    2604:	44 39 7b ec          	cmp    %r15d,-0x14(%rbx)
    2608:	7e ba                	jle    25c4 <find_next_position+0xb4>
    260a:	48 89 ca             	mov    %rcx,%rdx
    260d:	48 83 eb 18          	sub    $0x18,%rbx
    2611:	48 b8 00 00 00 00 00 	movabs $0xdffffc0000000000,%rax
    2618:	fc ff df 
    261b:	48 c1 ea 03          	shr    $0x3,%rdx
    261f:	80 3c 02 00          	cmpb   $0x0,(%rdx,%rax,1)
    2623:	0f 85 9c 00 00 00    	jne    26c5 <find_next_position+0x1b5>
    2629:	48 89 19             	mov    %rbx,(%rcx)
    262c:	48 83 c4 10          	add    $0x10,%rsp
    2630:	31 c0                	xor    %eax,%eax
    2632:	5b                   	pop    %rbx
    2633:	41 5c                	pop    %r12
    2635:	41 5d                	pop    %r13
    2637:	41 5e                	pop    %r14
    2639:	41 5f                	pop    %r15
    263b:	5d                   	pop    %rbp
    263c:	e9 00 00 00 00       	jmp    2641 <find_next_position+0x131>
    2641:	b8 fe ff ff ff       	mov    $0xfffffffe,%eax
    2646:	48 83 c4 10          	add    $0x10,%rsp
    264a:	5b                   	pop    %rbx
    264b:	41 5c                	pop    %r12
    264d:	41 5d                	pop    %r13
    264f:	41 5e                	pop    %r14
    2651:	41 5f                	pop    %r15
    2653:	5d                   	pop    %rbp
    2654:	e9 00 00 00 00       	jmp    2659 <find_next_position+0x149>
    2659:	b8 ea ff ff ff       	mov    $0xffffffea,%eax
    265e:	eb e6                	jmp    2646 <find_next_position+0x136>
    2660:	48 89 4d d0          	mov    %rcx,-0x30(%rbp)
    2664:	e8 00 00 00 00       	call   2669 <find_next_position+0x159>
    2669:	48 8b 4d d0          	mov    -0x30(%rbp),%rcx
    266d:	eb 95                	jmp    2604 <find_next_position+0xf4>
    266f:	48 89 df             	mov    %rbx,%rdi
    2672:	48 89 4d d0          	mov    %rcx,-0x30(%rbp)
    2676:	e8 00 00 00 00       	call   267b <find_next_position+0x16b>
    267b:	48 8b 4d d0          	mov    -0x30(%rbp),%rcx
    267f:	e9 52 ff ff ff       	jmp    25d6 <find_next_position+0xc6>
    2684:	4c 89 f7             	mov    %r14,%rdi
    2687:	48 89 4d c8          	mov    %rcx,-0x38(%rbp)
    268b:	48 89 75 d0          	mov    %rsi,-0x30(%rbp)
    268f:	e8 00 00 00 00       	call   2694 <find_next_position+0x184>
    2694:	48 8b 4d c8          	mov    -0x38(%rbp),%rcx
    2698:	48 8b 75 d0          	mov    -0x30(%rbp),%rsi
    269c:	e9 cb fe ff ff       	jmp    256c <find_next_position+0x5c>
    26a1:	b8 ea ff ff ff       	mov    $0xffffffea,%eax
    26a6:	e9 00 00 00 00       	jmp    26ab <find_next_position+0x19b>
    26ab:	48 89 4d c8          	mov    %rcx,-0x38(%rbp)
    26af:	48 89 75 d0          	mov    %rsi,-0x30(%rbp)
    26b3:	e8 00 00 00 00       	call   26b8 <find_next_position+0x1a8>
    26b8:	48 8b 4d c8          	mov    -0x38(%rbp),%rcx
    26bc:	48 8b 75 d0          	mov    -0x30(%rbp),%rsi
    26c0:	e9 ef fe ff ff       	jmp    25b4 <find_next_position+0xa4>
    26c5:	48 89 cf             	mov    %rcx,%rdi
    26c8:	48 89 4d d0          	mov    %rcx,-0x30(%rbp)
    26cc:	e8 00 00 00 00       	call   26d1 <find_next_position+0x1c1>
    26d1:	48 8b 4d d0          	mov    -0x30(%rbp),%rcx
    26d5:	e9 4f ff ff ff       	jmp    2629 <find_next_position+0x119>
    26da:	66 0f 1f 44 00 00    	nopw   0x0(%rax,%rax,1)

00000000000026e0 <__pfx_find_first_position>:
    26e0:	90                   	nop
    26e1:	90                   	nop
    26e2:	90                   	nop
    26e3:	90                   	nop
    26e4:	90                   	nop
    26e5:	90                   	nop
    26e6:	90                   	nop
    26e7:	90                   	nop
    26e8:	90                   	nop
    26e9:	90                   	nop
    26ea:	90                   	nop
    26eb:	90                   	nop
    26ec:	90                   	nop
    26ed:	90                   	nop
    26ee:	90                   	nop
    26ef:	90                   	nop

00000000000026f0 <find_first_position>:
    26f0:	f3 0f 1e fa          	endbr64
    26f4:	e8 00 00 00 00       	call   26f9 <find_first_position+0x9>
    26f9:	48 85 ff             	test   %rdi,%rdi
    26fc:	74 68                	je     2766 <find_first_position+0x76>
    26fe:	48 85 f6             	test   %rsi,%rsi
    2701:	74 63                	je     2766 <find_first_position+0x76>
    2703:	48 b8 00 00 00 00 00 	movabs $0xdffffc0000000000,%rax
    270a:	fc ff df 
    270d:	55                   	push   %rbp
    270e:	48 89 e5             	mov    %rsp,%rbp
    2711:	41 54                	push   %r12
    2713:	4c 8d 67 10          	lea    0x10(%rdi),%r12
    2717:	53                   	push   %rbx
    2718:	4c 89 e2             	mov    %r12,%rdx
    271b:	48 89 fb             	mov    %rdi,%rbx
    271e:	48 c1 ea 03          	shr    $0x3,%rdx
    2722:	48 83 ec 08          	sub    $0x8,%rsp
    2726:	80 3c 02 00          	cmpb   $0x0,(%rdx,%rax,1)
    272a:	75 5d                	jne    2789 <find_first_position+0x99>
    272c:	48 8b 43 10          	mov    0x10(%rbx),%rax
    2730:	49 39 c4             	cmp    %rax,%r12
    2733:	74 3b                	je     2770 <find_first_position+0x80>
    2735:	48 8b 5b 10          	mov    0x10(%rbx),%rbx
    2739:	48 89 f2             	mov    %rsi,%rdx
    273c:	48 b8 00 00 00 00 00 	movabs $0xdffffc0000000000,%rax
    2743:	fc ff df 
    2746:	48 c1 ea 03          	shr    $0x3,%rdx
    274a:	48 83 eb 18          	sub    $0x18,%rbx
    274e:	80 3c 02 00          	cmpb   $0x0,(%rdx,%rax,1)
    2752:	75 23                	jne    2777 <find_first_position+0x87>
    2754:	48 89 1e             	mov    %rbx,(%rsi)
    2757:	31 c0                	xor    %eax,%eax
    2759:	48 83 c4 08          	add    $0x8,%rsp
    275d:	5b                   	pop    %rbx
    275e:	41 5c                	pop    %r12
    2760:	5d                   	pop    %rbp
    2761:	e9 00 00 00 00       	jmp    2766 <find_first_position+0x76>
    2766:	b8 ea ff ff ff       	mov    $0xffffffea,%eax
    276b:	e9 00 00 00 00       	jmp    2770 <find_first_position+0x80>
    2770:	b8 fe ff ff ff       	mov    $0xfffffffe,%eax
    2775:	eb e2                	jmp    2759 <find_first_position+0x69>
    2777:	48 89 f7             	mov    %rsi,%rdi
    277a:	48 89 75 e8          	mov    %rsi,-0x18(%rbp)
    277e:	e8 00 00 00 00       	call   2783 <find_first_position+0x93>
    2783:	48 8b 75 e8          	mov    -0x18(%rbp),%rsi
    2787:	eb cb                	jmp    2754 <find_first_position+0x64>
    2789:	4c 89 e7             	mov    %r12,%rdi
    278c:	48 89 75 e8          	mov    %rsi,-0x18(%rbp)
    2790:	e8 00 00 00 00       	call   2795 <find_first_position+0xa5>
    2795:	48 8b 75 e8          	mov    -0x18(%rbp),%rsi
    2799:	eb 91                	jmp    272c <find_first_position+0x3c>
    279b:	0f 1f 44 00 00       	nopl   0x0(%rax,%rax,1)

00000000000027a0 <__pfx_create_subscriber_struct>:
    27a0:	90                   	nop
    27a1:	90                   	nop
    27a2:	90                   	nop
    27a3:	90                   	nop
    27a4:	90                   	nop
    27a5:	90                   	nop
    27a6:	90                   	nop
    27a7:	90                   	nop
    27a8:	90                   	nop
    27a9:	90                   	nop
    27aa:	90                   	nop
    27ab:	90                   	nop
    27ac:	90                   	nop
    27ad:	90                   	nop
    27ae:	90                   	nop
    27af:	90                   	nop

00000000000027b0 <create_subscriber_struct>:
    27b0:	f3 0f 1e fa          	endbr64
    27b4:	e8 00 00 00 00       	call   27b9 <create_subscriber_struct+0x9>
    27b9:	85 ff                	test   %edi,%edi
    27bb:	0f 88 d6 01 00 00    	js     2997 <create_subscriber_struct+0x1e7>
    27c1:	55                   	push   %rbp
    27c2:	48 89 e5             	mov    %rsp,%rbp
    27c5:	41 57                	push   %r15
    27c7:	41 56                	push   %r14
    27c9:	41 55                	push   %r13
    27cb:	41 54                	push   %r12
    27cd:	49 89 f4             	mov    %rsi,%r12
    27d0:	53                   	push   %rbx
    27d1:	48 85 f6             	test   %rsi,%rsi
    27d4:	0f 84 6c 01 00 00    	je     2946 <create_subscriber_struct+0x196>
    27da:	65 48 8b 1d 00 00 00 	mov    %gs:0x0(%rip),%rbx        # 27e2 <create_subscriber_struct+0x32>
    27e1:	00 
    27e2:	48 b8 00 00 00 00 00 	movabs $0xdffffc0000000000,%rax
    27e9:	fc ff df 
    27ec:	41 89 ff             	mov    %edi,%r15d
    27ef:	48 8d 7b 38          	lea    0x38(%rbx),%rdi
    27f3:	48 89 fa             	mov    %rdi,%rdx
    27f6:	48 c1 ea 03          	shr    $0x3,%rdx
    27fa:	80 3c 02 00          	cmpb   $0x0,(%rdx,%rax,1)
    27fe:	0f 85 5d 01 00 00    	jne    2961 <create_subscriber_struct+0x1b1>
    2804:	48 b8 00 00 00 00 00 	movabs $0xdffffc0000000000,%rax
    280b:	fc ff df 
    280e:	4c 8b 73 38          	mov    0x38(%rbx),%r14
    2812:	65 48 8b 1d 00 00 00 	mov    %gs:0x0(%rip),%rbx        # 281a <create_subscriber_struct+0x6a>
    2819:	00 
    281a:	48 8d 7b 38          	lea    0x38(%rbx),%rdi
    281e:	48 89 fa             	mov    %rdi,%rdx
    2821:	48 c1 ea 03          	shr    $0x3,%rdx
    2825:	80 3c 02 00          	cmpb   $0x0,(%rdx,%rax,1)
    2829:	0f 85 28 01 00 00    	jne    2957 <create_subscriber_struct+0x1a7>
    282f:	48 c7 43 38 00 00 00 	movq   $0x0,0x38(%rbx)
    2836:	00 
    2837:	bf 20 00 00 00       	mov    $0x20,%edi
    283c:	65 4c 8b 2d 00 00 00 	mov    %gs:0x0(%rip),%r13        # 2844 <create_subscriber_struct+0x94>
    2843:	00 
    2844:	e8 00 00 00 00       	call   2849 <create_subscriber_struct+0x99>
    2849:	49 8d 7d 38          	lea    0x38(%r13),%rdi
    284d:	48 89 fa             	mov    %rdi,%rdx
    2850:	48 89 c3             	mov    %rax,%rbx
    2853:	48 b8 00 00 00 00 00 	movabs $0xdffffc0000000000,%rax
    285a:	fc ff df 
    285d:	48 c1 ea 03          	shr    $0x3,%rdx
    2861:	80 3c 02 00          	cmpb   $0x0,(%rdx,%rax,1)
    2865:	0f 85 e2 00 00 00    	jne    294d <create_subscriber_struct+0x19d>
    286b:	4d 89 75 38          	mov    %r14,0x38(%r13)
    286f:	48 85 db             	test   %rbx,%rbx
    2872:	0f 84 18 01 00 00    	je     2990 <create_subscriber_struct+0x1e0>
    2878:	48 b8 00 00 00 00 00 	movabs $0xdffffc0000000000,%rax
    287f:	fc ff df 
    2882:	48 89 da             	mov    %rbx,%rdx
    2885:	48 c1 ea 03          	shr    $0x3,%rdx
    2889:	0f b6 04 02          	movzbl (%rdx,%rax,1),%eax
    288d:	84 c0                	test   %al,%al
    288f:	74 08                	je     2899 <create_subscriber_struct+0xe9>
    2891:	3c 03                	cmp    $0x3,%al
    2893:	0f 8e a0 00 00 00    	jle    2939 <create_subscriber_struct+0x189>
    2899:	48 8d 7b 08          	lea    0x8(%rbx),%rdi
    289d:	44 89 3b             	mov    %r15d,(%rbx)
    28a0:	48 b8 00 00 00 00 00 	movabs $0xdffffc0000000000,%rax
    28a7:	fc ff df 
    28aa:	48 89 fa             	mov    %rdi,%rdx
    28ad:	48 c1 ea 03          	shr    $0x3,%rdx
    28b1:	80 3c 02 00          	cmpb   $0x0,(%rdx,%rax,1)
    28b5:	0f 85 cb 00 00 00    	jne    2986 <create_subscriber_struct+0x1d6>
    28bb:	48 8d 7b 10          	lea    0x10(%rbx),%rdi
    28bf:	48 c7 43 08 00 00 00 	movq   $0x0,0x8(%rbx)
    28c6:	00 
    28c7:	48 b8 00 00 00 00 00 	movabs $0xdffffc0000000000,%rax
    28ce:	fc ff df 
    28d1:	48 89 fa             	mov    %rdi,%rdx
    28d4:	48 c1 ea 03          	shr    $0x3,%rdx
    28d8:	80 3c 02 00          	cmpb   $0x0,(%rdx,%rax,1)
    28dc:	0f 85 9a 00 00 00    	jne    297c <create_subscriber_struct+0x1cc>
    28e2:	48 8d 7b 18          	lea    0x18(%rbx),%rdi
    28e6:	48 c7 43 10 00 00 00 	movq   $0x0,0x10(%rbx)
    28ed:	00 
    28ee:	48 b8 00 00 00 00 00 	movabs $0xdffffc0000000000,%rax
    28f5:	fc ff df 
    28f8:	48 89 fa             	mov    %rdi,%rdx
    28fb:	48 c1 ea 03          	shr    $0x3,%rdx
    28ff:	80 3c 02 00          	cmpb   $0x0,(%rdx,%rax,1)
    2903:	75 70                	jne    2975 <create_subscriber_struct+0x1c5>
    2905:	4c 89 e2             	mov    %r12,%rdx
    2908:	48 c7 43 18 00 00 00 	movq   $0x0,0x18(%rbx)
    290f:	00 
    2910:	48 b8 00 00 00 00 00 	movabs $0xdffffc0000000000,%rax
    2917:	fc ff df 
    291a:	48 c1 ea 03          	shr    $0x3,%rdx
    291e:	80 3c 02 00          	cmpb   $0x0,(%rdx,%rax,1)
    2922:	75 47                	jne    296b <create_subscriber_struct+0x1bb>
    2924:	49 89 1c 24          	mov    %rbx,(%r12)
    2928:	31 c0                	xor    %eax,%eax
    292a:	5b                   	pop    %rbx
    292b:	41 5c                	pop    %r12
    292d:	41 5d                	pop    %r13
    292f:	41 5e                	pop    %r14
    2931:	41 5f                	pop    %r15
    2933:	5d                   	pop    %rbp
    2934:	e9 00 00 00 00       	jmp    2939 <create_subscriber_struct+0x189>
    2939:	48 89 df             	mov    %rbx,%rdi
    293c:	e8 00 00 00 00       	call   2941 <create_subscriber_struct+0x191>
    2941:	e9 53 ff ff ff       	jmp    2899 <create_subscriber_struct+0xe9>
    2946:	b8 ea ff ff ff       	mov    $0xffffffea,%eax
    294b:	eb dd                	jmp    292a <create_subscriber_struct+0x17a>
    294d:	e8 00 00 00 00       	call   2952 <create_subscriber_struct+0x1a2>
    2952:	e9 14 ff ff ff       	jmp    286b <create_subscriber_struct+0xbb>
    2957:	e8 00 00 00 00       	call   295c <create_subscriber_struct+0x1ac>
    295c:	e9 ce fe ff ff       	jmp    282f <create_subscriber_struct+0x7f>
    2961:	e8 00 00 00 00       	call   2966 <create_subscriber_struct+0x1b6>
    2966:	e9 99 fe ff ff       	jmp    2804 <create_subscriber_struct+0x54>
    296b:	4c 89 e7             	mov    %r12,%rdi
    296e:	e8 00 00 00 00       	call   2973 <create_subscriber_struct+0x1c3>
    2973:	eb af                	jmp    2924 <create_subscriber_struct+0x174>
    2975:	e8 00 00 00 00       	call   297a <create_subscriber_struct+0x1ca>
    297a:	eb 89                	jmp    2905 <create_subscriber_struct+0x155>
    297c:	e8 00 00 00 00       	call   2981 <create_subscriber_struct+0x1d1>
    2981:	e9 5c ff ff ff       	jmp    28e2 <create_subscriber_struct+0x132>
    2986:	e8 00 00 00 00       	call   298b <create_subscriber_struct+0x1db>
    298b:	e9 2b ff ff ff       	jmp    28bb <create_subscriber_struct+0x10b>
    2990:	b8 f4 ff ff ff       	mov    $0xfffffff4,%eax
    2995:	eb 93                	jmp    292a <create_subscriber_struct+0x17a>
    2997:	b8 ea ff ff ff       	mov    $0xffffffea,%eax
    299c:	e9 00 00 00 00       	jmp    29a1 <create_subscriber_struct+0x1f1>
    29a1:	66 66 2e 0f 1f 84 00 	data16 cs nopw 0x0(%rax,%rax,1)
    29a8:	00 00 00 00 
    29ac:	0f 1f 40 00          	nopl   0x0(%rax)

00000000000029b0 <__pfx_delete_subscriber_struct>:
    29b0:	90                   	nop
    29b1:	90                   	nop
    29b2:	90                   	nop
    29b3:	90                   	nop
    29b4:	90                   	nop
    29b5:	90                   	nop
    29b6:	90                   	nop
    29b7:	90                   	nop
    29b8:	90                   	nop
    29b9:	90                   	nop
    29ba:	90                   	nop
    29bb:	90                   	nop
    29bc:	90                   	nop
    29bd:	90                   	nop
    29be:	90                   	nop
    29bf:	90                   	nop

00000000000029c0 <delete_subscriber_struct>:
    29c0:	f3 0f 1e fa          	endbr64
    29c4:	e8 00 00 00 00       	call   29c9 <delete_subscriber_struct+0x9>
    29c9:	48 85 ff             	test   %rdi,%rdi
    29cc:	74 11                	je     29df <delete_subscriber_struct+0x1f>
    29ce:	55                   	push   %rbp
    29cf:	48 89 e5             	mov    %rsp,%rbp
    29d2:	e8 00 00 00 00       	call   29d7 <delete_subscriber_struct+0x17>
    29d7:	31 c0                	xor    %eax,%eax
    29d9:	5d                   	pop    %rbp
    29da:	e9 00 00 00 00       	jmp    29df <delete_subscriber_struct+0x1f>
    29df:	b8 ea ff ff ff       	mov    $0xffffffea,%eax
    29e4:	e9 00 00 00 00       	jmp    29e9 <delete_subscriber_struct+0x29>
    29e9:	0f 1f 80 00 00 00 00 	nopl   0x0(%rax)

00000000000029f0 <__pfx_find_subscriber>:
    29f0:	90                   	nop
    29f1:	90                   	nop
    29f2:	90                   	nop
    29f3:	90                   	nop
    29f4:	90                   	nop
    29f5:	90                   	nop
    29f6:	90                   	nop
    29f7:	90                   	nop
    29f8:	90                   	nop
    29f9:	90                   	nop
    29fa:	90                   	nop
    29fb:	90                   	nop
    29fc:	90                   	nop
    29fd:	90                   	nop
    29fe:	90                   	nop
    29ff:	90                   	nop

0000000000002a00 <find_subscriber>:
    2a00:	f3 0f 1e fa          	endbr64
    2a04:	e8 00 00 00 00       	call   2a09 <find_subscriber+0x9>
    2a09:	55                   	push   %rbp
    2a0a:	48 85 ff             	test   %rdi,%rdi
    2a0d:	0f 94 c0             	sete   %al
    2a10:	48 85 d2             	test   %rdx,%rdx
    2a13:	48 89 e5             	mov    %rsp,%rbp
    2a16:	41 56                	push   %r14
    2a18:	41 55                	push   %r13
    2a1a:	41 54                	push   %r12
    2a1c:	49 89 d4             	mov    %rdx,%r12
    2a1f:	0f 94 c2             	sete   %dl
    2a22:	08 d0                	or     %dl,%al
    2a24:	53                   	push   %rbx
    2a25:	0f 85 e1 01 00 00    	jne    2c0c <find_subscriber+0x20c>
    2a2b:	41 89 f6             	mov    %esi,%r14d
    2a2e:	85 f6                	test   %esi,%esi
    2a30:	0f 88 d6 01 00 00    	js     2c0c <find_subscriber+0x20c>
    2a36:	49 89 fd             	mov    %rdi,%r13
    2a39:	e8 00 00 00 00       	call   2a3e <find_subscriber+0x3e>
    2a3e:	31 d2                	xor    %edx,%edx
    2a40:	45 31 c9             	xor    %r9d,%r9d
    2a43:	45 31 c0             	xor    %r8d,%r8d
    2a46:	48 8d 05 00 00 00 00 	lea    0x0(%rip),%rax        # 2a4d <find_subscriber+0x4d>
    2a4d:	50                   	push   %rax
    2a4e:	b9 02 00 00 00       	mov    $0x2,%ecx
    2a53:	31 f6                	xor    %esi,%esi
    2a55:	48 c7 c7 00 00 00 00 	mov    $0x0,%rdi
    2a5c:	e8 00 00 00 00       	call   2a61 <find_subscriber+0x61>
    2a61:	e8 00 00 00 00       	call   2a66 <find_subscriber+0x66>
    2a66:	5a                   	pop    %rdx
    2a67:	85 c0                	test   %eax,%eax
    2a69:	0f 85 46 01 00 00    	jne    2bb5 <find_subscriber+0x1b5>
    2a6f:	41 69 de 47 86 c8 61 	imul   $0x61c88647,%r14d,%ebx
    2a76:	48 b8 00 00 00 00 00 	movabs $0xdffffc0000000000,%rax
    2a7d:	fc ff df 
    2a80:	c1 eb 1d             	shr    $0x1d,%ebx
    2a83:	49 8d 7c dd 00       	lea    0x0(%r13,%rbx,8),%rdi
    2a88:	48 89 fa             	mov    %rdi,%rdx
    2a8b:	48 c1 ea 03          	shr    $0x3,%rdx
    2a8f:	80 3c 02 00          	cmpb   $0x0,(%rdx,%rax,1)
    2a93:	0f 85 92 01 00 00    	jne    2c2b <find_subscriber+0x22b>
    2a99:	49 8b 5c dd 00       	mov    0x0(%r13,%rbx,8),%rbx
    2a9e:	48 85 db             	test   %rbx,%rbx
    2aa1:	0f 84 d3 00 00 00    	je     2b7a <find_subscriber+0x17a>
    2aa7:	48 83 eb 08          	sub    $0x8,%rbx
    2aab:	0f 84 c9 00 00 00    	je     2b7a <find_subscriber+0x17a>
    2ab1:	49 bd 00 00 00 00 00 	movabs $0xdffffc0000000000,%r13
    2ab8:	fc ff df 
    2abb:	eb 2d                	jmp    2aea <find_subscriber+0xea>
    2abd:	48 8d 7b 08          	lea    0x8(%rbx),%rdi
    2ac1:	48 89 f8             	mov    %rdi,%rax
    2ac4:	48 c1 e8 03          	shr    $0x3,%rax
    2ac8:	42 80 3c 28 00       	cmpb   $0x0,(%rax,%r13,1)
    2acd:	0f 85 41 01 00 00    	jne    2c14 <find_subscriber+0x214>
    2ad3:	48 8b 5b 08          	mov    0x8(%rbx),%rbx
    2ad7:	48 85 db             	test   %rbx,%rbx
    2ada:	0f 84 9a 00 00 00    	je     2b7a <find_subscriber+0x17a>
    2ae0:	48 83 eb 08          	sub    $0x8,%rbx
    2ae4:	0f 84 90 00 00 00    	je     2b7a <find_subscriber+0x17a>
    2aea:	48 89 d8             	mov    %rbx,%rax
    2aed:	48 c1 e8 03          	shr    $0x3,%rax
    2af1:	42 0f b6 04 28       	movzbl (%rax,%r13,1),%eax
    2af6:	84 c0                	test   %al,%al
    2af8:	74 08                	je     2b02 <find_subscriber+0x102>
    2afa:	3c 03                	cmp    $0x3,%al
    2afc:	0f 8e 1c 01 00 00    	jle    2c1e <find_subscriber+0x21e>
    2b02:	44 39 33             	cmp    %r14d,(%rbx)
    2b05:	75 b6                	jne    2abd <find_subscriber+0xbd>
    2b07:	48 b8 00 00 00 00 00 	movabs $0xdffffc0000000000,%rax
    2b0e:	fc ff df 
    2b11:	4c 89 e2             	mov    %r12,%rdx
    2b14:	48 c1 ea 03          	shr    $0x3,%rdx
    2b18:	80 3c 02 00          	cmpb   $0x0,(%rdx,%rax,1)
    2b1c:	0f 85 13 01 00 00    	jne    2c35 <find_subscriber+0x235>
    2b22:	49 89 1c 24          	mov    %rbx,(%r12)
    2b26:	45 31 e4             	xor    %r12d,%r12d
    2b29:	e8 00 00 00 00       	call   2b2e <find_subscriber+0x12e>
    2b2e:	85 c0                	test   %eax,%eax
    2b30:	74 57                	je     2b89 <find_subscriber+0x189>
    2b32:	e8 00 00 00 00       	call   2b37 <find_subscriber+0x137>
    2b37:	84 c0                	test   %al,%al
    2b39:	75 4e                	jne    2b89 <find_subscriber+0x189>
    2b3b:	e8 00 00 00 00       	call   2b40 <find_subscriber+0x140>
    2b40:	85 c0                	test   %eax,%eax
    2b42:	74 45                	je     2b89 <find_subscriber+0x189>
    2b44:	0f b6 1d 00 00 00 00 	movzbl 0x0(%rip),%ebx        # 2b4b <find_subscriber+0x14b>
    2b4b:	80 fb 01             	cmp    $0x1,%bl
    2b4e:	0f 87 00 00 00 00    	ja     2b54 <find_subscriber+0x154>
    2b54:	83 e3 01             	and    $0x1,%ebx
    2b57:	75 30                	jne    2b89 <find_subscriber+0x189>
    2b59:	48 c7 c2 00 00 00 00 	mov    $0x0,%rdx
    2b60:	be 6e 03 00 00       	mov    $0x36e,%esi
    2b65:	48 c7 c7 00 00 00 00 	mov    $0x0,%rdi
    2b6c:	c6 05 00 00 00 00 01 	movb   $0x1,0x0(%rip)        # 2b73 <find_subscriber+0x173>
    2b73:	e8 00 00 00 00       	call   2b78 <find_subscriber+0x178>
    2b78:	eb 0f                	jmp    2b89 <find_subscriber+0x189>
    2b7a:	41 bc fe ff ff ff    	mov    $0xfffffffe,%r12d
    2b80:	e8 00 00 00 00       	call   2b85 <find_subscriber+0x185>
    2b85:	85 c0                	test   %eax,%eax
    2b87:	75 a9                	jne    2b32 <find_subscriber+0x132>
    2b89:	48 c7 c7 00 00 00 00 	mov    $0x0,%rdi
    2b90:	48 8d 35 00 00 00 00 	lea    0x0(%rip),%rsi        # 2b97 <find_subscriber+0x197>
    2b97:	e8 00 00 00 00       	call   2b9c <find_subscriber+0x19c>
    2b9c:	e8 00 00 00 00       	call   2ba1 <find_subscriber+0x1a1>
    2ba1:	48 8d 65 e0          	lea    -0x20(%rbp),%rsp
    2ba5:	44 89 e0             	mov    %r12d,%eax
    2ba8:	5b                   	pop    %rbx
    2ba9:	41 5c                	pop    %r12
    2bab:	41 5d                	pop    %r13
    2bad:	41 5e                	pop    %r14
    2baf:	5d                   	pop    %rbp
    2bb0:	e9 00 00 00 00       	jmp    2bb5 <find_subscriber+0x1b5>
    2bb5:	e8 00 00 00 00       	call   2bba <find_subscriber+0x1ba>
    2bba:	84 c0                	test   %al,%al
    2bbc:	0f 85 ad fe ff ff    	jne    2a6f <find_subscriber+0x6f>
    2bc2:	e8 00 00 00 00       	call   2bc7 <find_subscriber+0x1c7>
    2bc7:	85 c0                	test   %eax,%eax
    2bc9:	0f 84 a0 fe ff ff    	je     2a6f <find_subscriber+0x6f>
    2bcf:	0f b6 1d 00 00 00 00 	movzbl 0x0(%rip),%ebx        # 2bd6 <find_subscriber+0x1d6>
    2bd6:	80 fb 01             	cmp    $0x1,%bl
    2bd9:	0f 87 00 00 00 00    	ja     2bdf <find_subscriber+0x1df>
    2bdf:	83 e3 01             	and    $0x1,%ebx
    2be2:	0f 85 87 fe ff ff    	jne    2a6f <find_subscriber+0x6f>
    2be8:	48 c7 c2 00 00 00 00 	mov    $0x0,%rdx
    2bef:	be 52 03 00 00       	mov    $0x352,%esi
    2bf4:	48 c7 c7 00 00 00 00 	mov    $0x0,%rdi
    2bfb:	c6 05 00 00 00 00 01 	movb   $0x1,0x0(%rip)        # 2c02 <find_subscriber+0x202>
    2c02:	e8 00 00 00 00       	call   2c07 <find_subscriber+0x207>
    2c07:	e9 63 fe ff ff       	jmp    2a6f <find_subscriber+0x6f>
    2c0c:	41 bc ea ff ff ff    	mov    $0xffffffea,%r12d
    2c12:	eb 8d                	jmp    2ba1 <find_subscriber+0x1a1>
    2c14:	e8 00 00 00 00       	call   2c19 <find_subscriber+0x219>
    2c19:	e9 b5 fe ff ff       	jmp    2ad3 <find_subscriber+0xd3>
    2c1e:	48 89 df             	mov    %rbx,%rdi
    2c21:	e8 00 00 00 00       	call   2c26 <find_subscriber+0x226>
    2c26:	e9 d7 fe ff ff       	jmp    2b02 <find_subscriber+0x102>
    2c2b:	e8 00 00 00 00       	call   2c30 <find_subscriber+0x230>
    2c30:	e9 64 fe ff ff       	jmp    2a99 <find_subscriber+0x99>
    2c35:	4c 89 e7             	mov    %r12,%rdi
    2c38:	e8 00 00 00 00       	call   2c3d <find_subscriber+0x23d>
    2c3d:	e9 e0 fe ff ff       	jmp    2b22 <find_subscriber+0x122>
    2c42:	66 66 2e 0f 1f 84 00 	data16 cs nopw 0x0(%rax,%rax,1)
    2c49:	00 00 00 00 
    2c4d:	0f 1f 00             	nopl   (%rax)

0000000000002c50 <__pfx_add_subscriber>:
    2c50:	90                   	nop
    2c51:	90                   	nop
    2c52:	90                   	nop
    2c53:	90                   	nop
    2c54:	90                   	nop
    2c55:	90                   	nop
    2c56:	90                   	nop
    2c57:	90                   	nop
    2c58:	90                   	nop
    2c59:	90                   	nop
    2c5a:	90                   	nop
    2c5b:	90                   	nop
    2c5c:	90                   	nop
    2c5d:	90                   	nop
    2c5e:	90                   	nop
    2c5f:	90                   	nop

0000000000002c60 <add_subscriber>:
    2c60:	f3 0f 1e fa          	endbr64
    2c64:	e8 00 00 00 00       	call   2c69 <add_subscriber+0x9>
    2c69:	48 85 ff             	test   %rdi,%rdi
    2c6c:	0f 84 1e 01 00 00    	je     2d90 <add_subscriber+0x130>
    2c72:	48 85 f6             	test   %rsi,%rsi
    2c75:	0f 84 15 01 00 00    	je     2d90 <add_subscriber+0x130>
    2c7b:	48 b8 00 00 00 00 00 	movabs $0xdffffc0000000000,%rax
    2c82:	fc ff df 
    2c85:	55                   	push   %rbp
    2c86:	48 89 f2             	mov    %rsi,%rdx
    2c89:	48 c1 ea 03          	shr    $0x3,%rdx
    2c8d:	48 89 e5             	mov    %rsp,%rbp
    2c90:	41 57                	push   %r15
    2c92:	41 56                	push   %r14
    2c94:	41 55                	push   %r13
    2c96:	49 89 fd             	mov    %rdi,%r13
    2c99:	41 54                	push   %r12
    2c9b:	48 83 ec 08          	sub    $0x8,%rsp
    2c9f:	0f b6 04 02          	movzbl (%rdx,%rax,1),%eax
    2ca3:	84 c0                	test   %al,%al
    2ca5:	74 08                	je     2caf <add_subscriber+0x4f>
    2ca7:	3c 03                	cmp    $0x3,%al
    2ca9:	0f 8e cc 00 00 00    	jle    2d7b <add_subscriber+0x11b>
    2caf:	44 69 26 47 86 c8 61 	imul   $0x61c88647,(%rsi),%r12d
    2cb6:	4c 8d 7e 08          	lea    0x8(%rsi),%r15
    2cba:	48 b8 00 00 00 00 00 	movabs $0xdffffc0000000000,%rax
    2cc1:	fc ff df 
    2cc4:	41 c1 ec 1d          	shr    $0x1d,%r12d
    2cc8:	4f 8d 74 e5 00       	lea    0x0(%r13,%r12,8),%r14
    2ccd:	4c 89 f2             	mov    %r14,%rdx
    2cd0:	48 c1 ea 03          	shr    $0x3,%rdx
    2cd4:	80 3c 02 00          	cmpb   $0x0,(%rdx,%rax,1)
    2cd8:	0f 85 ed 00 00 00    	jne    2dcb <add_subscriber+0x16b>
    2cde:	4c 89 fa             	mov    %r15,%rdx
    2ce1:	4f 8b 64 e5 00       	mov    0x0(%r13,%r12,8),%r12
    2ce6:	48 b8 00 00 00 00 00 	movabs $0xdffffc0000000000,%rax
    2ced:	fc ff df 
    2cf0:	48 c1 ea 03          	shr    $0x3,%rdx
    2cf4:	80 3c 02 00          	cmpb   $0x0,(%rdx,%rax,1)
    2cf8:	0f 85 b8 00 00 00    	jne    2db6 <add_subscriber+0x156>
    2cfe:	48 8d 7e 10          	lea    0x10(%rsi),%rdi
    2d02:	4c 89 66 08          	mov    %r12,0x8(%rsi)
    2d06:	48 b8 00 00 00 00 00 	movabs $0xdffffc0000000000,%rax
    2d0d:	fc ff df 
    2d10:	48 89 fa             	mov    %rdi,%rdx
    2d13:	48 c1 ea 03          	shr    $0x3,%rdx
    2d17:	80 3c 02 00          	cmpb   $0x0,(%rdx,%rax,1)
    2d1b:	0f 85 83 00 00 00    	jne    2da4 <add_subscriber+0x144>
    2d21:	4c 89 76 10          	mov    %r14,0x10(%rsi)
    2d25:	48 b8 00 00 00 00 00 	movabs $0xdffffc0000000000,%rax
    2d2c:	fc ff df 
    2d2f:	4c 89 f2             	mov    %r14,%rdx
    2d32:	48 c1 ea 03          	shr    $0x3,%rdx
    2d36:	80 3c 02 00          	cmpb   $0x0,(%rdx,%rax,1)
    2d3a:	75 5e                	jne    2d9a <add_subscriber+0x13a>
    2d3c:	4d 89 3e             	mov    %r15,(%r14)
    2d3f:	31 c0                	xor    %eax,%eax
    2d41:	4d 85 e4             	test   %r12,%r12
    2d44:	74 23                	je     2d69 <add_subscriber+0x109>
    2d46:	48 b8 00 00 00 00 00 	movabs $0xdffffc0000000000,%rax
    2d4d:	fc ff df 
    2d50:	49 8d 7c 24 08       	lea    0x8(%r12),%rdi
    2d55:	48 89 fa             	mov    %rdi,%rdx
    2d58:	48 c1 ea 03          	shr    $0x3,%rdx
    2d5c:	80 3c 02 00          	cmpb   $0x0,(%rdx,%rax,1)
    2d60:	75 7e                	jne    2de0 <add_subscriber+0x180>
    2d62:	4d 89 7c 24 08       	mov    %r15,0x8(%r12)
    2d67:	31 c0                	xor    %eax,%eax
    2d69:	48 83 c4 08          	add    $0x8,%rsp
    2d6d:	41 5c                	pop    %r12
    2d6f:	41 5d                	pop    %r13
    2d71:	41 5e                	pop    %r14
    2d73:	41 5f                	pop    %r15
    2d75:	5d                   	pop    %rbp
    2d76:	e9 00 00 00 00       	jmp    2d7b <add_subscriber+0x11b>
    2d7b:	48 89 f7             	mov    %rsi,%rdi
    2d7e:	48 89 75 d8          	mov    %rsi,-0x28(%rbp)
    2d82:	e8 00 00 00 00       	call   2d87 <add_subscriber+0x127>
    2d87:	48 8b 75 d8          	mov    -0x28(%rbp),%rsi
    2d8b:	e9 1f ff ff ff       	jmp    2caf <add_subscriber+0x4f>
    2d90:	b8 ea ff ff ff       	mov    $0xffffffea,%eax
    2d95:	e9 00 00 00 00       	jmp    2d9a <add_subscriber+0x13a>
    2d9a:	4c 89 f7             	mov    %r14,%rdi
    2d9d:	e8 00 00 00 00       	call   2da2 <add_subscriber+0x142>
    2da2:	eb 98                	jmp    2d3c <add_subscriber+0xdc>
    2da4:	48 89 75 d8          	mov    %rsi,-0x28(%rbp)
    2da8:	e8 00 00 00 00       	call   2dad <add_subscriber+0x14d>
    2dad:	48 8b 75 d8          	mov    -0x28(%rbp),%rsi
    2db1:	e9 6b ff ff ff       	jmp    2d21 <add_subscriber+0xc1>
    2db6:	4c 89 ff             	mov    %r15,%rdi
    2db9:	48 89 75 d8          	mov    %rsi,-0x28(%rbp)
    2dbd:	e8 00 00 00 00       	call   2dc2 <add_subscriber+0x162>
    2dc2:	48 8b 75 d8          	mov    -0x28(%rbp),%rsi
    2dc6:	e9 33 ff ff ff       	jmp    2cfe <add_subscriber+0x9e>
    2dcb:	4c 89 f7             	mov    %r14,%rdi
    2dce:	48 89 75 d8          	mov    %rsi,-0x28(%rbp)
    2dd2:	e8 00 00 00 00       	call   2dd7 <add_subscriber+0x177>
    2dd7:	48 8b 75 d8          	mov    -0x28(%rbp),%rsi
    2ddb:	e9 fe fe ff ff       	jmp    2cde <add_subscriber+0x7e>
    2de0:	e8 00 00 00 00       	call   2de5 <add_subscriber+0x185>
    2de5:	e9 78 ff ff ff       	jmp    2d62 <add_subscriber+0x102>
    2dea:	66 0f 1f 44 00 00    	nopw   0x0(%rax,%rax,1)

0000000000002df0 <__pfx_remove_subscriber>:
    2df0:	90                   	nop
    2df1:	90                   	nop
    2df2:	90                   	nop
    2df3:	90                   	nop
    2df4:	90                   	nop
    2df5:	90                   	nop
    2df6:	90                   	nop
    2df7:	90                   	nop
    2df8:	90                   	nop
    2df9:	90                   	nop
    2dfa:	90                   	nop
    2dfb:	90                   	nop
    2dfc:	90                   	nop
    2dfd:	90                   	nop
    2dfe:	90                   	nop
    2dff:	90                   	nop

0000000000002e00 <remove_subscriber>:
    2e00:	f3 0f 1e fa          	endbr64
    2e04:	e8 00 00 00 00       	call   2e09 <remove_subscriber+0x9>
    2e09:	48 85 ff             	test   %rdi,%rdi
    2e0c:	0f 84 b9 00 00 00    	je     2ecb <remove_subscriber+0xcb>
    2e12:	48 85 f6             	test   %rsi,%rsi
    2e15:	0f 84 b0 00 00 00    	je     2ecb <remove_subscriber+0xcb>
    2e1b:	48 b8 00 00 00 00 00 	movabs $0xdffffc0000000000,%rax
    2e22:	fc ff df 
    2e25:	55                   	push   %rbp
    2e26:	48 8d 7e 10          	lea    0x10(%rsi),%rdi
    2e2a:	48 89 fa             	mov    %rdi,%rdx
    2e2d:	48 c1 ea 03          	shr    $0x3,%rdx
    2e31:	48 89 e5             	mov    %rsp,%rbp
    2e34:	41 55                	push   %r13
    2e36:	41 54                	push   %r12
    2e38:	48 83 ec 08          	sub    $0x8,%rsp
    2e3c:	80 3c 02 00          	cmpb   $0x0,(%rdx,%rax,1)
    2e40:	0f 85 8f 00 00 00    	jne    2ed5 <remove_subscriber+0xd5>
    2e46:	4c 8b 66 10          	mov    0x10(%rsi),%r12
    2e4a:	31 c0                	xor    %eax,%eax
    2e4c:	4d 85 e4             	test   %r12,%r12
    2e4f:	74 6c                	je     2ebd <remove_subscriber+0xbd>
    2e51:	48 b8 00 00 00 00 00 	movabs $0xdffffc0000000000,%rax
    2e58:	fc ff df 
    2e5b:	48 8d 7e 08          	lea    0x8(%rsi),%rdi
    2e5f:	48 89 fa             	mov    %rdi,%rdx
    2e62:	48 c1 ea 03          	shr    $0x3,%rdx
    2e66:	80 3c 02 00          	cmpb   $0x0,(%rdx,%rax,1)
    2e6a:	0f 85 89 00 00 00    	jne    2ef9 <remove_subscriber+0xf9>
    2e70:	4c 89 e2             	mov    %r12,%rdx
    2e73:	4c 8b 6e 08          	mov    0x8(%rsi),%r13
    2e77:	48 b8 00 00 00 00 00 	movabs $0xdffffc0000000000,%rax
    2e7e:	fc ff df 
    2e81:	48 c1 ea 03          	shr    $0x3,%rdx
    2e85:	80 3c 02 00          	cmpb   $0x0,(%rdx,%rax,1)
    2e89:	75 5c                	jne    2ee7 <remove_subscriber+0xe7>
    2e8b:	4d 89 2c 24          	mov    %r13,(%r12)
    2e8f:	4d 85 ed             	test   %r13,%r13
    2e92:	74 1f                	je     2eb3 <remove_subscriber+0xb3>
    2e94:	48 b8 00 00 00 00 00 	movabs $0xdffffc0000000000,%rax
    2e9b:	fc ff df 
    2e9e:	49 8d 7d 08          	lea    0x8(%r13),%rdi
    2ea2:	48 89 fa             	mov    %rdi,%rdx
    2ea5:	48 c1 ea 03          	shr    $0x3,%rdx
    2ea9:	80 3c 02 00          	cmpb   $0x0,(%rdx,%rax,1)
    2ead:	75 5c                	jne    2f0b <remove_subscriber+0x10b>
    2eaf:	4d 89 65 08          	mov    %r12,0x8(%r13)
    2eb3:	48 c7 46 10 00 00 00 	movq   $0x0,0x10(%rsi)
    2eba:	00 
    2ebb:	31 c0                	xor    %eax,%eax
    2ebd:	48 83 c4 08          	add    $0x8,%rsp
    2ec1:	41 5c                	pop    %r12
    2ec3:	41 5d                	pop    %r13
    2ec5:	5d                   	pop    %rbp
    2ec6:	e9 00 00 00 00       	jmp    2ecb <remove_subscriber+0xcb>
    2ecb:	b8 ea ff ff ff       	mov    $0xffffffea,%eax
    2ed0:	e9 00 00 00 00       	jmp    2ed5 <remove_subscriber+0xd5>
    2ed5:	48 89 75 e8          	mov    %rsi,-0x18(%rbp)
    2ed9:	e8 00 00 00 00       	call   2ede <remove_subscriber+0xde>
    2ede:	48 8b 75 e8          	mov    -0x18(%rbp),%rsi
    2ee2:	e9 5f ff ff ff       	jmp    2e46 <remove_subscriber+0x46>
    2ee7:	4c 89 e7             	mov    %r12,%rdi
    2eea:	48 89 75 e8          	mov    %rsi,-0x18(%rbp)
    2eee:	e8 00 00 00 00       	call   2ef3 <remove_subscriber+0xf3>
    2ef3:	48 8b 75 e8          	mov    -0x18(%rbp),%rsi
    2ef7:	eb 92                	jmp    2e8b <remove_subscriber+0x8b>
    2ef9:	48 89 75 e8          	mov    %rsi,-0x18(%rbp)
    2efd:	e8 00 00 00 00       	call   2f02 <remove_subscriber+0x102>
    2f02:	48 8b 75 e8          	mov    -0x18(%rbp),%rsi
    2f06:	e9 65 ff ff ff       	jmp    2e70 <remove_subscriber+0x70>
    2f0b:	48 89 75 e8          	mov    %rsi,-0x18(%rbp)
    2f0f:	e8 00 00 00 00       	call   2f14 <remove_subscriber+0x114>
    2f14:	48 8b 75 e8          	mov    -0x18(%rbp),%rsi
    2f18:	eb 95                	jmp    2eaf <remove_subscriber+0xaf>
    2f1a:	66 0f 1f 44 00 00    	nopw   0x0(%rax,%rax,1)

0000000000002f20 <__pfx_get_subscriber_position>:
    2f20:	90                   	nop
    2f21:	90                   	nop
    2f22:	90                   	nop
    2f23:	90                   	nop
    2f24:	90                   	nop
    2f25:	90                   	nop
    2f26:	90                   	nop
    2f27:	90                   	nop
    2f28:	90                   	nop
    2f29:	90                   	nop
    2f2a:	90                   	nop
    2f2b:	90                   	nop
    2f2c:	90                   	nop
    2f2d:	90                   	nop
    2f2e:	90                   	nop
    2f2f:	90                   	nop

0000000000002f30 <get_subscriber_position>:
    2f30:	f3 0f 1e fa          	endbr64
    2f34:	e8 00 00 00 00       	call   2f39 <get_subscriber_position+0x9>
    2f39:	48 b8 00 00 00 00 00 	movabs $0xdffffc0000000000,%rax
    2f40:	fc ff df 
    2f43:	55                   	push   %rbp
    2f44:	48 89 e5             	mov    %rsp,%rbp
    2f47:	53                   	push   %rbx
    2f48:	48 89 fb             	mov    %rdi,%rbx
    2f4b:	48 83 c7 18          	add    $0x18,%rdi
    2f4f:	48 89 fa             	mov    %rdi,%rdx
    2f52:	48 c1 ea 03          	shr    $0x3,%rdx
    2f56:	80 3c 02 00          	cmpb   $0x0,(%rdx,%rax,1)
    2f5a:	75 0e                	jne    2f6a <get_subscriber_position+0x3a>
    2f5c:	48 8b 43 18          	mov    0x18(%rbx),%rax
    2f60:	48 8b 5d f8          	mov    -0x8(%rbp),%rbx
    2f64:	c9                   	leave
    2f65:	e9 00 00 00 00       	jmp    2f6a <get_subscriber_position+0x3a>
    2f6a:	e8 00 00 00 00       	call   2f6f <get_subscriber_position+0x3f>
    2f6f:	eb eb                	jmp    2f5c <get_subscriber_position+0x2c>
    2f71:	66 66 2e 0f 1f 84 00 	data16 cs nopw 0x0(%rax,%rax,1)
    2f78:	00 00 00 00 
    2f7c:	0f 1f 40 00          	nopl   0x0(%rax)

0000000000002f80 <__pfx_connect_subscriber_position>:
    2f80:	90                   	nop
    2f81:	90                   	nop
    2f82:	90                   	nop
    2f83:	90                   	nop
    2f84:	90                   	nop
    2f85:	90                   	nop
    2f86:	90                   	nop
    2f87:	90                   	nop
    2f88:	90                   	nop
    2f89:	90                   	nop
    2f8a:	90                   	nop
    2f8b:	90                   	nop
    2f8c:	90                   	nop
    2f8d:	90                   	nop
    2f8e:	90                   	nop
    2f8f:	90                   	nop

0000000000002f90 <connect_subscriber_position>:
    2f90:	f3 0f 1e fa          	endbr64
    2f94:	e8 00 00 00 00       	call   2f99 <connect_subscriber_position+0x9>
    2f99:	48 85 ff             	test   %rdi,%rdi
    2f9c:	74 3c                	je     2fda <connect_subscriber_position+0x4a>
    2f9e:	48 85 f6             	test   %rsi,%rsi
    2fa1:	74 37                	je     2fda <connect_subscriber_position+0x4a>
    2fa3:	48 b8 00 00 00 00 00 	movabs $0xdffffc0000000000,%rax
    2faa:	fc ff df 
    2fad:	55                   	push   %rbp
    2fae:	48 89 e5             	mov    %rsp,%rbp
    2fb1:	53                   	push   %rbx
    2fb2:	48 89 fb             	mov    %rdi,%rbx
    2fb5:	48 8d 7f 18          	lea    0x18(%rdi),%rdi
    2fb9:	48 89 fa             	mov    %rdi,%rdx
    2fbc:	48 c1 ea 03          	shr    $0x3,%rdx
    2fc0:	48 83 ec 08          	sub    $0x8,%rsp
    2fc4:	80 3c 02 00          	cmpb   $0x0,(%rdx,%rax,1)
    2fc8:	75 1a                	jne    2fe4 <connect_subscriber_position+0x54>
    2fca:	48 89 73 18          	mov    %rsi,0x18(%rbx)
    2fce:	31 c0                	xor    %eax,%eax
    2fd0:	48 8b 5d f8          	mov    -0x8(%rbp),%rbx
    2fd4:	c9                   	leave
    2fd5:	e9 00 00 00 00       	jmp    2fda <connect_subscriber_position+0x4a>
    2fda:	b8 ea ff ff ff       	mov    $0xffffffea,%eax
    2fdf:	e9 00 00 00 00       	jmp    2fe4 <connect_subscriber_position+0x54>
    2fe4:	48 89 75 f0          	mov    %rsi,-0x10(%rbp)
    2fe8:	e8 00 00 00 00       	call   2fed <connect_subscriber_position+0x5d>
    2fed:	48 8b 75 f0          	mov    -0x10(%rbp),%rsi
    2ff1:	eb d7                	jmp    2fca <connect_subscriber_position+0x3a>
    2ff3:	66 66 2e 0f 1f 84 00 	data16 cs nopw 0x0(%rax,%rax,1)
    2ffa:	00 00 00 00 
    2ffe:	66 90                	xchg   %ax,%ax

0000000000003000 <__pfx_disconnect_subscriber_position>:
    3000:	90                   	nop
    3001:	90                   	nop
    3002:	90                   	nop
    3003:	90                   	nop
    3004:	90                   	nop
    3005:	90                   	nop
    3006:	90                   	nop
    3007:	90                   	nop
    3008:	90                   	nop
    3009:	90                   	nop
    300a:	90                   	nop
    300b:	90                   	nop
    300c:	90                   	nop
    300d:	90                   	nop
    300e:	90                   	nop
    300f:	90                   	nop

0000000000003010 <disconnect_subscriber_position>:
    3010:	f3 0f 1e fa          	endbr64
    3014:	e8 00 00 00 00       	call   3019 <disconnect_subscriber_position+0x9>
    3019:	48 85 ff             	test   %rdi,%rdi
    301c:	74 58                	je     3076 <disconnect_subscriber_position+0x66>
    301e:	48 b8 00 00 00 00 00 	movabs $0xdffffc0000000000,%rax
    3025:	fc ff df 
    3028:	55                   	push   %rbp
    3029:	48 89 e5             	mov    %rsp,%rbp
    302c:	41 54                	push   %r12
    302e:	4c 8d 67 18          	lea    0x18(%rdi),%r12
    3032:	4c 89 e2             	mov    %r12,%rdx
    3035:	53                   	push   %rbx
    3036:	48 89 fb             	mov    %rdi,%rbx
    3039:	48 c1 ea 03          	shr    $0x3,%rdx
    303d:	80 3c 02 00          	cmpb   $0x0,(%rdx,%rax,1)
    3041:	75 47                	jne    308a <disconnect_subscriber_position+0x7a>
    3043:	48 8b 7b 18          	mov    0x18(%rbx),%rdi
    3047:	e8 00 00 00 00       	call   304c <disconnect_subscriber_position+0x3c>
    304c:	4c 89 e2             	mov    %r12,%rdx
    304f:	48 b8 00 00 00 00 00 	movabs $0xdffffc0000000000,%rax
    3056:	fc ff df 
    3059:	48 c1 ea 03          	shr    $0x3,%rdx
    305d:	80 3c 02 00          	cmpb   $0x0,(%rdx,%rax,1)
    3061:	75 1d                	jne    3080 <disconnect_subscriber_position+0x70>
    3063:	48 c7 43 18 00 00 00 	movq   $0x0,0x18(%rbx)
    306a:	00 
    306b:	31 c0                	xor    %eax,%eax
    306d:	5b                   	pop    %rbx
    306e:	41 5c                	pop    %r12
    3070:	5d                   	pop    %rbp
    3071:	e9 00 00 00 00       	jmp    3076 <disconnect_subscriber_position+0x66>
    3076:	b8 ea ff ff ff       	mov    $0xffffffea,%eax
    307b:	e9 00 00 00 00       	jmp    3080 <disconnect_subscriber_position+0x70>
    3080:	4c 89 e7             	mov    %r12,%rdi
    3083:	e8 00 00 00 00       	call   3088 <disconnect_subscriber_position+0x78>
    3088:	eb d9                	jmp    3063 <disconnect_subscriber_position+0x53>
    308a:	4c 89 e7             	mov    %r12,%rdi
    308d:	e8 00 00 00 00       	call   3092 <disconnect_subscriber_position+0x82>
    3092:	eb af                	jmp    3043 <disconnect_subscriber_position+0x33>
    3094:	66 66 2e 0f 1f 84 00 	data16 cs nopw 0x0(%rax,%rax,1)
    309b:	00 00 00 00 
    309f:	90                   	nop

00000000000030a0 <__pfx_init_subscriber_collection>:
    30a0:	90                   	nop
    30a1:	90                   	nop
    30a2:	90                   	nop
    30a3:	90                   	nop
    30a4:	90                   	nop
    30a5:	90                   	nop
    30a6:	90                   	nop
    30a7:	90                   	nop
    30a8:	90                   	nop
    30a9:	90                   	nop
    30aa:	90                   	nop
    30ab:	90                   	nop
    30ac:	90                   	nop
    30ad:	90                   	nop
    30ae:	90                   	nop
    30af:	90                   	nop

00000000000030b0 <init_subscriber_collection>:
    30b0:	f3 0f 1e fa          	endbr64
    30b4:	e8 00 00 00 00       	call   30b9 <init_subscriber_collection+0x9>
    30b9:	48 85 ff             	test   %rdi,%rdi
    30bc:	74 45                	je     3103 <init_subscriber_collection+0x53>
    30be:	55                   	push   %rbp
    30bf:	48 89 e5             	mov    %rsp,%rbp
    30c2:	41 54                	push   %r12
    30c4:	4c 8d 67 40          	lea    0x40(%rdi),%r12
    30c8:	53                   	push   %rbx
    30c9:	48 bb 00 00 00 00 00 	movabs $0xdffffc0000000000,%rbx
    30d0:	fc ff df 
    30d3:	48 83 ec 08          	sub    $0x8,%rsp
    30d7:	48 89 f8             	mov    %rdi,%rax
    30da:	48 c1 e8 03          	shr    $0x3,%rax
    30de:	80 3c 18 00          	cmpb   $0x0,(%rax,%rbx,1)
    30e2:	75 29                	jne    310d <init_subscriber_collection+0x5d>
    30e4:	48 c7 07 00 00 00 00 	movq   $0x0,(%rdi)
    30eb:	48 83 c7 08          	add    $0x8,%rdi
    30ef:	4c 39 e7             	cmp    %r12,%rdi
    30f2:	75 e3                	jne    30d7 <init_subscriber_collection+0x27>
    30f4:	48 83 c4 08          	add    $0x8,%rsp
    30f8:	31 c0                	xor    %eax,%eax
    30fa:	5b                   	pop    %rbx
    30fb:	41 5c                	pop    %r12
    30fd:	5d                   	pop    %rbp
    30fe:	e9 00 00 00 00       	jmp    3103 <init_subscriber_collection+0x53>
    3103:	b8 ea ff ff ff       	mov    $0xffffffea,%eax
    3108:	e9 00 00 00 00       	jmp    310d <init_subscriber_collection+0x5d>
    310d:	48 89 7d e8          	mov    %rdi,-0x18(%rbp)
    3111:	e8 00 00 00 00       	call   3116 <init_subscriber_collection+0x66>
    3116:	48 8b 7d e8          	mov    -0x18(%rbp),%rdi
    311a:	eb c8                	jmp    30e4 <init_subscriber_collection+0x34>
    311c:	0f 1f 40 00          	nopl   0x0(%rax)

0000000000003120 <__pfx_clear_subscriber_collection>:
    3120:	90                   	nop
    3121:	90                   	nop
    3122:	90                   	nop
    3123:	90                   	nop
    3124:	90                   	nop
    3125:	90                   	nop
    3126:	90                   	nop
    3127:	90                   	nop
    3128:	90                   	nop
    3129:	90                   	nop
    312a:	90                   	nop
    312b:	90                   	nop
    312c:	90                   	nop
    312d:	90                   	nop
    312e:	90                   	nop
    312f:	90                   	nop

0000000000003130 <clear_subscriber_collection>:
    3130:	f3 0f 1e fa          	endbr64
    3134:	e8 00 00 00 00       	call   3139 <clear_subscriber_collection+0x9>
    3139:	48 85 ff             	test   %rdi,%rdi
    313c:	0f 84 47 01 00 00    	je     3289 <clear_subscriber_collection+0x159>
    3142:	55                   	push   %rbp
    3143:	48 89 e5             	mov    %rsp,%rbp
    3146:	41 57                	push   %r15
    3148:	41 56                	push   %r14
    314a:	49 be 00 00 00 00 00 	movabs $0xdffffc0000000000,%r14
    3151:	fc ff df 
    3154:	41 55                	push   %r13
    3156:	49 89 fd             	mov    %rdi,%r13
    3159:	41 54                	push   %r12
    315b:	53                   	push   %rbx
    315c:	48 83 ec 08          	sub    $0x8,%rsp
    3160:	c7 45 d4 00 00 00 00 	movl   $0x0,-0x2c(%rbp)
    3167:	48 63 75 d4          	movslq -0x2c(%rbp),%rsi
    316b:	48 83 fe 07          	cmp    $0x7,%rsi
    316f:	0f 87 2b 01 00 00    	ja     32a0 <clear_subscriber_collection+0x170>
    3175:	4c 89 ea             	mov    %r13,%rdx
    3178:	48 c1 ea 03          	shr    $0x3,%rdx
    317c:	42 80 3c 32 00       	cmpb   $0x0,(%rdx,%r14,1)
    3181:	0f 85 0c 01 00 00    	jne    3293 <clear_subscriber_collection+0x163>
    3187:	4d 8b 65 00          	mov    0x0(%r13),%r12
    318b:	4d 85 e4             	test   %r12,%r12
    318e:	0f 84 a4 00 00 00    	je     3238 <clear_subscriber_collection+0x108>
    3194:	49 83 ec 08          	sub    $0x8,%r12
    3198:	75 12                	jne    31ac <clear_subscriber_collection+0x7c>
    319a:	e9 99 00 00 00       	jmp    3238 <clear_subscriber_collection+0x108>
    319f:	48 83 eb 08          	sub    $0x8,%rbx
    31a3:	49 89 dc             	mov    %rbx,%r12
    31a6:	0f 84 8c 00 00 00    	je     3238 <clear_subscriber_collection+0x108>
    31ac:	49 8d 7c 24 08       	lea    0x8(%r12),%rdi
    31b1:	48 89 fa             	mov    %rdi,%rdx
    31b4:	48 c1 ea 03          	shr    $0x3,%rdx
    31b8:	42 80 3c 32 00       	cmpb   $0x0,(%rdx,%r14,1)
    31bd:	0f 85 9e 00 00 00    	jne    3261 <clear_subscriber_collection+0x131>
    31c3:	49 8d 7c 24 10       	lea    0x10(%r12),%rdi
    31c8:	49 8b 5c 24 08       	mov    0x8(%r12),%rbx
    31cd:	48 89 fa             	mov    %rdi,%rdx
    31d0:	48 c1 ea 03          	shr    $0x3,%rdx
    31d4:	42 80 3c 32 00       	cmpb   $0x0,(%rdx,%r14,1)
    31d9:	0f 85 8c 00 00 00    	jne    326b <clear_subscriber_collection+0x13b>
    31df:	4d 8b 7c 24 10       	mov    0x10(%r12),%r15
    31e4:	4d 85 ff             	test   %r15,%r15
    31e7:	74 3e                	je     3227 <clear_subscriber_collection+0xf7>
    31e9:	4c 89 fa             	mov    %r15,%rdx
    31ec:	48 c1 ea 03          	shr    $0x3,%rdx
    31f0:	42 80 3c 32 00       	cmpb   $0x0,(%rdx,%r14,1)
    31f5:	75 7e                	jne    3275 <clear_subscriber_collection+0x145>
    31f7:	49 89 1f             	mov    %rbx,(%r15)
    31fa:	48 85 db             	test   %rbx,%rbx
    31fd:	74 16                	je     3215 <clear_subscriber_collection+0xe5>
    31ff:	48 8d 7b 08          	lea    0x8(%rbx),%rdi
    3203:	48 89 fa             	mov    %rdi,%rdx
    3206:	48 c1 ea 03          	shr    $0x3,%rdx
    320a:	42 80 3c 32 00       	cmpb   $0x0,(%rdx,%r14,1)
    320f:	75 71                	jne    3282 <clear_subscriber_collection+0x152>
    3211:	4c 89 7b 08          	mov    %r15,0x8(%rbx)
    3215:	49 c7 44 24 08 00 00 	movq   $0x0,0x8(%r12)
    321c:	00 00 
    321e:	49 c7 44 24 10 00 00 	movq   $0x0,0x10(%r12)
    3225:	00 00 
    3227:	4c 89 e7             	mov    %r12,%rdi
    322a:	e8 00 00 00 00       	call   322f <clear_subscriber_collection+0xff>
    322f:	48 85 db             	test   %rbx,%rbx
    3232:	0f 85 67 ff ff ff    	jne    319f <clear_subscriber_collection+0x6f>
    3238:	83 45 d4 01          	addl   $0x1,-0x2c(%rbp)
    323c:	8b 45 d4             	mov    -0x2c(%rbp),%eax
    323f:	49 83 c5 08          	add    $0x8,%r13
    3243:	83 f8 08             	cmp    $0x8,%eax
    3246:	0f 85 1b ff ff ff    	jne    3167 <clear_subscriber_collection+0x37>
    324c:	48 83 c4 08          	add    $0x8,%rsp
    3250:	31 c0                	xor    %eax,%eax
    3252:	5b                   	pop    %rbx
    3253:	41 5c                	pop    %r12
    3255:	41 5d                	pop    %r13
    3257:	41 5e                	pop    %r14
    3259:	41 5f                	pop    %r15
    325b:	5d                   	pop    %rbp
    325c:	e9 00 00 00 00       	jmp    3261 <clear_subscriber_collection+0x131>
    3261:	e8 00 00 00 00       	call   3266 <clear_subscriber_collection+0x136>
    3266:	e9 58 ff ff ff       	jmp    31c3 <clear_subscriber_collection+0x93>
    326b:	e8 00 00 00 00       	call   3270 <clear_subscriber_collection+0x140>
    3270:	e9 6a ff ff ff       	jmp    31df <clear_subscriber_collection+0xaf>
    3275:	4c 89 ff             	mov    %r15,%rdi
    3278:	e8 00 00 00 00       	call   327d <clear_subscriber_collection+0x14d>
    327d:	e9 75 ff ff ff       	jmp    31f7 <clear_subscriber_collection+0xc7>
    3282:	e8 00 00 00 00       	call   3287 <clear_subscriber_collection+0x157>
    3287:	eb 88                	jmp    3211 <clear_subscriber_collection+0xe1>
    3289:	b8 ea ff ff ff       	mov    $0xffffffea,%eax
    328e:	e9 00 00 00 00       	jmp    3293 <clear_subscriber_collection+0x163>
    3293:	4c 89 ef             	mov    %r13,%rdi
    3296:	e8 00 00 00 00       	call   329b <clear_subscriber_collection+0x16b>
    329b:	e9 e7 fe ff ff       	jmp    3187 <clear_subscriber_collection+0x57>
    32a0:	48 c7 c7 00 00 00 00 	mov    $0x0,%rdi
    32a7:	e8 00 00 00 00       	call   32ac <clear_subscriber_collection+0x17c>
    32ac:	e9 c4 fe ff ff       	jmp    3175 <clear_subscriber_collection+0x45>
    32b1:	66 2e 0f 1f 84 00 00 	cs nopw 0x0(%rax,%rax,1)
    32b8:	00 00 00 
    32bb:	0f 1f 44 00 00       	nopl   0x0(%rax,%rax,1)

00000000000032c0 <__pfx_create_publisher_struct>:
    32c0:	90                   	nop
    32c1:	90                   	nop
    32c2:	90                   	nop
    32c3:	90                   	nop
    32c4:	90                   	nop
    32c5:	90                   	nop
    32c6:	90                   	nop
    32c7:	90                   	nop
    32c8:	90                   	nop
    32c9:	90                   	nop
    32ca:	90                   	nop
    32cb:	90                   	nop
    32cc:	90                   	nop
    32cd:	90                   	nop
    32ce:	90                   	nop
    32cf:	90                   	nop

00000000000032d0 <create_publisher_struct>:
    32d0:	f3 0f 1e fa          	endbr64
    32d4:	e8 00 00 00 00       	call   32d9 <create_publisher_struct+0x9>
    32d9:	85 ff                	test   %edi,%edi
    32db:	0f 88 a7 01 00 00    	js     3488 <create_publisher_struct+0x1b8>
    32e1:	55                   	push   %rbp
    32e2:	48 89 e5             	mov    %rsp,%rbp
    32e5:	41 57                	push   %r15
    32e7:	41 56                	push   %r14
    32e9:	41 55                	push   %r13
    32eb:	41 54                	push   %r12
    32ed:	49 89 f4             	mov    %rsi,%r12
    32f0:	53                   	push   %rbx
    32f1:	48 85 f6             	test   %rsi,%rsi
    32f4:	0f 84 47 01 00 00    	je     3441 <create_publisher_struct+0x171>
    32fa:	65 48 8b 1d 00 00 00 	mov    %gs:0x0(%rip),%rbx        # 3302 <create_publisher_struct+0x32>
    3301:	00 
    3302:	48 b8 00 00 00 00 00 	movabs $0xdffffc0000000000,%rax
    3309:	fc ff df 
    330c:	41 89 fd             	mov    %edi,%r13d
    330f:	48 8d 7b 38          	lea    0x38(%rbx),%rdi
    3313:	48 89 fa             	mov    %rdi,%rdx
    3316:	48 c1 ea 03          	shr    $0x3,%rdx
    331a:	80 3c 02 00          	cmpb   $0x0,(%rdx,%rax,1)
    331e:	0f 85 2b 01 00 00    	jne    344f <create_publisher_struct+0x17f>
    3324:	48 b8 00 00 00 00 00 	movabs $0xdffffc0000000000,%rax
    332b:	fc ff df 
    332e:	4c 8b 7b 38          	mov    0x38(%rbx),%r15
    3332:	65 48 8b 1d 00 00 00 	mov    %gs:0x0(%rip),%rbx        # 333a <create_publisher_struct+0x6a>
    3339:	00 
    333a:	48 8d 7b 38          	lea    0x38(%rbx),%rdi
    333e:	48 89 fa             	mov    %rdi,%rdx
    3341:	48 c1 ea 03          	shr    $0x3,%rdx
    3345:	80 3c 02 00          	cmpb   $0x0,(%rdx,%rax,1)
    3349:	0f 85 28 01 00 00    	jne    3477 <create_publisher_struct+0x1a7>
    334f:	48 c7 43 38 00 00 00 	movq   $0x0,0x38(%rbx)
    3356:	00 
    3357:	bf 30 00 00 00       	mov    $0x30,%edi
    335c:	65 4c 8b 35 00 00 00 	mov    %gs:0x0(%rip),%r14        # 3364 <create_publisher_struct+0x94>
    3363:	00 
    3364:	e8 00 00 00 00       	call   3369 <create_publisher_struct+0x99>
    3369:	49 8d 7e 38          	lea    0x38(%r14),%rdi
    336d:	48 89 fa             	mov    %rdi,%rdx
    3370:	48 89 c3             	mov    %rax,%rbx
    3373:	48 b8 00 00 00 00 00 	movabs $0xdffffc0000000000,%rax
    337a:	fc ff df 
    337d:	48 c1 ea 03          	shr    $0x3,%rdx
    3381:	80 3c 02 00          	cmpb   $0x0,(%rdx,%rax,1)
    3385:	0f 85 e2 00 00 00    	jne    346d <create_publisher_struct+0x19d>
    338b:	4d 89 7e 38          	mov    %r15,0x38(%r14)
    338f:	48 85 db             	test   %rbx,%rbx
    3392:	0f 84 e9 00 00 00    	je     3481 <create_publisher_struct+0x1b1>
    3398:	48 b8 00 00 00 00 00 	movabs $0xdffffc0000000000,%rax
    339f:	fc ff df 
    33a2:	48 8d 7b 20          	lea    0x20(%rbx),%rdi
    33a6:	48 89 fa             	mov    %rdi,%rdx
    33a9:	48 c1 ea 03          	shr    $0x3,%rdx
    33ad:	80 3c 02 00          	cmpb   $0x0,(%rdx,%rax,1)
    33b1:	0f 85 ac 00 00 00    	jne    3463 <create_publisher_struct+0x193>
    33b7:	48 8d 7b 28          	lea    0x28(%rbx),%rdi
    33bb:	48 c7 43 20 00 00 00 	movq   $0x0,0x20(%rbx)
    33c2:	00 
    33c3:	48 b8 00 00 00 00 00 	movabs $0xdffffc0000000000,%rax
    33ca:	fc ff df 
    33cd:	48 89 fa             	mov    %rdi,%rdx
    33d0:	48 c1 ea 03          	shr    $0x3,%rdx
    33d4:	80 3c 02 00          	cmpb   $0x0,(%rdx,%rax,1)
    33d8:	75 6e                	jne    3448 <create_publisher_struct+0x178>
    33da:	48 c7 43 28 00 00 00 	movq   $0x0,0x28(%rbx)
    33e1:	00 
    33e2:	48 8d 7b 08          	lea    0x8(%rbx),%rdi
    33e6:	e8 00 00 00 00       	call   33eb <create_publisher_struct+0x11b>
    33eb:	48 89 da             	mov    %rbx,%rdx
    33ee:	48 b8 00 00 00 00 00 	movabs $0xdffffc0000000000,%rax
    33f5:	fc ff df 
    33f8:	48 c1 ea 03          	shr    $0x3,%rdx
    33fc:	0f b6 04 02          	movzbl (%rdx,%rax,1),%eax
    3400:	84 c0                	test   %al,%al
    3402:	74 04                	je     3408 <create_publisher_struct+0x138>
    3404:	3c 03                	cmp    $0x3,%al
    3406:	7e 2f                	jle    3437 <create_publisher_struct+0x167>
    3408:	48 b8 00 00 00 00 00 	movabs $0xdffffc0000000000,%rax
    340f:	fc ff df 
    3412:	4c 89 e2             	mov    %r12,%rdx
    3415:	44 89 2b             	mov    %r13d,(%rbx)
    3418:	48 c1 ea 03          	shr    $0x3,%rdx
    341c:	80 3c 02 00          	cmpb   $0x0,(%rdx,%rax,1)
    3420:	75 37                	jne    3459 <create_publisher_struct+0x189>
    3422:	49 89 1c 24          	mov    %rbx,(%r12)
    3426:	31 c0                	xor    %eax,%eax
    3428:	5b                   	pop    %rbx
    3429:	41 5c                	pop    %r12
    342b:	41 5d                	pop    %r13
    342d:	41 5e                	pop    %r14
    342f:	41 5f                	pop    %r15
    3431:	5d                   	pop    %rbp
    3432:	e9 00 00 00 00       	jmp    3437 <create_publisher_struct+0x167>
    3437:	48 89 df             	mov    %rbx,%rdi
    343a:	e8 00 00 00 00       	call   343f <create_publisher_struct+0x16f>
    343f:	eb c7                	jmp    3408 <create_publisher_struct+0x138>
    3441:	b8 ea ff ff ff       	mov    $0xffffffea,%eax
    3446:	eb e0                	jmp    3428 <create_publisher_struct+0x158>
    3448:	e8 00 00 00 00       	call   344d <create_publisher_struct+0x17d>
    344d:	eb 8b                	jmp    33da <create_publisher_struct+0x10a>
    344f:	e8 00 00 00 00       	call   3454 <create_publisher_struct+0x184>
    3454:	e9 cb fe ff ff       	jmp    3324 <create_publisher_struct+0x54>
    3459:	4c 89 e7             	mov    %r12,%rdi
    345c:	e8 00 00 00 00       	call   3461 <create_publisher_struct+0x191>
    3461:	eb bf                	jmp    3422 <create_publisher_struct+0x152>
    3463:	e8 00 00 00 00       	call   3468 <create_publisher_struct+0x198>
    3468:	e9 4a ff ff ff       	jmp    33b7 <create_publisher_struct+0xe7>
    346d:	e8 00 00 00 00       	call   3472 <create_publisher_struct+0x1a2>
    3472:	e9 14 ff ff ff       	jmp    338b <create_publisher_struct+0xbb>
    3477:	e8 00 00 00 00       	call   347c <create_publisher_struct+0x1ac>
    347c:	e9 ce fe ff ff       	jmp    334f <create_publisher_struct+0x7f>
    3481:	b8 f4 ff ff ff       	mov    $0xfffffff4,%eax
    3486:	eb a0                	jmp    3428 <create_publisher_struct+0x158>
    3488:	b8 ea ff ff ff       	mov    $0xffffffea,%eax
    348d:	e9 00 00 00 00       	jmp    3492 <create_publisher_struct+0x1c2>
    3492:	66 66 2e 0f 1f 84 00 	data16 cs nopw 0x0(%rax,%rax,1)
    3499:	00 00 00 00 
    349d:	0f 1f 00             	nopl   (%rax)

00000000000034a0 <__pfx_delete_publisher_struct>:
    34a0:	90                   	nop
    34a1:	90                   	nop
    34a2:	90                   	nop
    34a3:	90                   	nop
    34a4:	90                   	nop
    34a5:	90                   	nop
    34a6:	90                   	nop
    34a7:	90                   	nop
    34a8:	90                   	nop
    34a9:	90                   	nop
    34aa:	90                   	nop
    34ab:	90                   	nop
    34ac:	90                   	nop
    34ad:	90                   	nop
    34ae:	90                   	nop
    34af:	90                   	nop

00000000000034b0 <delete_publisher_struct>:
    34b0:	f3 0f 1e fa          	endbr64
    34b4:	e8 00 00 00 00       	call   34b9 <delete_publisher_struct+0x9>
    34b9:	48 85 ff             	test   %rdi,%rdi
    34bc:	74 11                	je     34cf <delete_publisher_struct+0x1f>
    34be:	55                   	push   %rbp
    34bf:	48 89 e5             	mov    %rsp,%rbp
    34c2:	e8 00 00 00 00       	call   34c7 <delete_publisher_struct+0x17>
    34c7:	31 c0                	xor    %eax,%eax
    34c9:	5d                   	pop    %rbp
    34ca:	e9 00 00 00 00       	jmp    34cf <delete_publisher_struct+0x1f>
    34cf:	b8 ea ff ff ff       	mov    $0xffffffea,%eax
    34d4:	e9 00 00 00 00       	jmp    34d9 <delete_publisher_struct+0x29>
    34d9:	0f 1f 80 00 00 00 00 	nopl   0x0(%rax)

00000000000034e0 <__pfx_find_publisher>:
    34e0:	90                   	nop
    34e1:	90                   	nop
    34e2:	90                   	nop
    34e3:	90                   	nop
    34e4:	90                   	nop
    34e5:	90                   	nop
    34e6:	90                   	nop
    34e7:	90                   	nop
    34e8:	90                   	nop
    34e9:	90                   	nop
    34ea:	90                   	nop
    34eb:	90                   	nop
    34ec:	90                   	nop
    34ed:	90                   	nop
    34ee:	90                   	nop
    34ef:	90                   	nop

00000000000034f0 <find_publisher>:
    34f0:	f3 0f 1e fa          	endbr64
    34f4:	e8 00 00 00 00       	call   34f9 <find_publisher+0x9>
    34f9:	55                   	push   %rbp
    34fa:	48 85 ff             	test   %rdi,%rdi
    34fd:	0f 94 c0             	sete   %al
    3500:	48 85 d2             	test   %rdx,%rdx
    3503:	48 89 e5             	mov    %rsp,%rbp
    3506:	41 56                	push   %r14
    3508:	41 55                	push   %r13
    350a:	41 54                	push   %r12
    350c:	49 89 d4             	mov    %rdx,%r12
    350f:	0f 94 c2             	sete   %dl
    3512:	08 d0                	or     %dl,%al
    3514:	53                   	push   %rbx
    3515:	0f 85 e1 01 00 00    	jne    36fc <find_publisher+0x20c>
    351b:	41 89 f6             	mov    %esi,%r14d
    351e:	85 f6                	test   %esi,%esi
    3520:	0f 88 d6 01 00 00    	js     36fc <find_publisher+0x20c>
    3526:	49 89 fd             	mov    %rdi,%r13
    3529:	e8 00 00 00 00       	call   352e <find_publisher+0x3e>
    352e:	31 d2                	xor    %edx,%edx
    3530:	45 31 c9             	xor    %r9d,%r9d
    3533:	45 31 c0             	xor    %r8d,%r8d
    3536:	48 8d 05 00 00 00 00 	lea    0x0(%rip),%rax        # 353d <find_publisher+0x4d>
    353d:	50                   	push   %rax
    353e:	b9 02 00 00 00       	mov    $0x2,%ecx
    3543:	31 f6                	xor    %esi,%esi
    3545:	48 c7 c7 00 00 00 00 	mov    $0x0,%rdi
    354c:	e8 00 00 00 00       	call   3551 <find_publisher+0x61>
    3551:	e8 00 00 00 00       	call   3556 <find_publisher+0x66>
    3556:	5a                   	pop    %rdx
    3557:	85 c0                	test   %eax,%eax
    3559:	0f 85 46 01 00 00    	jne    36a5 <find_publisher+0x1b5>
    355f:	41 69 de 47 86 c8 61 	imul   $0x61c88647,%r14d,%ebx
    3566:	48 b8 00 00 00 00 00 	movabs $0xdffffc0000000000,%rax
    356d:	fc ff df 
    3570:	c1 eb 1d             	shr    $0x1d,%ebx
    3573:	49 8d 7c dd 00       	lea    0x0(%r13,%rbx,8),%rdi
    3578:	48 89 fa             	mov    %rdi,%rdx
    357b:	48 c1 ea 03          	shr    $0x3,%rdx
    357f:	80 3c 02 00          	cmpb   $0x0,(%rdx,%rax,1)
    3583:	0f 85 92 01 00 00    	jne    371b <find_publisher+0x22b>
    3589:	49 8b 5c dd 00       	mov    0x0(%r13,%rbx,8),%rbx
    358e:	48 85 db             	test   %rbx,%rbx
    3591:	0f 84 d3 00 00 00    	je     366a <find_publisher+0x17a>
    3597:	48 83 eb 20          	sub    $0x20,%rbx
    359b:	0f 84 c9 00 00 00    	je     366a <find_publisher+0x17a>
    35a1:	49 bd 00 00 00 00 00 	movabs $0xdffffc0000000000,%r13
    35a8:	fc ff df 
    35ab:	eb 2d                	jmp    35da <find_publisher+0xea>
    35ad:	48 8d 7b 20          	lea    0x20(%rbx),%rdi
    35b1:	48 89 f8             	mov    %rdi,%rax
    35b4:	48 c1 e8 03          	shr    $0x3,%rax
    35b8:	42 80 3c 28 00       	cmpb   $0x0,(%rax,%r13,1)
    35bd:	0f 85 41 01 00 00    	jne    3704 <find_publisher+0x214>
    35c3:	48 8b 5b 20          	mov    0x20(%rbx),%rbx
    35c7:	48 85 db             	test   %rbx,%rbx
    35ca:	0f 84 9a 00 00 00    	je     366a <find_publisher+0x17a>
    35d0:	48 83 eb 20          	sub    $0x20,%rbx
    35d4:	0f 84 90 00 00 00    	je     366a <find_publisher+0x17a>
    35da:	48 89 d8             	mov    %rbx,%rax
    35dd:	48 c1 e8 03          	shr    $0x3,%rax
    35e1:	42 0f b6 04 28       	movzbl (%rax,%r13,1),%eax
    35e6:	84 c0                	test   %al,%al
    35e8:	74 08                	je     35f2 <find_publisher+0x102>
    35ea:	3c 03                	cmp    $0x3,%al
    35ec:	0f 8e 1c 01 00 00    	jle    370e <find_publisher+0x21e>
    35f2:	44 39 33             	cmp    %r14d,(%rbx)
    35f5:	75 b6                	jne    35ad <find_publisher+0xbd>
    35f7:	48 b8 00 00 00 00 00 	movabs $0xdffffc0000000000,%rax
    35fe:	fc ff df 
    3601:	4c 89 e2             	mov    %r12,%rdx
    3604:	48 c1 ea 03          	shr    $0x3,%rdx
    3608:	80 3c 02 00          	cmpb   $0x0,(%rdx,%rax,1)
    360c:	0f 85 13 01 00 00    	jne    3725 <find_publisher+0x235>
    3612:	49 89 1c 24          	mov    %rbx,(%r12)
    3616:	45 31 e4             	xor    %r12d,%r12d
    3619:	e8 00 00 00 00       	call   361e <find_publisher+0x12e>
    361e:	85 c0                	test   %eax,%eax
    3620:	74 57                	je     3679 <find_publisher+0x189>
    3622:	e8 00 00 00 00       	call   3627 <find_publisher+0x137>
    3627:	84 c0                	test   %al,%al
    3629:	75 4e                	jne    3679 <find_publisher+0x189>
    362b:	e8 00 00 00 00       	call   3630 <find_publisher+0x140>
    3630:	85 c0                	test   %eax,%eax
    3632:	74 45                	je     3679 <find_publisher+0x189>
    3634:	0f b6 1d 00 00 00 00 	movzbl 0x0(%rip),%ebx        # 363b <find_publisher+0x14b>
    363b:	80 fb 01             	cmp    $0x1,%bl
    363e:	0f 87 00 00 00 00    	ja     3644 <find_publisher+0x154>
    3644:	83 e3 01             	and    $0x1,%ebx
    3647:	75 30                	jne    3679 <find_publisher+0x189>
    3649:	48 c7 c2 00 00 00 00 	mov    $0x0,%rdx
    3650:	be 6e 03 00 00       	mov    $0x36e,%esi
    3655:	48 c7 c7 00 00 00 00 	mov    $0x0,%rdi
    365c:	c6 05 00 00 00 00 01 	movb   $0x1,0x0(%rip)        # 3663 <find_publisher+0x173>
    3663:	e8 00 00 00 00       	call   3668 <find_publisher+0x178>
    3668:	eb 0f                	jmp    3679 <find_publisher+0x189>
    366a:	41 bc fe ff ff ff    	mov    $0xfffffffe,%r12d
    3670:	e8 00 00 00 00       	call   3675 <find_publisher+0x185>
    3675:	85 c0                	test   %eax,%eax
    3677:	75 a9                	jne    3622 <find_publisher+0x132>
    3679:	48 c7 c7 00 00 00 00 	mov    $0x0,%rdi
    3680:	48 8d 35 00 00 00 00 	lea    0x0(%rip),%rsi        # 3687 <find_publisher+0x197>
    3687:	e8 00 00 00 00       	call   368c <find_publisher+0x19c>
    368c:	e8 00 00 00 00       	call   3691 <find_publisher+0x1a1>
    3691:	48 8d 65 e0          	lea    -0x20(%rbp),%rsp
    3695:	44 89 e0             	mov    %r12d,%eax
    3698:	5b                   	pop    %rbx
    3699:	41 5c                	pop    %r12
    369b:	41 5d                	pop    %r13
    369d:	41 5e                	pop    %r14
    369f:	5d                   	pop    %rbp
    36a0:	e9 00 00 00 00       	jmp    36a5 <find_publisher+0x1b5>
    36a5:	e8 00 00 00 00       	call   36aa <find_publisher+0x1ba>
    36aa:	84 c0                	test   %al,%al
    36ac:	0f 85 ad fe ff ff    	jne    355f <find_publisher+0x6f>
    36b2:	e8 00 00 00 00       	call   36b7 <find_publisher+0x1c7>
    36b7:	85 c0                	test   %eax,%eax
    36b9:	0f 84 a0 fe ff ff    	je     355f <find_publisher+0x6f>
    36bf:	0f b6 1d 00 00 00 00 	movzbl 0x0(%rip),%ebx        # 36c6 <find_publisher+0x1d6>
    36c6:	80 fb 01             	cmp    $0x1,%bl
    36c9:	0f 87 00 00 00 00    	ja     36cf <find_publisher+0x1df>
    36cf:	83 e3 01             	and    $0x1,%ebx
    36d2:	0f 85 87 fe ff ff    	jne    355f <find_publisher+0x6f>
    36d8:	48 c7 c2 00 00 00 00 	mov    $0x0,%rdx
    36df:	be 52 03 00 00       	mov    $0x352,%esi
    36e4:	48 c7 c7 00 00 00 00 	mov    $0x0,%rdi
    36eb:	c6 05 00 00 00 00 01 	movb   $0x1,0x0(%rip)        # 36f2 <find_publisher+0x202>
    36f2:	e8 00 00 00 00       	call   36f7 <find_publisher+0x207>
    36f7:	e9 63 fe ff ff       	jmp    355f <find_publisher+0x6f>
    36fc:	41 bc ea ff ff ff    	mov    $0xffffffea,%r12d
    3702:	eb 8d                	jmp    3691 <find_publisher+0x1a1>
    3704:	e8 00 00 00 00       	call   3709 <find_publisher+0x219>
    3709:	e9 b5 fe ff ff       	jmp    35c3 <find_publisher+0xd3>
    370e:	48 89 df             	mov    %rbx,%rdi
    3711:	e8 00 00 00 00       	call   3716 <find_publisher+0x226>
    3716:	e9 d7 fe ff ff       	jmp    35f2 <find_publisher+0x102>
    371b:	e8 00 00 00 00       	call   3720 <find_publisher+0x230>
    3720:	e9 64 fe ff ff       	jmp    3589 <find_publisher+0x99>
    3725:	4c 89 e7             	mov    %r12,%rdi
    3728:	e8 00 00 00 00       	call   372d <find_publisher+0x23d>
    372d:	e9 e0 fe ff ff       	jmp    3612 <find_publisher+0x122>
    3732:	66 66 2e 0f 1f 84 00 	data16 cs nopw 0x0(%rax,%rax,1)
    3739:	00 00 00 00 
    373d:	0f 1f 00             	nopl   (%rax)

0000000000003740 <__pfx_add_publisher>:
    3740:	90                   	nop
    3741:	90                   	nop
    3742:	90                   	nop
    3743:	90                   	nop
    3744:	90                   	nop
    3745:	90                   	nop
    3746:	90                   	nop
    3747:	90                   	nop
    3748:	90                   	nop
    3749:	90                   	nop
    374a:	90                   	nop
    374b:	90                   	nop
    374c:	90                   	nop
    374d:	90                   	nop
    374e:	90                   	nop
    374f:	90                   	nop

0000000000003750 <add_publisher>:
    3750:	f3 0f 1e fa          	endbr64
    3754:	e8 00 00 00 00       	call   3759 <add_publisher+0x9>
    3759:	48 85 ff             	test   %rdi,%rdi
    375c:	0f 84 1e 01 00 00    	je     3880 <add_publisher+0x130>
    3762:	48 85 f6             	test   %rsi,%rsi
    3765:	0f 84 15 01 00 00    	je     3880 <add_publisher+0x130>
    376b:	48 b8 00 00 00 00 00 	movabs $0xdffffc0000000000,%rax
    3772:	fc ff df 
    3775:	55                   	push   %rbp
    3776:	48 89 f2             	mov    %rsi,%rdx
    3779:	48 c1 ea 03          	shr    $0x3,%rdx
    377d:	48 89 e5             	mov    %rsp,%rbp
    3780:	41 57                	push   %r15
    3782:	41 56                	push   %r14
    3784:	41 55                	push   %r13
    3786:	49 89 fd             	mov    %rdi,%r13
    3789:	41 54                	push   %r12
    378b:	48 83 ec 08          	sub    $0x8,%rsp
    378f:	0f b6 04 02          	movzbl (%rdx,%rax,1),%eax
    3793:	84 c0                	test   %al,%al
    3795:	74 08                	je     379f <add_publisher+0x4f>
    3797:	3c 03                	cmp    $0x3,%al
    3799:	0f 8e cc 00 00 00    	jle    386b <add_publisher+0x11b>
    379f:	44 69 26 47 86 c8 61 	imul   $0x61c88647,(%rsi),%r12d
    37a6:	4c 8d 7e 20          	lea    0x20(%rsi),%r15
    37aa:	48 b8 00 00 00 00 00 	movabs $0xdffffc0000000000,%rax
    37b1:	fc ff df 
    37b4:	41 c1 ec 1d          	shr    $0x1d,%r12d
    37b8:	4f 8d 74 e5 00       	lea    0x0(%r13,%r12,8),%r14
    37bd:	4c 89 f2             	mov    %r14,%rdx
    37c0:	48 c1 ea 03          	shr    $0x3,%rdx
    37c4:	80 3c 02 00          	cmpb   $0x0,(%rdx,%rax,1)
    37c8:	0f 85 ed 00 00 00    	jne    38bb <add_publisher+0x16b>
    37ce:	4c 89 fa             	mov    %r15,%rdx
    37d1:	4f 8b 64 e5 00       	mov    0x0(%r13,%r12,8),%r12
    37d6:	48 b8 00 00 00 00 00 	movabs $0xdffffc0000000000,%rax
    37dd:	fc ff df 
    37e0:	48 c1 ea 03          	shr    $0x3,%rdx
    37e4:	80 3c 02 00          	cmpb   $0x0,(%rdx,%rax,1)
    37e8:	0f 85 b8 00 00 00    	jne    38a6 <add_publisher+0x156>
    37ee:	48 8d 7e 28          	lea    0x28(%rsi),%rdi
    37f2:	4c 89 66 20          	mov    %r12,0x20(%rsi)
    37f6:	48 b8 00 00 00 00 00 	movabs $0xdffffc0000000000,%rax
    37fd:	fc ff df 
    3800:	48 89 fa             	mov    %rdi,%rdx
    3803:	48 c1 ea 03          	shr    $0x3,%rdx
    3807:	80 3c 02 00          	cmpb   $0x0,(%rdx,%rax,1)
    380b:	0f 85 83 00 00 00    	jne    3894 <add_publisher+0x144>
    3811:	4c 89 76 28          	mov    %r14,0x28(%rsi)
    3815:	48 b8 00 00 00 00 00 	movabs $0xdffffc0000000000,%rax
    381c:	fc ff df 
    381f:	4c 89 f2             	mov    %r14,%rdx
    3822:	48 c1 ea 03          	shr    $0x3,%rdx
    3826:	80 3c 02 00          	cmpb   $0x0,(%rdx,%rax,1)
    382a:	75 5e                	jne    388a <add_publisher+0x13a>
    382c:	4d 89 3e             	mov    %r15,(%r14)
    382f:	31 c0                	xor    %eax,%eax
    3831:	4d 85 e4             	test   %r12,%r12
    3834:	74 23                	je     3859 <add_publisher+0x109>
    3836:	48 b8 00 00 00 00 00 	movabs $0xdffffc0000000000,%rax
    383d:	fc ff df 
    3840:	49 8d 7c 24 08       	lea    0x8(%r12),%rdi
    3845:	48 89 fa             	mov    %rdi,%rdx
    3848:	48 c1 ea 03          	shr    $0x3,%rdx
    384c:	80 3c 02 00          	cmpb   $0x0,(%rdx,%rax,1)
    3850:	75 7e                	jne    38d0 <add_publisher+0x180>
    3852:	4d 89 7c 24 08       	mov    %r15,0x8(%r12)
    3857:	31 c0                	xor    %eax,%eax
    3859:	48 83 c4 08          	add    $0x8,%rsp
    385d:	41 5c                	pop    %r12
    385f:	41 5d                	pop    %r13
    3861:	41 5e                	pop    %r14
    3863:	41 5f                	pop    %r15
    3865:	5d                   	pop    %rbp
    3866:	e9 00 00 00 00       	jmp    386b <add_publisher+0x11b>
    386b:	48 89 f7             	mov    %rsi,%rdi
    386e:	48 89 75 d8          	mov    %rsi,-0x28(%rbp)
    3872:	e8 00 00 00 00       	call   3877 <add_publisher+0x127>
    3877:	48 8b 75 d8          	mov    -0x28(%rbp),%rsi
    387b:	e9 1f ff ff ff       	jmp    379f <add_publisher+0x4f>
    3880:	b8 ea ff ff ff       	mov    $0xffffffea,%eax
    3885:	e9 00 00 00 00       	jmp    388a <add_publisher+0x13a>
    388a:	4c 89 f7             	mov    %r14,%rdi
    388d:	e8 00 00 00 00       	call   3892 <add_publisher+0x142>
    3892:	eb 98                	jmp    382c <add_publisher+0xdc>
    3894:	48 89 75 d8          	mov    %rsi,-0x28(%rbp)
    3898:	e8 00 00 00 00       	call   389d <add_publisher+0x14d>
    389d:	48 8b 75 d8          	mov    -0x28(%rbp),%rsi
    38a1:	e9 6b ff ff ff       	jmp    3811 <add_publisher+0xc1>
    38a6:	4c 89 ff             	mov    %r15,%rdi
    38a9:	48 89 75 d8          	mov    %rsi,-0x28(%rbp)
    38ad:	e8 00 00 00 00       	call   38b2 <add_publisher+0x162>
    38b2:	48 8b 75 d8          	mov    -0x28(%rbp),%rsi
    38b6:	e9 33 ff ff ff       	jmp    37ee <add_publisher+0x9e>
    38bb:	4c 89 f7             	mov    %r14,%rdi
    38be:	48 89 75 d8          	mov    %rsi,-0x28(%rbp)
    38c2:	e8 00 00 00 00       	call   38c7 <add_publisher+0x177>
    38c7:	48 8b 75 d8          	mov    -0x28(%rbp),%rsi
    38cb:	e9 fe fe ff ff       	jmp    37ce <add_publisher+0x7e>
    38d0:	e8 00 00 00 00       	call   38d5 <add_publisher+0x185>
    38d5:	e9 78 ff ff ff       	jmp    3852 <add_publisher+0x102>
    38da:	66 0f 1f 44 00 00    	nopw   0x0(%rax,%rax,1)

00000000000038e0 <__pfx_remove_publisher>:
    38e0:	90                   	nop
    38e1:	90                   	nop
    38e2:	90                   	nop
    38e3:	90                   	nop
    38e4:	90                   	nop
    38e5:	90                   	nop
    38e6:	90                   	nop
    38e7:	90                   	nop
    38e8:	90                   	nop
    38e9:	90                   	nop
    38ea:	90                   	nop
    38eb:	90                   	nop
    38ec:	90                   	nop
    38ed:	90                   	nop
    38ee:	90                   	nop
    38ef:	90                   	nop

00000000000038f0 <remove_publisher>:
    38f0:	f3 0f 1e fa          	endbr64
    38f4:	e8 00 00 00 00       	call   38f9 <remove_publisher+0x9>
    38f9:	48 85 ff             	test   %rdi,%rdi
    38fc:	0f 84 b9 00 00 00    	je     39bb <remove_publisher+0xcb>
    3902:	48 85 f6             	test   %rsi,%rsi
    3905:	0f 84 b0 00 00 00    	je     39bb <remove_publisher+0xcb>
    390b:	48 b8 00 00 00 00 00 	movabs $0xdffffc0000000000,%rax
    3912:	fc ff df 
    3915:	55                   	push   %rbp
    3916:	48 8d 7e 28          	lea    0x28(%rsi),%rdi
    391a:	48 89 fa             	mov    %rdi,%rdx
    391d:	48 c1 ea 03          	shr    $0x3,%rdx
    3921:	48 89 e5             	mov    %rsp,%rbp
    3924:	41 55                	push   %r13
    3926:	41 54                	push   %r12
    3928:	48 83 ec 08          	sub    $0x8,%rsp
    392c:	80 3c 02 00          	cmpb   $0x0,(%rdx,%rax,1)
    3930:	0f 85 8f 00 00 00    	jne    39c5 <remove_publisher+0xd5>
    3936:	4c 8b 66 28          	mov    0x28(%rsi),%r12
    393a:	31 c0                	xor    %eax,%eax
    393c:	4d 85 e4             	test   %r12,%r12
    393f:	74 6c                	je     39ad <remove_publisher+0xbd>
    3941:	48 b8 00 00 00 00 00 	movabs $0xdffffc0000000000,%rax
    3948:	fc ff df 
    394b:	48 8d 7e 20          	lea    0x20(%rsi),%rdi
    394f:	48 89 fa             	mov    %rdi,%rdx
    3952:	48 c1 ea 03          	shr    $0x3,%rdx
    3956:	80 3c 02 00          	cmpb   $0x0,(%rdx,%rax,1)
    395a:	0f 85 89 00 00 00    	jne    39e9 <remove_publisher+0xf9>
    3960:	4c 89 e2             	mov    %r12,%rdx
    3963:	4c 8b 6e 20          	mov    0x20(%rsi),%r13
    3967:	48 b8 00 00 00 00 00 	movabs $0xdffffc0000000000,%rax
    396e:	fc ff df 
    3971:	48 c1 ea 03          	shr    $0x3,%rdx
    3975:	80 3c 02 00          	cmpb   $0x0,(%rdx,%rax,1)
    3979:	75 5c                	jne    39d7 <remove_publisher+0xe7>
    397b:	4d 89 2c 24          	mov    %r13,(%r12)
    397f:	4d 85 ed             	test   %r13,%r13
    3982:	74 1f                	je     39a3 <remove_publisher+0xb3>
    3984:	48 b8 00 00 00 00 00 	movabs $0xdffffc0000000000,%rax
    398b:	fc ff df 
    398e:	49 8d 7d 08          	lea    0x8(%r13),%rdi
    3992:	48 89 fa             	mov    %rdi,%rdx
    3995:	48 c1 ea 03          	shr    $0x3,%rdx
    3999:	80 3c 02 00          	cmpb   $0x0,(%rdx,%rax,1)
    399d:	75 5c                	jne    39fb <remove_publisher+0x10b>
    399f:	4d 89 65 08          	mov    %r12,0x8(%r13)
    39a3:	48 c7 46 28 00 00 00 	movq   $0x0,0x28(%rsi)
    39aa:	00 
    39ab:	31 c0                	xor    %eax,%eax
    39ad:	48 83 c4 08          	add    $0x8,%rsp
    39b1:	41 5c                	pop    %r12
    39b3:	41 5d                	pop    %r13
    39b5:	5d                   	pop    %rbp
    39b6:	e9 00 00 00 00       	jmp    39bb <remove_publisher+0xcb>
    39bb:	b8 ea ff ff ff       	mov    $0xffffffea,%eax
    39c0:	e9 00 00 00 00       	jmp    39c5 <remove_publisher+0xd5>
    39c5:	48 89 75 e8          	mov    %rsi,-0x18(%rbp)
    39c9:	e8 00 00 00 00       	call   39ce <remove_publisher+0xde>
    39ce:	48 8b 75 e8          	mov    -0x18(%rbp),%rsi
    39d2:	e9 5f ff ff ff       	jmp    3936 <remove_publisher+0x46>
    39d7:	4c 89 e7             	mov    %r12,%rdi
    39da:	48 89 75 e8          	mov    %rsi,-0x18(%rbp)
    39de:	e8 00 00 00 00       	call   39e3 <remove_publisher+0xf3>
    39e3:	48 8b 75 e8          	mov    -0x18(%rbp),%rsi
    39e7:	eb 92                	jmp    397b <remove_publisher+0x8b>
    39e9:	48 89 75 e8          	mov    %rsi,-0x18(%rbp)
    39ed:	e8 00 00 00 00       	call   39f2 <remove_publisher+0x102>
    39f2:	48 8b 75 e8          	mov    -0x18(%rbp),%rsi
    39f6:	e9 65 ff ff ff       	jmp    3960 <remove_publisher+0x70>
    39fb:	48 89 75 e8          	mov    %rsi,-0x18(%rbp)
    39ff:	e8 00 00 00 00       	call   3a04 <remove_publisher+0x114>
    3a04:	48 8b 75 e8          	mov    -0x18(%rbp),%rsi
    3a08:	eb 95                	jmp    399f <remove_publisher+0xaf>
    3a0a:	66 0f 1f 44 00 00    	nopw   0x0(%rax,%rax,1)

0000000000003a10 <__pfx_get_publisher_prohibition>:
    3a10:	90                   	nop
    3a11:	90                   	nop
    3a12:	90                   	nop
    3a13:	90                   	nop
    3a14:	90                   	nop
    3a15:	90                   	nop
    3a16:	90                   	nop
    3a17:	90                   	nop
    3a18:	90                   	nop
    3a19:	90                   	nop
    3a1a:	90                   	nop
    3a1b:	90                   	nop
    3a1c:	90                   	nop
    3a1d:	90                   	nop
    3a1e:	90                   	nop
    3a1f:	90                   	nop

0000000000003a20 <get_publisher_prohibition>:
    3a20:	f3 0f 1e fa          	endbr64
    3a24:	48 8d 47 08          	lea    0x8(%rdi),%rax
    3a28:	e9 00 00 00 00       	jmp    3a2d <get_publisher_prohibition+0xd>
    3a2d:	0f 1f 00             	nopl   (%rax)

0000000000003a30 <__pfx_init_publisher_collection>:
    3a30:	90                   	nop
    3a31:	90                   	nop
    3a32:	90                   	nop
    3a33:	90                   	nop
    3a34:	90                   	nop
    3a35:	90                   	nop
    3a36:	90                   	nop
    3a37:	90                   	nop
    3a38:	90                   	nop
    3a39:	90                   	nop
    3a3a:	90                   	nop
    3a3b:	90                   	nop
    3a3c:	90                   	nop
    3a3d:	90                   	nop
    3a3e:	90                   	nop
    3a3f:	90                   	nop

0000000000003a40 <init_publisher_collection>:
    3a40:	f3 0f 1e fa          	endbr64
    3a44:	e8 00 00 00 00       	call   3a49 <init_publisher_collection+0x9>
    3a49:	55                   	push   %rbp
    3a4a:	48 89 e5             	mov    %rsp,%rbp
    3a4d:	41 54                	push   %r12
    3a4f:	4c 8d 67 40          	lea    0x40(%rdi),%r12
    3a53:	53                   	push   %rbx
    3a54:	48 bb 00 00 00 00 00 	movabs $0xdffffc0000000000,%rbx
    3a5b:	fc ff df 
    3a5e:	48 83 ec 08          	sub    $0x8,%rsp
    3a62:	48 89 f8             	mov    %rdi,%rax
    3a65:	48 c1 e8 03          	shr    $0x3,%rax
    3a69:	80 3c 18 00          	cmpb   $0x0,(%rax,%rbx,1)
    3a6d:	75 1d                	jne    3a8c <init_publisher_collection+0x4c>
    3a6f:	48 c7 07 00 00 00 00 	movq   $0x0,(%rdi)
    3a76:	48 83 c7 08          	add    $0x8,%rdi
    3a7a:	4c 39 e7             	cmp    %r12,%rdi
    3a7d:	75 e3                	jne    3a62 <init_publisher_collection+0x22>
    3a7f:	48 83 c4 08          	add    $0x8,%rsp
    3a83:	5b                   	pop    %rbx
    3a84:	41 5c                	pop    %r12
    3a86:	5d                   	pop    %rbp
    3a87:	e9 00 00 00 00       	jmp    3a8c <init_publisher_collection+0x4c>
    3a8c:	48 89 7d e8          	mov    %rdi,-0x18(%rbp)
    3a90:	e8 00 00 00 00       	call   3a95 <init_publisher_collection+0x55>
    3a95:	48 8b 7d e8          	mov    -0x18(%rbp),%rdi
    3a99:	eb d4                	jmp    3a6f <init_publisher_collection+0x2f>
    3a9b:	0f 1f 44 00 00       	nopl   0x0(%rax,%rax,1)

0000000000003aa0 <__pfx_clear_publisher_collection>:
    3aa0:	90                   	nop
    3aa1:	90                   	nop
    3aa2:	90                   	nop
    3aa3:	90                   	nop
    3aa4:	90                   	nop
    3aa5:	90                   	nop
    3aa6:	90                   	nop
    3aa7:	90                   	nop
    3aa8:	90                   	nop
    3aa9:	90                   	nop
    3aaa:	90                   	nop
    3aab:	90                   	nop
    3aac:	90                   	nop
    3aad:	90                   	nop
    3aae:	90                   	nop
    3aaf:	90                   	nop

0000000000003ab0 <clear_publisher_collection>:
    3ab0:	f3 0f 1e fa          	endbr64
    3ab4:	e8 00 00 00 00       	call   3ab9 <clear_publisher_collection+0x9>
    3ab9:	48 85 ff             	test   %rdi,%rdi
    3abc:	0f 84 47 01 00 00    	je     3c09 <clear_publisher_collection+0x159>
    3ac2:	55                   	push   %rbp
    3ac3:	48 89 e5             	mov    %rsp,%rbp
    3ac6:	41 57                	push   %r15
    3ac8:	41 56                	push   %r14
    3aca:	49 be 00 00 00 00 00 	movabs $0xdffffc0000000000,%r14
    3ad1:	fc ff df 
    3ad4:	41 55                	push   %r13
    3ad6:	49 89 fd             	mov    %rdi,%r13
    3ad9:	41 54                	push   %r12
    3adb:	53                   	push   %rbx
    3adc:	48 83 ec 08          	sub    $0x8,%rsp
    3ae0:	c7 45 d4 00 00 00 00 	movl   $0x0,-0x2c(%rbp)
    3ae7:	48 63 75 d4          	movslq -0x2c(%rbp),%rsi
    3aeb:	48 83 fe 07          	cmp    $0x7,%rsi
    3aef:	0f 87 2b 01 00 00    	ja     3c20 <clear_publisher_collection+0x170>
    3af5:	4c 89 ea             	mov    %r13,%rdx
    3af8:	48 c1 ea 03          	shr    $0x3,%rdx
    3afc:	42 80 3c 32 00       	cmpb   $0x0,(%rdx,%r14,1)
    3b01:	0f 85 0c 01 00 00    	jne    3c13 <clear_publisher_collection+0x163>
    3b07:	4d 8b 65 00          	mov    0x0(%r13),%r12
    3b0b:	4d 85 e4             	test   %r12,%r12
    3b0e:	0f 84 a4 00 00 00    	je     3bb8 <clear_publisher_collection+0x108>
    3b14:	49 83 ec 20          	sub    $0x20,%r12
    3b18:	75 12                	jne    3b2c <clear_publisher_collection+0x7c>
    3b1a:	e9 99 00 00 00       	jmp    3bb8 <clear_publisher_collection+0x108>
    3b1f:	48 83 eb 20          	sub    $0x20,%rbx
    3b23:	49 89 dc             	mov    %rbx,%r12
    3b26:	0f 84 8c 00 00 00    	je     3bb8 <clear_publisher_collection+0x108>
    3b2c:	49 8d 7c 24 20       	lea    0x20(%r12),%rdi
    3b31:	48 89 fa             	mov    %rdi,%rdx
    3b34:	48 c1 ea 03          	shr    $0x3,%rdx
    3b38:	42 80 3c 32 00       	cmpb   $0x0,(%rdx,%r14,1)
    3b3d:	0f 85 9e 00 00 00    	jne    3be1 <clear_publisher_collection+0x131>
    3b43:	49 8d 7c 24 28       	lea    0x28(%r12),%rdi
    3b48:	49 8b 5c 24 20       	mov    0x20(%r12),%rbx
    3b4d:	48 89 fa             	mov    %rdi,%rdx
    3b50:	48 c1 ea 03          	shr    $0x3,%rdx
    3b54:	42 80 3c 32 00       	cmpb   $0x0,(%rdx,%r14,1)
    3b59:	0f 85 8c 00 00 00    	jne    3beb <clear_publisher_collection+0x13b>
    3b5f:	4d 8b 7c 24 28       	mov    0x28(%r12),%r15
    3b64:	4d 85 ff             	test   %r15,%r15
    3b67:	74 3e                	je     3ba7 <clear_publisher_collection+0xf7>
    3b69:	4c 89 fa             	mov    %r15,%rdx
    3b6c:	48 c1 ea 03          	shr    $0x3,%rdx
    3b70:	42 80 3c 32 00       	cmpb   $0x0,(%rdx,%r14,1)
    3b75:	75 7e                	jne    3bf5 <clear_publisher_collection+0x145>
    3b77:	49 89 1f             	mov    %rbx,(%r15)
    3b7a:	48 85 db             	test   %rbx,%rbx
    3b7d:	74 16                	je     3b95 <clear_publisher_collection+0xe5>
    3b7f:	48 8d 7b 08          	lea    0x8(%rbx),%rdi
    3b83:	48 89 fa             	mov    %rdi,%rdx
    3b86:	48 c1 ea 03          	shr    $0x3,%rdx
    3b8a:	42 80 3c 32 00       	cmpb   $0x0,(%rdx,%r14,1)
    3b8f:	75 71                	jne    3c02 <clear_publisher_collection+0x152>
    3b91:	4c 89 7b 08          	mov    %r15,0x8(%rbx)
    3b95:	49 c7 44 24 20 00 00 	movq   $0x0,0x20(%r12)
    3b9c:	00 00 
    3b9e:	49 c7 44 24 28 00 00 	movq   $0x0,0x28(%r12)
    3ba5:	00 00 
    3ba7:	4c 89 e7             	mov    %r12,%rdi
    3baa:	e8 00 00 00 00       	call   3baf <clear_publisher_collection+0xff>
    3baf:	48 85 db             	test   %rbx,%rbx
    3bb2:	0f 85 67 ff ff ff    	jne    3b1f <clear_publisher_collection+0x6f>
    3bb8:	83 45 d4 01          	addl   $0x1,-0x2c(%rbp)
    3bbc:	8b 45 d4             	mov    -0x2c(%rbp),%eax
    3bbf:	49 83 c5 08          	add    $0x8,%r13
    3bc3:	83 f8 08             	cmp    $0x8,%eax
    3bc6:	0f 85 1b ff ff ff    	jne    3ae7 <clear_publisher_collection+0x37>
    3bcc:	48 83 c4 08          	add    $0x8,%rsp
    3bd0:	31 c0                	xor    %eax,%eax
    3bd2:	5b                   	pop    %rbx
    3bd3:	41 5c                	pop    %r12
    3bd5:	41 5d                	pop    %r13
    3bd7:	41 5e                	pop    %r14
    3bd9:	41 5f                	pop    %r15
    3bdb:	5d                   	pop    %rbp
    3bdc:	e9 00 00 00 00       	jmp    3be1 <clear_publisher_collection+0x131>
    3be1:	e8 00 00 00 00       	call   3be6 <clear_publisher_collection+0x136>
    3be6:	e9 58 ff ff ff       	jmp    3b43 <clear_publisher_collection+0x93>
    3beb:	e8 00 00 00 00       	call   3bf0 <clear_publisher_collection+0x140>
    3bf0:	e9 6a ff ff ff       	jmp    3b5f <clear_publisher_collection+0xaf>
    3bf5:	4c 89 ff             	mov    %r15,%rdi
    3bf8:	e8 00 00 00 00       	call   3bfd <clear_publisher_collection+0x14d>
    3bfd:	e9 75 ff ff ff       	jmp    3b77 <clear_publisher_collection+0xc7>
    3c02:	e8 00 00 00 00       	call   3c07 <clear_publisher_collection+0x157>
    3c07:	eb 88                	jmp    3b91 <clear_publisher_collection+0xe1>
    3c09:	b8 ea ff ff ff       	mov    $0xffffffea,%eax
    3c0e:	e9 00 00 00 00       	jmp    3c13 <clear_publisher_collection+0x163>
    3c13:	4c 89 ef             	mov    %r13,%rdi
    3c16:	e8 00 00 00 00       	call   3c1b <clear_publisher_collection+0x16b>
    3c1b:	e9 e7 fe ff ff       	jmp    3b07 <clear_publisher_collection+0x57>
    3c20:	48 c7 c7 00 00 00 00 	mov    $0x0,%rdi
    3c27:	e8 00 00 00 00       	call   3c2c <clear_publisher_collection+0x17c>
    3c2c:	e9 c4 fe ff ff       	jmp    3af5 <clear_publisher_collection+0x45>
    3c31:	66 2e 0f 1f 84 00 00 	cs nopw 0x0(%rax,%rax,1)
    3c38:	00 00 00 
    3c3b:	0f 1f 44 00 00       	nopl   0x0(%rax,%rax,1)

0000000000003c40 <__pfx_init_nodes>:
    3c40:	90                   	nop
    3c41:	90                   	nop
    3c42:	90                   	nop
    3c43:	90                   	nop
    3c44:	90                   	nop
    3c45:	90                   	nop
    3c46:	90                   	nop
    3c47:	90                   	nop
    3c48:	90                   	nop
    3c49:	90                   	nop
    3c4a:	90                   	nop
    3c4b:	90                   	nop
    3c4c:	90                   	nop
    3c4d:	90                   	nop
    3c4e:	90                   	nop
    3c4f:	90                   	nop

0000000000003c50 <init_nodes>:
    3c50:	f3 0f 1e fa          	endbr64
    3c54:	e8 00 00 00 00       	call   3c59 <init_nodes+0x9>
    3c59:	55                   	push   %rbp
    3c5a:	b9 02 00 00 00       	mov    $0x2,%ecx
    3c5f:	48 c7 c2 00 00 00 00 	mov    $0x0,%rdx
    3c66:	48 c7 c6 00 00 00 00 	mov    $0x0,%rsi
    3c6d:	48 c7 c7 00 00 00 00 	mov    $0x0,%rdi
    3c74:	48 89 e5             	mov    %rsp,%rbp
    3c77:	e8 00 00 00 00       	call   3c7c <init_nodes+0x2c>
    3c7c:	be 04 00 00 00       	mov    $0x4,%esi
    3c81:	48 c7 c7 00 00 00 00 	mov    $0x0,%rdi
    3c88:	e8 00 00 00 00       	call   3c8d <init_nodes+0x3d>
    3c8d:	31 c0                	xor    %eax,%eax
    3c8f:	5d                   	pop    %rbp
    3c90:	c7 05 00 00 00 00 00 	movl   $0x0,0x0(%rip)        # 3c9a <init_nodes+0x4a>
    3c97:	00 00 00 
    3c9a:	e9 00 00 00 00       	jmp    3c9f <init_nodes+0x4f>
    3c9f:	90                   	nop

0000000000003ca0 <__pfx_get_node_id>:
    3ca0:	90                   	nop
    3ca1:	90                   	nop
    3ca2:	90                   	nop
    3ca3:	90                   	nop
    3ca4:	90                   	nop
    3ca5:	90                   	nop
    3ca6:	90                   	nop
    3ca7:	90                   	nop
    3ca8:	90                   	nop
    3ca9:	90                   	nop
    3caa:	90                   	nop
    3cab:	90                   	nop
    3cac:	90                   	nop
    3cad:	90                   	nop
    3cae:	90                   	nop
    3caf:	90                   	nop

0000000000003cb0 <get_node_id>:
    3cb0:	f3 0f 1e fa          	endbr64
    3cb4:	e8 00 00 00 00       	call   3cb9 <get_node_id+0x9>
    3cb9:	49 89 f8             	mov    %rdi,%r8
    3cbc:	48 85 ff             	test   %rdi,%rdi
    3cbf:	74 28                	je     3ce9 <get_node_id+0x39>
    3cc1:	48 89 f7             	mov    %rsi,%rdi
    3cc4:	48 85 f6             	test   %rsi,%rsi
    3cc7:	74 20                	je     3ce9 <get_node_id+0x39>
    3cc9:	55                   	push   %rbp
    3cca:	ba 08 00 00 00       	mov    $0x8,%edx
    3ccf:	4c 89 c6             	mov    %r8,%rsi
    3cd2:	48 89 e5             	mov    %rsp,%rbp
    3cd5:	e8 00 00 00 00       	call   3cda <get_node_id+0x2a>
    3cda:	5d                   	pop    %rbp
    3cdb:	48 83 f8 01          	cmp    $0x1,%rax
    3cdf:	19 c0                	sbb    %eax,%eax
    3ce1:	83 e0 f5             	and    $0xfffffff5,%eax
    3ce4:	e9 00 00 00 00       	jmp    3ce9 <get_node_id+0x39>
    3ce9:	b8 ea ff ff ff       	mov    $0xffffffea,%eax
    3cee:	e9 00 00 00 00       	jmp    3cf3 <get_node_id+0x43>
    3cf3:	66 66 2e 0f 1f 84 00 	data16 cs nopw 0x0(%rax,%rax,1)
    3cfa:	00 00 00 00 
    3cfe:	66 90                	xchg   %ax,%ax

0000000000003d00 <__pfx_create_node_struct>:
    3d00:	90                   	nop
    3d01:	90                   	nop
    3d02:	90                   	nop
    3d03:	90                   	nop
    3d04:	90                   	nop
    3d05:	90                   	nop
    3d06:	90                   	nop
    3d07:	90                   	nop
    3d08:	90                   	nop
    3d09:	90                   	nop
    3d0a:	90                   	nop
    3d0b:	90                   	nop
    3d0c:	90                   	nop
    3d0d:	90                   	nop
    3d0e:	90                   	nop
    3d0f:	90                   	nop

0000000000003d10 <create_node_struct>:
    3d10:	f3 0f 1e fa          	endbr64
    3d14:	e8 00 00 00 00       	call   3d19 <create_node_struct+0x9>
    3d19:	55                   	push   %rbp
    3d1a:	48 89 e5             	mov    %rsp,%rbp
    3d1d:	41 57                	push   %r15
    3d1f:	41 56                	push   %r14
    3d21:	41 55                	push   %r13
    3d23:	49 89 d5             	mov    %rdx,%r13
    3d26:	41 54                	push   %r12
    3d28:	53                   	push   %rbx
    3d29:	48 83 ec 08          	sub    $0x8,%rsp
    3d2d:	48 85 f6             	test   %rsi,%rsi
    3d30:	0f 94 c0             	sete   %al
    3d33:	48 85 d2             	test   %rdx,%rdx
    3d36:	0f 94 c2             	sete   %dl
    3d39:	08 d0                	or     %dl,%al
    3d3b:	0f 85 f7 02 00 00    	jne    4038 <create_node_struct+0x328>
    3d41:	49 89 fe             	mov    %rdi,%r14
    3d44:	48 85 ff             	test   %rdi,%rdi
    3d47:	0f 84 eb 02 00 00    	je     4038 <create_node_struct+0x328>
    3d4d:	65 48 8b 1d 00 00 00 	mov    %gs:0x0(%rip),%rbx        # 3d55 <create_node_struct+0x45>
    3d54:	00 
    3d55:	48 8d 7b 38          	lea    0x38(%rbx),%rdi
    3d59:	49 89 f7             	mov    %rsi,%r15
    3d5c:	48 b8 00 00 00 00 00 	movabs $0xdffffc0000000000,%rax
    3d63:	fc ff df 
    3d66:	48 89 fa             	mov    %rdi,%rdx
    3d69:	48 c1 ea 03          	shr    $0x3,%rdx
    3d6d:	80 3c 02 00          	cmpb   $0x0,(%rdx,%rax,1)
    3d71:	0f 85 ea 02 00 00    	jne    4061 <create_node_struct+0x351>
    3d77:	65 4c 8b 25 00 00 00 	mov    %gs:0x0(%rip),%r12        # 3d7f <create_node_struct+0x6f>
    3d7e:	00 
    3d7f:	49 8d 7c 24 38       	lea    0x38(%r12),%rdi
    3d84:	48 8b 5b 38          	mov    0x38(%rbx),%rbx
    3d88:	48 b8 00 00 00 00 00 	movabs $0xdffffc0000000000,%rax
    3d8f:	fc ff df 
    3d92:	48 89 fa             	mov    %rdi,%rdx
    3d95:	48 c1 ea 03          	shr    $0x3,%rdx
    3d99:	80 3c 02 00          	cmpb   $0x0,(%rdx,%rax,1)
    3d9d:	0f 85 b4 02 00 00    	jne    4057 <create_node_struct+0x347>
    3da3:	49 c7 44 24 38 00 00 	movq   $0x0,0x38(%r12)
    3daa:	00 00 
    3dac:	bf 28 02 00 00       	mov    $0x228,%edi
    3db1:	e8 00 00 00 00       	call   3db6 <create_node_struct+0xa6>
    3db6:	48 ba 00 00 00 00 00 	movabs $0xdffffc0000000000,%rdx
    3dbd:	fc ff df 
    3dc0:	49 89 c4             	mov    %rax,%r12
    3dc3:	65 48 8b 05 00 00 00 	mov    %gs:0x0(%rip),%rax        # 3dcb <create_node_struct+0xbb>
    3dca:	00 
    3dcb:	48 8d 78 38          	lea    0x38(%rax),%rdi
    3dcf:	48 89 f9             	mov    %rdi,%rcx
    3dd2:	48 c1 e9 03          	shr    $0x3,%rcx
    3dd6:	80 3c 11 00          	cmpb   $0x0,(%rcx,%rdx,1)
    3dda:	0f 85 aa 02 00 00    	jne    408a <create_node_struct+0x37a>
    3de0:	48 89 58 38          	mov    %rbx,0x38(%rax)
    3de4:	4d 85 e4             	test   %r12,%r12
    3de7:	0f 84 95 02 00 00    	je     4082 <create_node_struct+0x372>
    3ded:	48 8b 35 00 00 00 00 	mov    0x0(%rip),%rsi        # 3df4 <create_node_struct+0xe4>
    3df4:	49 8d 9c 24 10 02 00 	lea    0x210(%r12),%rbx
    3dfb:	00 
    3dfc:	48 8d 3d 00 00 00 00 	lea    0x0(%rip),%rdi        # 3e03 <create_node_struct+0xf3>
    3e03:	e8 00 00 00 00       	call   3e08 <create_node_struct+0xf8>
    3e08:	48 89 da             	mov    %rbx,%rdx
    3e0b:	48 b8 00 00 00 00 00 	movabs $0xdffffc0000000000,%rax
    3e12:	fc ff df 
    3e15:	48 c1 ea 03          	shr    $0x3,%rdx
    3e19:	80 3c 02 00          	cmpb   $0x0,(%rdx,%rax,1)
    3e1d:	0f 85 52 02 00 00    	jne    4075 <create_node_struct+0x365>
    3e23:	49 8d bc 24 18 02 00 	lea    0x218(%r12),%rdi
    3e2a:	00 
    3e2b:	48 b8 00 00 00 00 00 	movabs $0xdffffc0000000000,%rax
    3e32:	fc ff df 
    3e35:	49 c7 84 24 10 02 00 	movq   $0x0,0x210(%r12)
    3e3c:	00 00 00 00 00 
    3e41:	48 89 fa             	mov    %rdi,%rdx
    3e44:	48 c1 ea 03          	shr    $0x3,%rdx
    3e48:	80 3c 02 00          	cmpb   $0x0,(%rdx,%rax,1)
    3e4c:	0f 85 19 02 00 00    	jne    406b <create_node_struct+0x35b>
    3e52:	48 b8 00 00 00 00 00 	movabs $0xdffffc0000000000,%rax
    3e59:	fc ff df 
    3e5c:	4c 89 e2             	mov    %r12,%rdx
    3e5f:	49 c7 84 24 18 02 00 	movq   $0x0,0x218(%r12)
    3e66:	00 00 00 00 00 
    3e6b:	48 c1 ea 03          	shr    $0x3,%rdx
    3e6f:	80 3c 02 00          	cmpb   $0x0,(%rdx,%rax,1)
    3e73:	0f 85 c7 01 00 00    	jne    4040 <create_node_struct+0x330>
    3e79:	49 89 1c 24          	mov    %rbx,(%r12)
    3e7d:	4c 89 f6             	mov    %r14,%rsi
    3e80:	49 8d 7c 24 08       	lea    0x8(%r12),%rdi
    3e85:	4c 89 fa             	mov    %r15,%rdx
    3e88:	e8 00 00 00 00       	call   3e8d <create_node_struct+0x17d>
    3e8d:	41 89 c6             	mov    %eax,%r14d
    3e90:	85 c0                	test   %eax,%eax
    3e92:	0f 85 96 01 00 00    	jne    402e <create_node_struct+0x31e>
    3e98:	49 8d 7c 24 58       	lea    0x58(%r12),%rdi
    3e9d:	4d 8d bc 24 b8 00 00 	lea    0xb8(%r12),%r15
    3ea4:	00 
    3ea5:	bb 32 00 00 00       	mov    $0x32,%ebx
    3eaa:	e8 00 00 00 00       	call   3eaf <create_node_struct+0x19f>
    3eaf:	49 8d bc 24 d0 01 00 	lea    0x1d0(%r12),%rdi
    3eb6:	00 
    3eb7:	e8 00 00 00 00       	call   3ebc <create_node_struct+0x1ac>
    3ebc:	49 8d bc 24 90 01 00 	lea    0x190(%r12),%rdi
    3ec3:	00 
    3ec4:	e8 00 00 00 00       	call   3ec9 <create_node_struct+0x1b9>
    3ec9:	49 8d 84 24 00 01 00 	lea    0x100(%r12),%rax
    3ed0:	00 
    3ed1:	48 8b 35 00 00 00 00 	mov    0x0(%rip),%rsi        # 3ed8 <create_node_struct+0x1c8>
    3ed8:	4c 89 fa             	mov    %r15,%rdx
    3edb:	49 c7 c0 00 00 00 00 	mov    $0x0,%r8
    3ee2:	48 89 c1             	mov    %rax,%rcx
    3ee5:	48 89 45 d0          	mov    %rax,-0x30(%rbp)
    3ee9:	48 8d 3d 00 00 00 00 	lea    0x0(%rip),%rdi        # 3ef0 <create_node_struct+0x1e0>
    3ef0:	e8 00 00 00 00       	call   3ef5 <create_node_struct+0x1e5>
    3ef5:	bf 58 89 41 00       	mov    $0x418958,%edi
    3efa:	e8 00 00 00 00       	call   3eff <create_node_struct+0x1ef>
    3eff:	48 83 eb 01          	sub    $0x1,%rbx
    3f03:	75 f0                	jne    3ef5 <create_node_struct+0x1e5>
    3f05:	4c 89 ff             	mov    %r15,%rdi
    3f08:	b9 02 00 00 00       	mov    $0x2,%ecx
    3f0d:	48 c7 c2 00 00 00 00 	mov    $0x0,%rdx
    3f14:	48 c7 c6 00 00 00 00 	mov    $0x0,%rsi
    3f1b:	e8 00 00 00 00       	call   3f20 <create_node_struct+0x210>
    3f20:	48 8b 7d d0          	mov    -0x30(%rbp),%rdi
    3f24:	b9 02 00 00 00       	mov    $0x2,%ecx
    3f29:	48 c7 c2 00 00 00 00 	mov    $0x0,%rdx
    3f30:	4d 8d bc 24 20 02 00 	lea    0x220(%r12),%r15
    3f37:	00 
    3f38:	48 c7 c6 00 00 00 00 	mov    $0x0,%rsi
    3f3f:	e8 00 00 00 00       	call   3f44 <create_node_struct+0x234>
    3f44:	be 04 00 00 00       	mov    $0x4,%esi
    3f49:	4c 89 ff             	mov    %r15,%rdi
    3f4c:	e8 00 00 00 00       	call   3f51 <create_node_struct+0x241>
    3f51:	4c 89 fa             	mov    %r15,%rdx
    3f54:	48 b8 00 00 00 00 00 	movabs $0xdffffc0000000000,%rax
    3f5b:	fc ff df 
    3f5e:	48 c1 ea 03          	shr    $0x3,%rdx
    3f62:	0f b6 14 02          	movzbl (%rdx,%rax,1),%edx
    3f66:	4c 89 f8             	mov    %r15,%rax
    3f69:	83 e0 07             	and    $0x7,%eax
    3f6c:	83 c0 03             	add    $0x3,%eax
    3f6f:	38 d0                	cmp    %dl,%al
    3f71:	7c 08                	jl     3f7b <create_node_struct+0x26b>
    3f73:	84 d2                	test   %dl,%dl
    3f75:	0f 85 2e 01 00 00    	jne    40a9 <create_node_struct+0x399>
    3f7b:	4d 8d bc 24 24 02 00 	lea    0x224(%r12),%r15
    3f82:	00 
    3f83:	be 04 00 00 00       	mov    $0x4,%esi
    3f88:	41 c7 84 24 20 02 00 	movl   $0x0,0x220(%r12)
    3f8f:	00 00 00 00 00 
    3f94:	4c 89 ff             	mov    %r15,%rdi
    3f97:	e8 00 00 00 00       	call   3f9c <create_node_struct+0x28c>
    3f9c:	4c 89 fa             	mov    %r15,%rdx
    3f9f:	48 b8 00 00 00 00 00 	movabs $0xdffffc0000000000,%rax
    3fa6:	fc ff df 
    3fa9:	48 c1 ea 03          	shr    $0x3,%rdx
    3fad:	0f b6 14 02          	movzbl (%rdx,%rax,1),%edx
    3fb1:	4c 89 f8             	mov    %r15,%rax
    3fb4:	83 e0 07             	and    $0x7,%eax
    3fb7:	83 c0 03             	add    $0x3,%eax
    3fba:	38 d0                	cmp    %dl,%al
    3fbc:	7c 08                	jl     3fc6 <create_node_struct+0x2b6>
    3fbe:	84 d2                	test   %dl,%dl
    3fc0:	0f 85 d6 00 00 00    	jne    409c <create_node_struct+0x38c>
    3fc6:	be 04 00 00 00       	mov    $0x4,%esi
    3fcb:	48 c7 c7 00 00 00 00 	mov    $0x0,%rdi
    3fd2:	41 c7 84 24 24 02 00 	movl   $0x0,0x224(%r12)
    3fd9:	00 00 00 00 00 
    3fde:	e8 00 00 00 00       	call   3fe3 <create_node_struct+0x2d3>
    3fe3:	f0 ff 05 00 00 00 00 	lock incl 0x0(%rip)        # 3fea <create_node_struct+0x2da>
    3fea:	48 b8 00 00 00 00 00 	movabs $0xdffffc0000000000,%rax
    3ff1:	fc ff df 
    3ff4:	4c 89 ea             	mov    %r13,%rdx
    3ff7:	48 c1 ea 03          	shr    $0x3,%rdx
    3ffb:	80 3c 02 00          	cmpb   $0x0,(%rdx,%rax,1)
    3fff:	75 4c                	jne    404d <create_node_struct+0x33d>
    4001:	4d 89 65 00          	mov    %r12,0x0(%r13)
    4005:	48 8b 35 00 00 00 00 	mov    0x0(%rip),%rsi        # 400c <create_node_struct+0x2fc>
    400c:	48 8d 3d 00 00 00 00 	lea    0x0(%rip),%rdi        # 4013 <create_node_struct+0x303>
    4013:	e8 00 00 00 00       	call   4018 <create_node_struct+0x308>
    4018:	48 83 c4 08          	add    $0x8,%rsp
    401c:	44 89 f0             	mov    %r14d,%eax
    401f:	5b                   	pop    %rbx
    4020:	41 5c                	pop    %r12
    4022:	41 5d                	pop    %r13
    4024:	41 5e                	pop    %r14
    4026:	41 5f                	pop    %r15
    4028:	5d                   	pop    %rbp
    4029:	e9 00 00 00 00       	jmp    402e <create_node_struct+0x31e>
    402e:	4c 89 e7             	mov    %r12,%rdi
    4031:	e8 00 00 00 00       	call   4036 <create_node_struct+0x326>
    4036:	eb e0                	jmp    4018 <create_node_struct+0x308>
    4038:	41 be ea ff ff ff    	mov    $0xffffffea,%r14d
    403e:	eb d8                	jmp    4018 <create_node_struct+0x308>
    4040:	4c 89 e7             	mov    %r12,%rdi
    4043:	e8 00 00 00 00       	call   4048 <create_node_struct+0x338>
    4048:	e9 2c fe ff ff       	jmp    3e79 <create_node_struct+0x169>
    404d:	4c 89 ef             	mov    %r13,%rdi
    4050:	e8 00 00 00 00       	call   4055 <create_node_struct+0x345>
    4055:	eb aa                	jmp    4001 <create_node_struct+0x2f1>
    4057:	e8 00 00 00 00       	call   405c <create_node_struct+0x34c>
    405c:	e9 42 fd ff ff       	jmp    3da3 <create_node_struct+0x93>
    4061:	e8 00 00 00 00       	call   4066 <create_node_struct+0x356>
    4066:	e9 0c fd ff ff       	jmp    3d77 <create_node_struct+0x67>
    406b:	e8 00 00 00 00       	call   4070 <create_node_struct+0x360>
    4070:	e9 dd fd ff ff       	jmp    3e52 <create_node_struct+0x142>
    4075:	48 89 df             	mov    %rbx,%rdi
    4078:	e8 00 00 00 00       	call   407d <create_node_struct+0x36d>
    407d:	e9 a1 fd ff ff       	jmp    3e23 <create_node_struct+0x113>
    4082:	41 be f4 ff ff ff    	mov    $0xfffffff4,%r14d
    4088:	eb 8e                	jmp    4018 <create_node_struct+0x308>
    408a:	48 89 45 d0          	mov    %rax,-0x30(%rbp)
    408e:	e8 00 00 00 00       	call   4093 <create_node_struct+0x383>
    4093:	48 8b 45 d0          	mov    -0x30(%rbp),%rax
    4097:	e9 44 fd ff ff       	jmp    3de0 <create_node_struct+0xd0>
    409c:	4c 89 ff             	mov    %r15,%rdi
    409f:	e8 00 00 00 00       	call   40a4 <create_node_struct+0x394>
    40a4:	e9 1d ff ff ff       	jmp    3fc6 <create_node_struct+0x2b6>
    40a9:	4c 89 ff             	mov    %r15,%rdi
    40ac:	e8 00 00 00 00       	call   40b1 <create_node_struct+0x3a1>
    40b1:	e9 c5 fe ff ff       	jmp    3f7b <create_node_struct+0x26b>
    40b6:	66 2e 0f 1f 84 00 00 	cs nopw 0x0(%rax,%rax,1)
    40bd:	00 00 00 

00000000000040c0 <__pfx_delete_node_struct>:
    40c0:	90                   	nop
    40c1:	90                   	nop
    40c2:	90                   	nop
    40c3:	90                   	nop
    40c4:	90                   	nop
    40c5:	90                   	nop
    40c6:	90                   	nop
    40c7:	90                   	nop
    40c8:	90                   	nop
    40c9:	90                   	nop
    40ca:	90                   	nop
    40cb:	90                   	nop
    40cc:	90                   	nop
    40cd:	90                   	nop
    40ce:	90                   	nop
    40cf:	90                   	nop

00000000000040d0 <delete_node_struct>:
    40d0:	f3 0f 1e fa          	endbr64
    40d4:	e8 00 00 00 00       	call   40d9 <delete_node_struct+0x9>
    40d9:	48 85 ff             	test   %rdi,%rdi
    40dc:	0f 84 da 00 00 00    	je     41bc <delete_node_struct+0xec>
    40e2:	55                   	push   %rbp
    40e3:	48 8b 35 00 00 00 00 	mov    0x0(%rip),%rsi        # 40ea <delete_node_struct+0x1a>
    40ea:	48 c7 c2 00 00 00 00 	mov    $0x0,%rdx
    40f1:	48 89 e5             	mov    %rsp,%rbp
    40f4:	41 55                	push   %r13
    40f6:	41 54                	push   %r12
    40f8:	49 89 fc             	mov    %rdi,%r12
    40fb:	4c 8d 2d 00 00 00 00 	lea    0x0(%rip),%r13        # 4102 <delete_node_struct+0x32>
    4102:	4c 89 ef             	mov    %r13,%rdi
    4105:	e8 00 00 00 00       	call   410a <delete_node_struct+0x3a>
    410a:	49 8d bc 24 d0 01 00 	lea    0x1d0(%r12),%rdi
    4111:	00 
    4112:	e8 00 00 00 00       	call   4117 <delete_node_struct+0x47>
    4117:	48 8b 35 00 00 00 00 	mov    0x0(%rip),%rsi        # 411e <delete_node_struct+0x4e>
    411e:	48 c7 c2 00 00 00 00 	mov    $0x0,%rdx
    4125:	4c 89 ef             	mov    %r13,%rdi
    4128:	e8 00 00 00 00       	call   412d <delete_node_struct+0x5d>
    412d:	49 8d bc 24 90 01 00 	lea    0x190(%r12),%rdi
    4134:	00 
    4135:	e8 00 00 00 00       	call   413a <delete_node_struct+0x6a>
    413a:	48 8b 35 00 00 00 00 	mov    0x0(%rip),%rsi        # 4141 <delete_node_struct+0x71>
    4141:	48 c7 c2 00 00 00 00 	mov    $0x0,%rdx
    4148:	4c 89 ef             	mov    %r13,%rdi
    414b:	e8 00 00 00 00       	call   4150 <delete_node_struct+0x80>
    4150:	49 8d 7c 24 58       	lea    0x58(%r12),%rdi
    4155:	e8 00 00 00 00       	call   415a <delete_node_struct+0x8a>
    415a:	48 8b 35 00 00 00 00 	mov    0x0(%rip),%rsi        # 4161 <delete_node_struct+0x91>
    4161:	48 c7 c2 00 00 00 00 	mov    $0x0,%rdx
    4168:	4c 89 ef             	mov    %r13,%rdi
    416b:	e8 00 00 00 00       	call   4170 <delete_node_struct+0xa0>
    4170:	49 8d 7c 24 08       	lea    0x8(%r12),%rdi
    4175:	e8 00 00 00 00       	call   417a <delete_node_struct+0xaa>
    417a:	48 8b 35 00 00 00 00 	mov    0x0(%rip),%rsi        # 4181 <delete_node_struct+0xb1>
    4181:	48 c7 c2 00 00 00 00 	mov    $0x0,%rdx
    4188:	4c 89 ef             	mov    %r13,%rdi
    418b:	e8 00 00 00 00       	call   4190 <delete_node_struct+0xc0>
    4190:	4c 89 e7             	mov    %r12,%rdi
    4193:	e8 00 00 00 00       	call   4198 <delete_node_struct+0xc8>
    4198:	be 04 00 00 00       	mov    $0x4,%esi
    419d:	48 c7 c7 00 00 00 00 	mov    $0x0,%rdi
    41a4:	e8 00 00 00 00       	call   41a9 <delete_node_struct+0xd9>
    41a9:	f0 ff 0d 00 00 00 00 	lock decl 0x0(%rip)        # 41b0 <delete_node_struct+0xe0>
    41b0:	31 c0                	xor    %eax,%eax
    41b2:	41 5c                	pop    %r12
    41b4:	41 5d                	pop    %r13
    41b6:	5d                   	pop    %rbp
    41b7:	e9 00 00 00 00       	jmp    41bc <delete_node_struct+0xec>
    41bc:	b8 ea ff ff ff       	mov    $0xffffffea,%eax
    41c1:	e9 00 00 00 00       	jmp    41c6 <delete_node_struct+0xf6>
    41c6:	66 2e 0f 1f 84 00 00 	cs nopw 0x0(%rax,%rax,1)
    41cd:	00 00 00 

00000000000041d0 <__pfx_deinit_nodes>:
    41d0:	90                   	nop
    41d1:	90                   	nop
    41d2:	90                   	nop
    41d3:	90                   	nop
    41d4:	90                   	nop
    41d5:	90                   	nop
    41d6:	90                   	nop
    41d7:	90                   	nop
    41d8:	90                   	nop
    41d9:	90                   	nop
    41da:	90                   	nop
    41db:	90                   	nop
    41dc:	90                   	nop
    41dd:	90                   	nop
    41de:	90                   	nop
    41df:	90                   	nop

00000000000041e0 <deinit_nodes>:
    41e0:	f3 0f 1e fa          	endbr64
    41e4:	e8 00 00 00 00       	call   41e9 <deinit_nodes+0x9>
    41e9:	55                   	push   %rbp
    41ea:	48 89 e5             	mov    %rsp,%rbp
    41ed:	41 57                	push   %r15
    41ef:	41 56                	push   %r14
    41f1:	41 55                	push   %r13
    41f3:	41 54                	push   %r12
    41f5:	53                   	push   %rbx
    41f6:	48 83 ec 08          	sub    $0x8,%rsp
    41fa:	e8 00 00 00 00       	call   41ff <deinit_nodes+0x1f>
    41ff:	31 d2                	xor    %edx,%edx
    4201:	45 31 c9             	xor    %r9d,%r9d
    4204:	45 31 c0             	xor    %r8d,%r8d
    4207:	48 8d 05 00 00 00 00 	lea    0x0(%rip),%rax        # 420e <deinit_nodes+0x2e>
    420e:	50                   	push   %rax
    420f:	b9 02 00 00 00       	mov    $0x2,%ecx
    4214:	31 f6                	xor    %esi,%esi
    4216:	48 c7 c7 00 00 00 00 	mov    $0x0,%rdi
    421d:	e8 00 00 00 00       	call   4222 <deinit_nodes+0x42>
    4222:	e8 00 00 00 00       	call   4227 <deinit_nodes+0x47>
    4227:	5a                   	pop    %rdx
    4228:	85 c0                	test   %eax,%eax
    422a:	0f 85 8f 02 00 00    	jne    44bf <deinit_nodes+0x2df>
    4230:	48 c7 45 d0 00 00 00 	movq   $0x0,-0x30(%rbp)
    4237:	00 
    4238:	45 31 f6             	xor    %r14d,%r14d
    423b:	49 bc 00 00 00 00 00 	movabs $0xdffffc0000000000,%r12
    4242:	fc ff df 
    4245:	48 8b 45 d0          	mov    -0x30(%rbp),%rax
    4249:	48 63 f0             	movslq %eax,%rsi
    424c:	48 63 d8             	movslq %eax,%rbx
    424f:	48 83 fe 0f          	cmp    $0xf,%rsi
    4253:	0f 87 49 03 00 00    	ja     45a2 <deinit_nodes+0x3c2>
    4259:	48 8b 45 d0          	mov    -0x30(%rbp),%rax
    425d:	49 c7 c5 00 00 00 00 	mov    $0x0,%r13
    4264:	48 8d 3c c5 00 00 00 	lea    0x0(,%rax,8),%rdi
    426b:	00 
    426c:	48 89 f8             	mov    %rdi,%rax
    426f:	48 c1 e8 03          	shr    $0x3,%rax
    4273:	42 80 3c 20 00       	cmpb   $0x0,(%rax,%r12,1)
    4278:	0f 85 60 03 00 00    	jne    45de <deinit_nodes+0x3fe>
    427e:	48 8b 1c dd 00 00 00 	mov    0x0(,%rbx,8),%rbx
    4285:	00 
    4286:	48 85 db             	test   %rbx,%rbx
    4289:	75 2a                	jne    42b5 <deinit_nodes+0xd5>
    428b:	e9 99 00 00 00       	jmp    4329 <deinit_nodes+0x149>
    4290:	48 8d bb 10 02 00 00 	lea    0x210(%rbx),%rdi
    4297:	48 89 f8             	mov    %rdi,%rax
    429a:	48 c1 e8 03          	shr    $0x3,%rax
    429e:	42 80 3c 20 00       	cmpb   $0x0,(%rax,%r12,1)
    42a3:	0f 85 e2 02 00 00    	jne    458b <deinit_nodes+0x3ab>
    42a9:	48 8b 9b 10 02 00 00 	mov    0x210(%rbx),%rbx
    42b0:	48 85 db             	test   %rbx,%rbx
    42b3:	74 74                	je     4329 <deinit_nodes+0x149>
    42b5:	48 81 eb 10 02 00 00 	sub    $0x210,%rbx
    42bc:	74 6b                	je     4329 <deinit_nodes+0x149>
    42be:	48 8d bb 20 02 00 00 	lea    0x220(%rbx),%rdi
    42c5:	be 04 00 00 00       	mov    $0x4,%esi
    42ca:	e8 00 00 00 00       	call   42cf <deinit_nodes+0xef>
    42cf:	31 c0                	xor    %eax,%eax
    42d1:	ba 01 00 00 00       	mov    $0x1,%edx
    42d6:	f0 0f b1 93 20 02 00 	lock cmpxchg %edx,0x220(%rbx)
    42dd:	00 
    42de:	85 c0                	test   %eax,%eax
    42e0:	74 ae                	je     4290 <deinit_nodes+0xb0>
    42e2:	4c 8d bb 24 02 00 00 	lea    0x224(%rbx),%r15
    42e9:	be 04 00 00 00       	mov    $0x4,%esi
    42ee:	4c 89 ff             	mov    %r15,%rdi
    42f1:	e8 00 00 00 00       	call   42f6 <deinit_nodes+0x116>
    42f6:	4c 89 f8             	mov    %r15,%rax
    42f9:	48 c1 e8 03          	shr    $0x3,%rax
    42fd:	42 0f b6 14 20       	movzbl (%rax,%r12,1),%edx
    4302:	4c 89 f8             	mov    %r15,%rax
    4305:	83 e0 07             	and    $0x7,%eax
    4308:	83 c0 03             	add    $0x3,%eax
    430b:	38 d0                	cmp    %dl,%al
    430d:	7c 08                	jl     4317 <deinit_nodes+0x137>
    430f:	84 d2                	test   %dl,%dl
    4311:	0f 85 9c 02 00 00    	jne    45b3 <deinit_nodes+0x3d3>
    4317:	8b 83 24 02 00 00    	mov    0x224(%rbx),%eax
    431d:	83 f8 01             	cmp    $0x1,%eax
    4320:	41 83 d6 00          	adc    $0x0,%r14d
    4324:	e9 67 ff ff ff       	jmp    4290 <deinit_nodes+0xb0>
    4329:	48 83 45 d0 01       	addq   $0x1,-0x30(%rbp)
    432e:	48 8b 45 d0          	mov    -0x30(%rbp),%rax
    4332:	48 83 f8 10          	cmp    $0x10,%rax
    4336:	0f 85 09 ff ff ff    	jne    4245 <deinit_nodes+0x65>
    433c:	e8 00 00 00 00       	call   4341 <deinit_nodes+0x161>
    4341:	85 c0                	test   %eax,%eax
    4343:	0f 85 cd 01 00 00    	jne    4516 <deinit_nodes+0x336>
    4349:	48 c7 c7 00 00 00 00 	mov    $0x0,%rdi
    4350:	48 8d 35 00 00 00 00 	lea    0x0(%rip),%rsi        # 4357 <deinit_nodes+0x177>
    4357:	e8 00 00 00 00       	call   435c <deinit_nodes+0x17c>
    435c:	e8 00 00 00 00       	call   4361 <deinit_nodes+0x181>
    4361:	be 04 00 00 00       	mov    $0x4,%esi
    4366:	48 c7 c7 00 00 00 00 	mov    $0x0,%rdi
    436d:	e8 00 00 00 00       	call   4372 <deinit_nodes+0x192>
    4372:	8b 05 00 00 00 00    	mov    0x0(%rip),%eax        # 4378 <deinit_nodes+0x198>
    4378:	44 39 f0             	cmp    %r14d,%eax
    437b:	74 17                	je     4394 <deinit_nodes+0x1b4>
    437d:	bb 32 00 00 00       	mov    $0x32,%ebx
    4382:	bf 58 89 41 00       	mov    $0x418958,%edi
    4387:	e8 00 00 00 00       	call   438c <deinit_nodes+0x1ac>
    438c:	48 83 eb 01          	sub    $0x1,%rbx
    4390:	75 f0                	jne    4382 <deinit_nodes+0x1a2>
    4392:	eb cd                	jmp    4361 <deinit_nodes+0x181>
    4394:	c7 45 d0 00 00 00 00 	movl   $0x0,-0x30(%rbp)
    439b:	49 be 00 00 00 00 00 	movabs $0xdffffc0000000000,%r14
    43a2:	fc ff df 
    43a5:	48 63 75 d0          	movslq -0x30(%rbp),%rsi
    43a9:	48 83 fe 0f          	cmp    $0xf,%rsi
    43ad:	0f 87 1a 02 00 00    	ja     45cd <deinit_nodes+0x3ed>
    43b3:	4c 89 e8             	mov    %r13,%rax
    43b6:	48 c1 e8 03          	shr    $0x3,%rax
    43ba:	42 80 3c 30 00       	cmpb   $0x0,(%rax,%r14,1)
    43bf:	0f 85 fb 01 00 00    	jne    45c0 <deinit_nodes+0x3e0>
    43c5:	4d 8b 65 00          	mov    0x0(%r13),%r12
    43c9:	4d 85 e4             	test   %r12,%r12
    43cc:	0f 84 c4 00 00 00    	je     4496 <deinit_nodes+0x2b6>
    43d2:	49 81 ec 10 02 00 00 	sub    $0x210,%r12
    43d9:	75 15                	jne    43f0 <deinit_nodes+0x210>
    43db:	e9 b6 00 00 00       	jmp    4496 <deinit_nodes+0x2b6>
    43e0:	48 81 eb 10 02 00 00 	sub    $0x210,%rbx
    43e7:	49 89 dc             	mov    %rbx,%r12
    43ea:	0f 84 a6 00 00 00    	je     4496 <deinit_nodes+0x2b6>
    43f0:	49 8d bc 24 10 02 00 	lea    0x210(%r12),%rdi
    43f7:	00 
    43f8:	48 89 f8             	mov    %rdi,%rax
    43fb:	48 c1 e8 03          	shr    $0x3,%rax
    43ff:	42 80 3c 30 00       	cmpb   $0x0,(%rax,%r14,1)
    4404:	0f 85 63 01 00 00    	jne    456d <deinit_nodes+0x38d>
    440a:	49 8d bc 24 18 02 00 	lea    0x218(%r12),%rdi
    4411:	00 
    4412:	49 8b 9c 24 10 02 00 	mov    0x210(%r12),%rbx
    4419:	00 
    441a:	48 89 f8             	mov    %rdi,%rax
    441d:	48 c1 e8 03          	shr    $0x3,%rax
    4421:	42 80 3c 30 00       	cmpb   $0x0,(%rax,%r14,1)
    4426:	0f 85 4b 01 00 00    	jne    4577 <deinit_nodes+0x397>
    442c:	4d 8b bc 24 18 02 00 	mov    0x218(%r12),%r15
    4433:	00 
    4434:	4d 85 ff             	test   %r15,%r15
    4437:	74 4c                	je     4485 <deinit_nodes+0x2a5>
    4439:	4c 89 f8             	mov    %r15,%rax
    443c:	48 c1 e8 03          	shr    $0x3,%rax
    4440:	42 80 3c 30 00       	cmpb   $0x0,(%rax,%r14,1)
    4445:	0f 85 4a 01 00 00    	jne    4595 <deinit_nodes+0x3b5>
    444b:	49 89 1f             	mov    %rbx,(%r15)
    444e:	48 85 db             	test   %rbx,%rbx
    4451:	74 1a                	je     446d <deinit_nodes+0x28d>
    4453:	48 8d 7b 08          	lea    0x8(%rbx),%rdi
    4457:	48 89 f8             	mov    %rdi,%rax
    445a:	48 c1 e8 03          	shr    $0x3,%rax
    445e:	42 80 3c 30 00       	cmpb   $0x0,(%rax,%r14,1)
    4463:	0f 85 18 01 00 00    	jne    4581 <deinit_nodes+0x3a1>
    4469:	4c 89 7b 08          	mov    %r15,0x8(%rbx)
    446d:	49 c7 84 24 10 02 00 	movq   $0x0,0x210(%r12)
    4474:	00 00 00 00 00 
    4479:	49 c7 84 24 18 02 00 	movq   $0x0,0x218(%r12)
    4480:	00 00 00 00 00 
    4485:	4c 89 e7             	mov    %r12,%rdi
    4488:	e8 00 00 00 00       	call   448d <deinit_nodes+0x2ad>
    448d:	48 85 db             	test   %rbx,%rbx
    4490:	0f 85 4a ff ff ff    	jne    43e0 <deinit_nodes+0x200>
    4496:	83 45 d0 01          	addl   $0x1,-0x30(%rbp)
    449a:	8b 45 d0             	mov    -0x30(%rbp),%eax
    449d:	49 83 c5 08          	add    $0x8,%r13
    44a1:	83 f8 10             	cmp    $0x10,%eax
    44a4:	0f 85 fb fe ff ff    	jne    43a5 <deinit_nodes+0x1c5>
    44aa:	48 8d 65 d8          	lea    -0x28(%rbp),%rsp
    44ae:	31 c0                	xor    %eax,%eax
    44b0:	5b                   	pop    %rbx
    44b1:	41 5c                	pop    %r12
    44b3:	41 5d                	pop    %r13
    44b5:	41 5e                	pop    %r14
    44b7:	41 5f                	pop    %r15
    44b9:	5d                   	pop    %rbp
    44ba:	e9 00 00 00 00       	jmp    44bf <deinit_nodes+0x2df>
    44bf:	e8 00 00 00 00       	call   44c4 <deinit_nodes+0x2e4>
    44c4:	84 c0                	test   %al,%al
    44c6:	0f 85 64 fd ff ff    	jne    4230 <deinit_nodes+0x50>
    44cc:	e8 00 00 00 00       	call   44d1 <deinit_nodes+0x2f1>
    44d1:	85 c0                	test   %eax,%eax
    44d3:	0f 84 57 fd ff ff    	je     4230 <deinit_nodes+0x50>
    44d9:	0f b6 1d 00 00 00 00 	movzbl 0x0(%rip),%ebx        # 44e0 <deinit_nodes+0x300>
    44e0:	80 fb 01             	cmp    $0x1,%bl
    44e3:	0f 87 00 00 00 00    	ja     44e9 <deinit_nodes+0x309>
    44e9:	83 e3 01             	and    $0x1,%ebx
    44ec:	0f 85 3e fd ff ff    	jne    4230 <deinit_nodes+0x50>
    44f2:	48 c7 c2 00 00 00 00 	mov    $0x0,%rdx
    44f9:	be 52 03 00 00       	mov    $0x352,%esi
    44fe:	48 c7 c7 00 00 00 00 	mov    $0x0,%rdi
    4505:	c6 05 00 00 00 00 01 	movb   $0x1,0x0(%rip)        # 450c <deinit_nodes+0x32c>
    450c:	e8 00 00 00 00       	call   4511 <deinit_nodes+0x331>
    4511:	e9 1a fd ff ff       	jmp    4230 <deinit_nodes+0x50>
    4516:	e8 00 00 00 00       	call   451b <deinit_nodes+0x33b>
    451b:	84 c0                	test   %al,%al
    451d:	0f 85 26 fe ff ff    	jne    4349 <deinit_nodes+0x169>
    4523:	e8 00 00 00 00       	call   4528 <deinit_nodes+0x348>
    4528:	85 c0                	test   %eax,%eax
    452a:	0f 84 19 fe ff ff    	je     4349 <deinit_nodes+0x169>
    4530:	0f b6 1d 00 00 00 00 	movzbl 0x0(%rip),%ebx        # 4537 <deinit_nodes+0x357>
    4537:	80 fb 01             	cmp    $0x1,%bl
    453a:	0f 87 00 00 00 00    	ja     4540 <deinit_nodes+0x360>
    4540:	83 e3 01             	and    $0x1,%ebx
    4543:	0f 85 00 fe ff ff    	jne    4349 <deinit_nodes+0x169>
    4549:	48 c7 c2 00 00 00 00 	mov    $0x0,%rdx
    4550:	be 6e 03 00 00       	mov    $0x36e,%esi
    4555:	48 c7 c7 00 00 00 00 	mov    $0x0,%rdi
    455c:	c6 05 00 00 00 00 01 	movb   $0x1,0x0(%rip)        # 4563 <deinit_nodes+0x383>
    4563:	e8 00 00 00 00       	call   4568 <deinit_nodes+0x388>
    4568:	e9 dc fd ff ff       	jmp    4349 <deinit_nodes+0x169>
    456d:	e8 00 00 00 00       	call   4572 <deinit_nodes+0x392>
    4572:	e9 93 fe ff ff       	jmp    440a <deinit_nodes+0x22a>
    4577:	e8 00 00 00 00       	call   457c <deinit_nodes+0x39c>
    457c:	e9 ab fe ff ff       	jmp    442c <deinit_nodes+0x24c>
    4581:	e8 00 00 00 00       	call   4586 <deinit_nodes+0x3a6>
    4586:	e9 de fe ff ff       	jmp    4469 <deinit_nodes+0x289>
    458b:	e8 00 00 00 00       	call   4590 <deinit_nodes+0x3b0>
    4590:	e9 14 fd ff ff       	jmp    42a9 <deinit_nodes+0xc9>
    4595:	4c 89 ff             	mov    %r15,%rdi
    4598:	e8 00 00 00 00       	call   459d <deinit_nodes+0x3bd>
    459d:	e9 a9 fe ff ff       	jmp    444b <deinit_nodes+0x26b>
    45a2:	48 c7 c7 00 00 00 00 	mov    $0x0,%rdi
    45a9:	e8 00 00 00 00       	call   45ae <deinit_nodes+0x3ce>
    45ae:	e9 a6 fc ff ff       	jmp    4259 <deinit_nodes+0x79>
    45b3:	4c 89 ff             	mov    %r15,%rdi
    45b6:	e8 00 00 00 00       	call   45bb <deinit_nodes+0x3db>
    45bb:	e9 57 fd ff ff       	jmp    4317 <deinit_nodes+0x137>
    45c0:	4c 89 ef             	mov    %r13,%rdi
    45c3:	e8 00 00 00 00       	call   45c8 <deinit_nodes+0x3e8>
    45c8:	e9 f8 fd ff ff       	jmp    43c5 <deinit_nodes+0x1e5>
    45cd:	48 c7 c7 00 00 00 00 	mov    $0x0,%rdi
    45d4:	e8 00 00 00 00       	call   45d9 <deinit_nodes+0x3f9>
    45d9:	e9 d5 fd ff ff       	jmp    43b3 <deinit_nodes+0x1d3>
    45de:	e8 00 00 00 00       	call   45e3 <deinit_nodes+0x403>
    45e3:	e9 96 fc ff ff       	jmp    427e <deinit_nodes+0x9e>
    45e8:	0f 1f 84 00 00 00 00 	nopl   0x0(%rax,%rax,1)
    45ef:	00 

00000000000045f0 <__pfx_delete_node_struct_if_unused>:
    45f0:	90                   	nop
    45f1:	90                   	nop
    45f2:	90                   	nop
    45f3:	90                   	nop
    45f4:	90                   	nop
    45f5:	90                   	nop
    45f6:	90                   	nop
    45f7:	90                   	nop
    45f8:	90                   	nop
    45f9:	90                   	nop
    45fa:	90                   	nop
    45fb:	90                   	nop
    45fc:	90                   	nop
    45fd:	90                   	nop
    45fe:	90                   	nop
    45ff:	90                   	nop

0000000000004600 <delete_node_struct_if_unused>:
    4600:	f3 0f 1e fa          	endbr64
    4604:	e8 00 00 00 00       	call   4609 <delete_node_struct_if_unused+0x9>
    4609:	55                   	push   %rbp
    460a:	48 89 e5             	mov    %rsp,%rbp
    460d:	41 55                	push   %r13
    460f:	41 54                	push   %r12
    4611:	48 85 ff             	test   %rdi,%rdi
    4614:	0f 84 d3 00 00 00    	je     46ed <delete_node_struct_if_unused+0xed>
    461a:	49 89 fc             	mov    %rdi,%r12
    461d:	e8 00 00 00 00       	call   4622 <delete_node_struct_if_unused+0x22>
    4622:	4d 8d ac 24 20 02 00 	lea    0x220(%r12),%r13
    4629:	00 
    462a:	be 04 00 00 00       	mov    $0x4,%esi
    462f:	4c 89 ef             	mov    %r13,%rdi
    4632:	e8 00 00 00 00       	call   4637 <delete_node_struct_if_unused+0x37>
    4637:	4c 89 ea             	mov    %r13,%rdx
    463a:	48 b8 00 00 00 00 00 	movabs $0xdffffc0000000000,%rax
    4641:	fc ff df 
    4644:	48 c1 ea 03          	shr    $0x3,%rdx
    4648:	0f b6 14 02          	movzbl (%rdx,%rax,1),%edx
    464c:	4c 89 e8             	mov    %r13,%rax
    464f:	83 e0 07             	and    $0x7,%eax
    4652:	83 c0 03             	add    $0x3,%eax
    4655:	38 d0                	cmp    %dl,%al
    4657:	7c 04                	jl     465d <delete_node_struct_if_unused+0x5d>
    4659:	84 d2                	test   %dl,%dl
    465b:	75 79                	jne    46d6 <delete_node_struct_if_unused+0xd6>
    465d:	41 8b 84 24 20 02 00 	mov    0x220(%r12),%eax
    4664:	00 
    4665:	85 c0                	test   %eax,%eax
    4667:	75 10                	jne    4679 <delete_node_struct_if_unused+0x79>
    4669:	45 31 ed             	xor    %r13d,%r13d
    466c:	44 89 e8             	mov    %r13d,%eax
    466f:	41 5c                	pop    %r12
    4671:	41 5d                	pop    %r13
    4673:	5d                   	pop    %rbp
    4674:	e9 00 00 00 00       	jmp    4679 <delete_node_struct_if_unused+0x79>
    4679:	4d 8d ac 24 24 02 00 	lea    0x224(%r12),%r13
    4680:	00 
    4681:	be 04 00 00 00       	mov    $0x4,%esi
    4686:	4c 89 ef             	mov    %r13,%rdi
    4689:	e8 00 00 00 00       	call   468e <delete_node_struct_if_unused+0x8e>
    468e:	4c 89 ea             	mov    %r13,%rdx
    4691:	48 b8 00 00 00 00 00 	movabs $0xdffffc0000000000,%rax
    4698:	fc ff df 
    469b:	48 c1 ea 03          	shr    $0x3,%rdx
    469f:	0f b6 14 02          	movzbl (%rdx,%rax,1),%edx
    46a3:	4c 89 e8             	mov    %r13,%rax
    46a6:	83 e0 07             	and    $0x7,%eax
    46a9:	83 c0 03             	add    $0x3,%eax
    46ac:	38 d0                	cmp    %dl,%al
    46ae:	7c 04                	jl     46b4 <delete_node_struct_if_unused+0xb4>
    46b0:	84 d2                	test   %dl,%dl
    46b2:	75 2f                	jne    46e3 <delete_node_struct_if_unused+0xe3>
    46b4:	45 8b ac 24 24 02 00 	mov    0x224(%r12),%r13d
    46bb:	00 
    46bc:	45 85 ed             	test   %r13d,%r13d
    46bf:	75 a8                	jne    4669 <delete_node_struct_if_unused+0x69>
    46c1:	4c 89 e7             	mov    %r12,%rdi
    46c4:	e8 00 00 00 00       	call   46c9 <delete_node_struct_if_unused+0xc9>
    46c9:	44 89 e8             	mov    %r13d,%eax
    46cc:	41 5c                	pop    %r12
    46ce:	41 5d                	pop    %r13
    46d0:	5d                   	pop    %rbp
    46d1:	e9 00 00 00 00       	jmp    46d6 <delete_node_struct_if_unused+0xd6>
    46d6:	4c 89 ef             	mov    %r13,%rdi
    46d9:	e8 00 00 00 00       	call   46de <delete_node_struct_if_unused+0xde>
    46de:	e9 7a ff ff ff       	jmp    465d <delete_node_struct_if_unused+0x5d>
    46e3:	4c 89 ef             	mov    %r13,%rdi
    46e6:	e8 00 00 00 00       	call   46eb <delete_node_struct_if_unused+0xeb>
    46eb:	eb c7                	jmp    46b4 <delete_node_struct_if_unused+0xb4>
    46ed:	41 bd ea ff ff ff    	mov    $0xffffffea,%r13d
    46f3:	e9 74 ff ff ff       	jmp    466c <delete_node_struct_if_unused+0x6c>
    46f8:	0f 1f 84 00 00 00 00 	nopl   0x0(%rax,%rax,1)
    46ff:	00 

0000000000004700 <__pfx_mark_node_unused>:
    4700:	90                   	nop
    4701:	90                   	nop
    4702:	90                   	nop
    4703:	90                   	nop
    4704:	90                   	nop
    4705:	90                   	nop
    4706:	90                   	nop
    4707:	90                   	nop
    4708:	90                   	nop
    4709:	90                   	nop
    470a:	90                   	nop
    470b:	90                   	nop
    470c:	90                   	nop
    470d:	90                   	nop
    470e:	90                   	nop
    470f:	90                   	nop

0000000000004710 <mark_node_unused>:
    4710:	f3 0f 1e fa          	endbr64
    4714:	e8 00 00 00 00       	call   4719 <mark_node_unused+0x9>
    4719:	55                   	push   %rbp
    471a:	be 04 00 00 00       	mov    $0x4,%esi
    471f:	48 89 e5             	mov    %rsp,%rbp
    4722:	41 54                	push   %r12
    4724:	4c 8d a7 20 02 00 00 	lea    0x220(%rdi),%r12
    472b:	53                   	push   %rbx
    472c:	48 89 fb             	mov    %rdi,%rbx
    472f:	4c 89 e7             	mov    %r12,%rdi
    4732:	e8 00 00 00 00       	call   4737 <mark_node_unused+0x27>
    4737:	4c 89 e2             	mov    %r12,%rdx
    473a:	48 b8 00 00 00 00 00 	movabs $0xdffffc0000000000,%rax
    4741:	fc ff df 
    4744:	48 c1 ea 03          	shr    $0x3,%rdx
    4748:	0f b6 14 02          	movzbl (%rdx,%rax,1),%edx
    474c:	4c 89 e0             	mov    %r12,%rax
    474f:	83 e0 07             	and    $0x7,%eax
    4752:	83 c0 03             	add    $0x3,%eax
    4755:	38 d0                	cmp    %dl,%al
    4757:	7c 04                	jl     475d <mark_node_unused+0x4d>
    4759:	84 d2                	test   %dl,%dl
    475b:	75 13                	jne    4770 <mark_node_unused+0x60>
    475d:	c7 83 20 02 00 00 00 	movl   $0x0,0x220(%rbx)
    4764:	00 00 00 
    4767:	5b                   	pop    %rbx
    4768:	41 5c                	pop    %r12
    476a:	5d                   	pop    %rbp
    476b:	e9 00 00 00 00       	jmp    4770 <mark_node_unused+0x60>
    4770:	4c 89 e7             	mov    %r12,%rdi
    4773:	e8 00 00 00 00       	call   4778 <mark_node_unused+0x68>
    4778:	eb e3                	jmp    475d <mark_node_unused+0x4d>
    477a:	66 0f 1f 44 00 00    	nopw   0x0(%rax,%rax,1)

0000000000004780 <__pfx_acquire_node>:
    4780:	90                   	nop
    4781:	90                   	nop
    4782:	90                   	nop
    4783:	90                   	nop
    4784:	90                   	nop
    4785:	90                   	nop
    4786:	90                   	nop
    4787:	90                   	nop
    4788:	90                   	nop
    4789:	90                   	nop
    478a:	90                   	nop
    478b:	90                   	nop
    478c:	90                   	nop
    478d:	90                   	nop
    478e:	90                   	nop
    478f:	90                   	nop

0000000000004790 <acquire_node>:
    4790:	f3 0f 1e fa          	endbr64
    4794:	e8 00 00 00 00       	call   4799 <acquire_node+0x9>
    4799:	55                   	push   %rbp
    479a:	48 89 e5             	mov    %rsp,%rbp
    479d:	41 56                	push   %r14
    479f:	41 55                	push   %r13
    47a1:	41 54                	push   %r12
    47a3:	53                   	push   %rbx
    47a4:	48 85 f6             	test   %rsi,%rsi
    47a7:	0f 84 08 02 00 00    	je     49b5 <acquire_node+0x225>
    47ad:	49 89 fe             	mov    %rdi,%r14
    47b0:	49 89 f5             	mov    %rsi,%r13
    47b3:	e8 00 00 00 00       	call   47b8 <acquire_node+0x28>
    47b8:	31 d2                	xor    %edx,%edx
    47ba:	45 31 c9             	xor    %r9d,%r9d
    47bd:	45 31 c0             	xor    %r8d,%r8d
    47c0:	48 8d 05 00 00 00 00 	lea    0x0(%rip),%rax        # 47c7 <acquire_node+0x37>
    47c7:	50                   	push   %rax
    47c8:	b9 02 00 00 00       	mov    $0x2,%ecx
    47cd:	31 f6                	xor    %esi,%esi
    47cf:	48 c7 c7 00 00 00 00 	mov    $0x0,%rdi
    47d6:	e8 00 00 00 00       	call   47db <acquire_node+0x4b>
    47db:	e8 00 00 00 00       	call   47e0 <acquire_node+0x50>
    47e0:	5a                   	pop    %rdx
    47e1:	85 c0                	test   %eax,%eax
    47e3:	0f 85 75 01 00 00    	jne    495e <acquire_node+0x1ce>
    47e9:	48 bb eb 83 b5 80 46 	movabs $0x61c8864680b583eb,%rbx
    47f0:	86 c8 61 
    47f3:	48 b8 00 00 00 00 00 	movabs $0xdffffc0000000000,%rax
    47fa:	fc ff df 
    47fd:	49 0f af de          	imul   %r14,%rbx
    4801:	48 c1 eb 3c          	shr    $0x3c,%rbx
    4805:	48 8d 3c dd 00 00 00 	lea    0x0(,%rbx,8),%rdi
    480c:	00 
    480d:	48 89 fa             	mov    %rdi,%rdx
    4810:	48 c1 ea 03          	shr    $0x3,%rdx
    4814:	80 3c 02 00          	cmpb   $0x0,(%rdx,%rax,1)
    4818:	0f 85 b9 01 00 00    	jne    49d7 <acquire_node+0x247>
    481e:	48 8b 1c dd 00 00 00 	mov    0x0(,%rbx,8),%rbx
    4825:	00 
    4826:	48 85 db             	test   %rbx,%rbx
    4829:	0f 84 d5 00 00 00    	je     4904 <acquire_node+0x174>
    482f:	48 81 eb 10 02 00 00 	sub    $0x210,%rbx
    4836:	0f 84 c8 00 00 00    	je     4904 <acquire_node+0x174>
    483c:	49 bc 00 00 00 00 00 	movabs $0xdffffc0000000000,%r12
    4843:	fc ff df 
    4846:	eb 36                	jmp    487e <acquire_node+0xee>
    4848:	48 8d bb 10 02 00 00 	lea    0x210(%rbx),%rdi
    484f:	48 89 f8             	mov    %rdi,%rax
    4852:	48 c1 e8 03          	shr    $0x3,%rax
    4856:	42 80 3c 20 00       	cmpb   $0x0,(%rax,%r12,1)
    485b:	0f 85 5f 01 00 00    	jne    49c0 <acquire_node+0x230>
    4861:	48 8b 9b 10 02 00 00 	mov    0x210(%rbx),%rbx
    4868:	48 85 db             	test   %rbx,%rbx
    486b:	0f 84 93 00 00 00    	je     4904 <acquire_node+0x174>
    4871:	48 81 eb 10 02 00 00 	sub    $0x210,%rbx
    4878:	0f 84 86 00 00 00    	je     4904 <acquire_node+0x174>
    487e:	48 89 d8             	mov    %rbx,%rax
    4881:	48 c1 e8 03          	shr    $0x3,%rax
    4885:	42 80 3c 20 00       	cmpb   $0x0,(%rax,%r12,1)
    488a:	0f 85 3a 01 00 00    	jne    49ca <acquire_node+0x23a>
    4890:	4c 39 33             	cmp    %r14,(%rbx)
    4893:	75 b3                	jne    4848 <acquire_node+0xb8>
    4895:	48 8d bb 24 02 00 00 	lea    0x224(%rbx),%rdi
    489c:	be 04 00 00 00       	mov    $0x4,%esi
    48a1:	e8 00 00 00 00       	call   48a6 <acquire_node+0x116>
    48a6:	f0 ff 83 24 02 00 00 	lock incl 0x224(%rbx)
    48ad:	48 b8 00 00 00 00 00 	movabs $0xdffffc0000000000,%rax
    48b4:	fc ff df 
    48b7:	4c 89 ea             	mov    %r13,%rdx
    48ba:	48 c1 ea 03          	shr    $0x3,%rdx
    48be:	80 3c 02 00          	cmpb   $0x0,(%rdx,%rax,1)
    48c2:	0f 85 19 01 00 00    	jne    49e1 <acquire_node+0x251>
    48c8:	49 89 5d 00          	mov    %rbx,0x0(%r13)
    48cc:	45 31 e4             	xor    %r12d,%r12d
    48cf:	e8 00 00 00 00       	call   48d4 <acquire_node+0x144>
    48d4:	85 c0                	test   %eax,%eax
    48d6:	75 3b                	jne    4913 <acquire_node+0x183>
    48d8:	48 c7 c7 00 00 00 00 	mov    $0x0,%rdi
    48df:	48 8d 35 00 00 00 00 	lea    0x0(%rip),%rsi        # 48e6 <acquire_node+0x156>
    48e6:	e8 00 00 00 00       	call   48eb <acquire_node+0x15b>
    48eb:	e8 00 00 00 00       	call   48f0 <acquire_node+0x160>
    48f0:	48 8d 65 e0          	lea    -0x20(%rbp),%rsp
    48f4:	44 89 e0             	mov    %r12d,%eax
    48f7:	5b                   	pop    %rbx
    48f8:	41 5c                	pop    %r12
    48fa:	41 5d                	pop    %r13
    48fc:	41 5e                	pop    %r14
    48fe:	5d                   	pop    %rbp
    48ff:	e9 00 00 00 00       	jmp    4904 <acquire_node+0x174>
    4904:	41 bc fe ff ff ff    	mov    $0xfffffffe,%r12d
    490a:	e8 00 00 00 00       	call   490f <acquire_node+0x17f>
    490f:	85 c0                	test   %eax,%eax
    4911:	74 c5                	je     48d8 <acquire_node+0x148>
    4913:	e8 00 00 00 00       	call   4918 <acquire_node+0x188>
    4918:	84 c0                	test   %al,%al
    491a:	75 bc                	jne    48d8 <acquire_node+0x148>
    491c:	e8 00 00 00 00       	call   4921 <acquire_node+0x191>
    4921:	85 c0                	test   %eax,%eax
    4923:	74 b3                	je     48d8 <acquire_node+0x148>
    4925:	0f b6 1d 00 00 00 00 	movzbl 0x0(%rip),%ebx        # 492c <acquire_node+0x19c>
    492c:	80 fb 01             	cmp    $0x1,%bl
    492f:	0f 87 00 00 00 00    	ja     4935 <acquire_node+0x1a5>
    4935:	83 e3 01             	and    $0x1,%ebx
    4938:	75 9e                	jne    48d8 <acquire_node+0x148>
    493a:	48 c7 c2 00 00 00 00 	mov    $0x0,%rdx
    4941:	be 6e 03 00 00       	mov    $0x36e,%esi
    4946:	48 c7 c7 00 00 00 00 	mov    $0x0,%rdi
    494d:	c6 05 00 00 00 00 01 	movb   $0x1,0x0(%rip)        # 4954 <acquire_node+0x1c4>
    4954:	e8 00 00 00 00       	call   4959 <acquire_node+0x1c9>
    4959:	e9 7a ff ff ff       	jmp    48d8 <acquire_node+0x148>
    495e:	e8 00 00 00 00       	call   4963 <acquire_node+0x1d3>
    4963:	84 c0                	test   %al,%al
    4965:	0f 85 7e fe ff ff    	jne    47e9 <acquire_node+0x59>
    496b:	e8 00 00 00 00       	call   4970 <acquire_node+0x1e0>
    4970:	85 c0                	test   %eax,%eax
    4972:	0f 84 71 fe ff ff    	je     47e9 <acquire_node+0x59>
    4978:	0f b6 1d 00 00 00 00 	movzbl 0x0(%rip),%ebx        # 497f <acquire_node+0x1ef>
    497f:	80 fb 01             	cmp    $0x1,%bl
    4982:	0f 87 00 00 00 00    	ja     4988 <acquire_node+0x1f8>
    4988:	83 e3 01             	and    $0x1,%ebx
    498b:	0f 85 58 fe ff ff    	jne    47e9 <acquire_node+0x59>
    4991:	48 c7 c2 00 00 00 00 	mov    $0x0,%rdx
    4998:	be 52 03 00 00       	mov    $0x352,%esi
    499d:	48 c7 c7 00 00 00 00 	mov    $0x0,%rdi
    49a4:	c6 05 00 00 00 00 01 	movb   $0x1,0x0(%rip)        # 49ab <acquire_node+0x21b>
    49ab:	e8 00 00 00 00       	call   49b0 <acquire_node+0x220>
    49b0:	e9 34 fe ff ff       	jmp    47e9 <acquire_node+0x59>
    49b5:	41 bc ea ff ff ff    	mov    $0xffffffea,%r12d
    49bb:	e9 30 ff ff ff       	jmp    48f0 <acquire_node+0x160>
    49c0:	e8 00 00 00 00       	call   49c5 <acquire_node+0x235>
    49c5:	e9 97 fe ff ff       	jmp    4861 <acquire_node+0xd1>
    49ca:	48 89 df             	mov    %rbx,%rdi
    49cd:	e8 00 00 00 00       	call   49d2 <acquire_node+0x242>
    49d2:	e9 b9 fe ff ff       	jmp    4890 <acquire_node+0x100>
    49d7:	e8 00 00 00 00       	call   49dc <acquire_node+0x24c>
    49dc:	e9 3d fe ff ff       	jmp    481e <acquire_node+0x8e>
    49e1:	4c 89 ef             	mov    %r13,%rdi
    49e4:	e8 00 00 00 00       	call   49e9 <acquire_node+0x259>
    49e9:	e9 da fe ff ff       	jmp    48c8 <acquire_node+0x138>
    49ee:	66 90                	xchg   %ax,%ax

00000000000049f0 <__pfx_release_node>:
    49f0:	90                   	nop
    49f1:	90                   	nop
    49f2:	90                   	nop
    49f3:	90                   	nop
    49f4:	90                   	nop
    49f5:	90                   	nop
    49f6:	90                   	nop
    49f7:	90                   	nop
    49f8:	90                   	nop
    49f9:	90                   	nop
    49fa:	90                   	nop
    49fb:	90                   	nop
    49fc:	90                   	nop
    49fd:	90                   	nop
    49fe:	90                   	nop
    49ff:	90                   	nop

0000000000004a00 <release_node>:
    4a00:	f3 0f 1e fa          	endbr64
    4a04:	e8 00 00 00 00       	call   4a09 <release_node+0x9>
    4a09:	48 85 ff             	test   %rdi,%rdi
    4a0c:	74 2c                	je     4a3a <release_node+0x3a>
    4a0e:	55                   	push   %rbp
    4a0f:	be 04 00 00 00       	mov    $0x4,%esi
    4a14:	48 89 e5             	mov    %rsp,%rbp
    4a17:	53                   	push   %rbx
    4a18:	48 89 fb             	mov    %rdi,%rbx
    4a1b:	48 8d bf 24 02 00 00 	lea    0x224(%rdi),%rdi
    4a22:	e8 00 00 00 00       	call   4a27 <release_node+0x27>
    4a27:	f0 ff 8b 24 02 00 00 	lock decl 0x224(%rbx)
    4a2e:	31 c0                	xor    %eax,%eax
    4a30:	48 8b 5d f8          	mov    -0x8(%rbp),%rbx
    4a34:	c9                   	leave
    4a35:	e9 00 00 00 00       	jmp    4a3a <release_node+0x3a>
    4a3a:	b8 ea ff ff ff       	mov    $0xffffffea,%eax
    4a3f:	e9 00 00 00 00       	jmp    4a44 <release_node+0x44>
    4a44:	66 66 2e 0f 1f 84 00 	data16 cs nopw 0x0(%rax,%rax,1)
    4a4b:	00 00 00 00 
    4a4f:	90                   	nop

0000000000004a50 <__pfx_add_position_in_node>:
    4a50:	90                   	nop
    4a51:	90                   	nop
    4a52:	90                   	nop
    4a53:	90                   	nop
    4a54:	90                   	nop
    4a55:	90                   	nop
    4a56:	90                   	nop
    4a57:	90                   	nop
    4a58:	90                   	nop
    4a59:	90                   	nop
    4a5a:	90                   	nop
    4a5b:	90                   	nop
    4a5c:	90                   	nop
    4a5d:	90                   	nop
    4a5e:	90                   	nop
    4a5f:	90                   	nop

0000000000004a60 <add_position_in_node>:
    4a60:	f3 0f 1e fa          	endbr64
    4a64:	e8 00 00 00 00       	call   4a69 <add_position_in_node+0x9>
    4a69:	48 85 ff             	test   %rdi,%rdi
    4a6c:	74 4b                	je     4ab9 <add_position_in_node+0x59>
    4a6e:	55                   	push   %rbp
    4a6f:	48 89 e5             	mov    %rsp,%rbp
    4a72:	41 55                	push   %r13
    4a74:	41 54                	push   %r12
    4a76:	49 89 f4             	mov    %rsi,%r12
    4a79:	53                   	push   %rbx
    4a7a:	48 85 f6             	test   %rsi,%rsi
    4a7d:	74 33                	je     4ab2 <add_position_in_node+0x52>
    4a7f:	4c 8d af 48 01 00 00 	lea    0x148(%rdi),%r13
    4a86:	48 89 fb             	mov    %rdi,%rbx
    4a89:	4c 89 ef             	mov    %r13,%rdi
    4a8c:	e8 00 00 00 00       	call   4a91 <add_position_in_node+0x31>
    4a91:	48 8d 7b 58          	lea    0x58(%rbx),%rdi
    4a95:	4c 89 e6             	mov    %r12,%rsi
    4a98:	e8 00 00 00 00       	call   4a9d <add_position_in_node+0x3d>
    4a9d:	4c 89 ef             	mov    %r13,%rdi
    4aa0:	e8 00 00 00 00       	call   4aa5 <add_position_in_node+0x45>
    4aa5:	31 c0                	xor    %eax,%eax
    4aa7:	5b                   	pop    %rbx
    4aa8:	41 5c                	pop    %r12
    4aaa:	41 5d                	pop    %r13
    4aac:	5d                   	pop    %rbp
    4aad:	e9 00 00 00 00       	jmp    4ab2 <add_position_in_node+0x52>
    4ab2:	b8 ea ff ff ff       	mov    $0xffffffea,%eax
    4ab7:	eb ee                	jmp    4aa7 <add_position_in_node+0x47>
    4ab9:	b8 ea ff ff ff       	mov    $0xffffffea,%eax
    4abe:	e9 00 00 00 00       	jmp    4ac3 <add_position_in_node+0x63>
    4ac3:	66 66 2e 0f 1f 84 00 	data16 cs nopw 0x0(%rax,%rax,1)
    4aca:	00 00 00 00 
    4ace:	66 90                	xchg   %ax,%ax

0000000000004ad0 <__pfx_remove_position_in_node>:
    4ad0:	90                   	nop
    4ad1:	90                   	nop
    4ad2:	90                   	nop
    4ad3:	90                   	nop
    4ad4:	90                   	nop
    4ad5:	90                   	nop
    4ad6:	90                   	nop
    4ad7:	90                   	nop
    4ad8:	90                   	nop
    4ad9:	90                   	nop
    4ada:	90                   	nop
    4adb:	90                   	nop
    4adc:	90                   	nop
    4add:	90                   	nop
    4ade:	90                   	nop
    4adf:	90                   	nop

0000000000004ae0 <remove_position_in_node>:
    4ae0:	f3 0f 1e fa          	endbr64
    4ae4:	e8 00 00 00 00       	call   4ae9 <remove_position_in_node+0x9>
    4ae9:	48 b8 00 00 00 00 00 	movabs $0xdffffc0000000000,%rax
    4af0:	fc ff df 
    4af3:	55                   	push   %rbp
    4af4:	48 89 e5             	mov    %rsp,%rbp
    4af7:	41 57                	push   %r15
    4af9:	41 56                	push   %r14
    4afb:	41 55                	push   %r13
    4afd:	4c 8d 6d 80          	lea    -0x80(%rbp),%r13
    4b01:	41 54                	push   %r12
    4b03:	49 c1 ed 03          	shr    $0x3,%r13
    4b07:	4c 01 e8             	add    %r13,%rax
    4b0a:	48 83 ec 60          	sub    $0x60,%rsp
    4b0e:	48 c7 45 80 b3 8a b5 	movq   $0x41b58ab3,-0x80(%rbp)
    4b15:	41 
    4b16:	48 c7 45 88 00 00 00 	movq   $0x0,-0x78(%rbp)
    4b1d:	00 
    4b1e:	48 c7 45 90 00 00 00 	movq   $0x0,-0x70(%rbp)
    4b25:	00 
    4b26:	c7 00 f1 f1 f1 f1    	movl   $0xf1f1f1f1,(%rax)
    4b2c:	c7 40 04 00 f3 f3 f3 	movl   $0xf3f3f300,0x4(%rax)
    4b33:	65 48 8b 04 25 28 00 	mov    %gs:0x28,%rax
    4b3a:	00 00 
    4b3c:	48 89 45 d8          	mov    %rax,-0x28(%rbp)
    4b40:	31 c0                	xor    %eax,%eax
    4b42:	48 85 ff             	test   %rdi,%rdi
    4b45:	74 7e                	je     4bc5 <remove_position_in_node+0xe5>
    4b47:	49 89 fc             	mov    %rdi,%r12
    4b4a:	4c 8d bf 48 01 00 00 	lea    0x148(%rdi),%r15
    4b51:	48 c7 45 a0 00 00 00 	movq   $0x0,-0x60(%rbp)
    4b58:	00 
    4b59:	4c 89 ff             	mov    %r15,%rdi
    4b5c:	49 83 c4 58          	add    $0x58,%r12
    4b60:	e8 00 00 00 00       	call   4b65 <remove_position_in_node+0x85>
    4b65:	48 8d 75 a0          	lea    -0x60(%rbp),%rsi
    4b69:	4c 89 e7             	mov    %r12,%rdi
    4b6c:	e8 00 00 00 00       	call   4b71 <remove_position_in_node+0x91>
    4b71:	41 89 c6             	mov    %eax,%r14d
    4b74:	85 c0                	test   %eax,%eax
    4b76:	74 3f                	je     4bb7 <remove_position_in_node+0xd7>
    4b78:	4c 89 ff             	mov    %r15,%rdi
    4b7b:	e8 00 00 00 00       	call   4b80 <remove_position_in_node+0xa0>
    4b80:	48 b8 00 00 00 00 00 	movabs $0xdffffc0000000000,%rax
    4b87:	fc ff df 
    4b8a:	49 c7 44 05 00 00 00 	movq   $0x0,0x0(%r13,%rax,1)
    4b91:	00 00 
    4b93:	48 8b 45 d8          	mov    -0x28(%rbp),%rax
    4b97:	65 48 2b 04 25 28 00 	sub    %gs:0x28,%rax
    4b9e:	00 00 
    4ba0:	75 2b                	jne    4bcd <remove_position_in_node+0xed>
    4ba2:	48 83 c4 60          	add    $0x60,%rsp
    4ba6:	44 89 f0             	mov    %r14d,%eax
    4ba9:	41 5c                	pop    %r12
    4bab:	41 5d                	pop    %r13
    4bad:	41 5e                	pop    %r14
    4baf:	41 5f                	pop    %r15
    4bb1:	5d                   	pop    %rbp
    4bb2:	e9 00 00 00 00       	jmp    4bb7 <remove_position_in_node+0xd7>
    4bb7:	48 8b 75 a0          	mov    -0x60(%rbp),%rsi
    4bbb:	4c 89 e7             	mov    %r12,%rdi
    4bbe:	e8 00 00 00 00       	call   4bc3 <remove_position_in_node+0xe3>
    4bc3:	eb b3                	jmp    4b78 <remove_position_in_node+0x98>
    4bc5:	41 be ea ff ff ff    	mov    $0xffffffea,%r14d
    4bcb:	eb b3                	jmp    4b80 <remove_position_in_node+0xa0>
    4bcd:	e8 00 00 00 00       	call   4bd2 <remove_position_in_node+0xf2>
    4bd2:	66 66 2e 0f 1f 84 00 	data16 cs nopw 0x0(%rax,%rax,1)
    4bd9:	00 00 00 00 
    4bdd:	0f 1f 00             	nopl   (%rax)

0000000000004be0 <__pfx_add_subscriber_in_node>:
    4be0:	90                   	nop
    4be1:	90                   	nop
    4be2:	90                   	nop
    4be3:	90                   	nop
    4be4:	90                   	nop
    4be5:	90                   	nop
    4be6:	90                   	nop
    4be7:	90                   	nop
    4be8:	90                   	nop
    4be9:	90                   	nop
    4bea:	90                   	nop
    4beb:	90                   	nop
    4bec:	90                   	nop
    4bed:	90                   	nop
    4bee:	90                   	nop
    4bef:	90                   	nop

0000000000004bf0 <add_subscriber_in_node>:
    4bf0:	f3 0f 1e fa          	endbr64
    4bf4:	e8 00 00 00 00       	call   4bf9 <add_subscriber_in_node+0x9>
    4bf9:	48 b8 00 00 00 00 00 	movabs $0xdffffc0000000000,%rax
    4c00:	fc ff df 
    4c03:	55                   	push   %rbp
    4c04:	48 89 e5             	mov    %rsp,%rbp
    4c07:	41 57                	push   %r15
    4c09:	41 56                	push   %r14
    4c0b:	4c 8d b5 78 ff ff ff 	lea    -0x88(%rbp),%r14
    4c12:	41 55                	push   %r13
    4c14:	49 c1 ee 03          	shr    $0x3,%r14
    4c18:	41 54                	push   %r12
    4c1a:	4c 01 f0             	add    %r14,%rax
    4c1d:	53                   	push   %rbx
    4c1e:	48 83 ec 68          	sub    $0x68,%rsp
    4c22:	48 c7 45 80 00 00 00 	movq   $0x0,-0x80(%rbp)
    4c29:	00 
    4c2a:	48 c7 85 78 ff ff ff 	movq   $0x41b58ab3,-0x88(%rbp)
    4c31:	b3 8a b5 41 
    4c35:	48 c7 45 88 00 00 00 	movq   $0x0,-0x78(%rbp)
    4c3c:	00 
    4c3d:	c7 00 f1 f1 f1 f1    	movl   $0xf1f1f1f1,(%rax)
    4c43:	c7 40 04 00 f3 f3 f3 	movl   $0xf3f3f300,0x4(%rax)
    4c4a:	65 48 8b 04 25 28 00 	mov    %gs:0x28,%rax
    4c51:	00 00 
    4c53:	48 89 45 d0          	mov    %rax,-0x30(%rbp)
    4c57:	31 c0                	xor    %eax,%eax
    4c59:	48 85 ff             	test   %rdi,%rdi
    4c5c:	0f 84 31 01 00 00    	je     4d93 <add_subscriber_in_node+0x1a3>
    4c62:	49 89 f5             	mov    %rsi,%r13
    4c65:	48 85 f6             	test   %rsi,%rsi
    4c68:	0f 84 25 01 00 00    	je     4d93 <add_subscriber_in_node+0x1a3>
    4c6e:	4c 8d a7 b8 00 00 00 	lea    0xb8(%rdi),%r12
    4c75:	48 89 fb             	mov    %rdi,%rbx
    4c78:	4c 89 e7             	mov    %r12,%rdi
    4c7b:	4c 8d bb 48 01 00 00 	lea    0x148(%rbx),%r15
    4c82:	e8 00 00 00 00       	call   4c87 <add_subscriber_in_node+0x97>
    4c87:	4c 89 ee             	mov    %r13,%rsi
    4c8a:	48 8d bb 90 01 00 00 	lea    0x190(%rbx),%rdi
    4c91:	e8 00 00 00 00       	call   4c96 <add_subscriber_in_node+0xa6>
    4c96:	4c 89 e7             	mov    %r12,%rdi
    4c99:	e8 00 00 00 00       	call   4c9e <add_subscriber_in_node+0xae>
    4c9e:	4c 89 ff             	mov    %r15,%rdi
    4ca1:	48 c7 45 98 00 00 00 	movq   $0x0,-0x68(%rbp)
    4ca8:	00 
    4ca9:	e8 00 00 00 00       	call   4cae <add_subscriber_in_node+0xbe>
    4cae:	4c 8d 43 58          	lea    0x58(%rbx),%r8
    4cb2:	48 8d 75 98          	lea    -0x68(%rbp),%rsi
    4cb6:	4c 89 c7             	mov    %r8,%rdi
    4cb9:	4c 89 85 70 ff ff ff 	mov    %r8,-0x90(%rbp)
    4cc0:	e8 00 00 00 00       	call   4cc5 <add_subscriber_in_node+0xd5>
    4cc5:	4c 8b 85 70 ff ff ff 	mov    -0x90(%rbp),%r8
    4ccc:	85 c0                	test   %eax,%eax
    4cce:	41 89 c4             	mov    %eax,%r12d
    4cd1:	74 48                	je     4d1b <add_subscriber_in_node+0x12b>
    4cd3:	83 f8 fe             	cmp    $0xfffffffe,%eax
    4cd6:	74 51                	je     4d29 <add_subscriber_in_node+0x139>
    4cd8:	4c 89 ff             	mov    %r15,%rdi
    4cdb:	e8 00 00 00 00       	call   4ce0 <add_subscriber_in_node+0xf0>
    4ce0:	48 b8 00 00 00 00 00 	movabs $0xdffffc0000000000,%rax
    4ce7:	fc ff df 
    4cea:	49 c7 04 06 00 00 00 	movq   $0x0,(%r14,%rax,1)
    4cf1:	00 
    4cf2:	48 8b 45 d0          	mov    -0x30(%rbp),%rax
    4cf6:	65 48 2b 04 25 28 00 	sub    %gs:0x28,%rax
    4cfd:	00 00 
    4cff:	0f 85 99 00 00 00    	jne    4d9e <add_subscriber_in_node+0x1ae>
    4d05:	48 83 c4 68          	add    $0x68,%rsp
    4d09:	44 89 e0             	mov    %r12d,%eax
    4d0c:	5b                   	pop    %rbx
    4d0d:	41 5c                	pop    %r12
    4d0f:	41 5d                	pop    %r13
    4d11:	41 5e                	pop    %r14
    4d13:	41 5f                	pop    %r15
    4d15:	5d                   	pop    %rbp
    4d16:	e9 00 00 00 00       	jmp    4d1b <add_subscriber_in_node+0x12b>
    4d1b:	48 8b 75 98          	mov    -0x68(%rbp),%rsi
    4d1f:	4c 89 ef             	mov    %r13,%rdi
    4d22:	e8 00 00 00 00       	call   4d27 <add_subscriber_in_node+0x137>
    4d27:	eb af                	jmp    4cd8 <add_subscriber_in_node+0xe8>
    4d29:	4c 89 c7             	mov    %r8,%rdi
    4d2c:	48 8d 75 98          	lea    -0x68(%rbp),%rsi
    4d30:	4c 89 85 70 ff ff ff 	mov    %r8,-0x90(%rbp)
    4d37:	e8 00 00 00 00       	call   4d3c <add_subscriber_in_node+0x14c>
    4d3c:	4c 8b 85 70 ff ff ff 	mov    -0x90(%rbp),%r8
    4d43:	85 c0                	test   %eax,%eax
    4d45:	41 89 c4             	mov    %eax,%r12d
    4d48:	74 08                	je     4d52 <add_subscriber_in_node+0x162>
    4d4a:	41 bc f7 ff ff ff    	mov    $0xfffffff7,%r12d
    4d50:	eb 86                	jmp    4cd8 <add_subscriber_in_node+0xe8>
    4d52:	48 8b 75 98          	mov    -0x68(%rbp),%rsi
    4d56:	4c 89 c7             	mov    %r8,%rdi
    4d59:	e8 00 00 00 00       	call   4d5e <add_subscriber_in_node+0x16e>
    4d5e:	48 8d 7b 08          	lea    0x8(%rbx),%rdi
    4d62:	e8 00 00 00 00       	call   4d67 <add_subscriber_in_node+0x177>
    4d67:	48 8b 7d 98          	mov    -0x68(%rbp),%rdi
    4d6b:	89 c6                	mov    %eax,%esi
    4d6d:	e8 00 00 00 00       	call   4d72 <add_subscriber_in_node+0x182>
    4d72:	48 8b 75 98          	mov    -0x68(%rbp),%rsi
    4d76:	4c 89 ef             	mov    %r13,%rdi
    4d79:	e8 00 00 00 00       	call   4d7e <add_subscriber_in_node+0x18e>
    4d7e:	48 8b 75 98          	mov    -0x68(%rbp),%rsi
    4d82:	48 8b bd 70 ff ff ff 	mov    -0x90(%rbp),%rdi
    4d89:	e8 00 00 00 00       	call   4d8e <add_subscriber_in_node+0x19e>
    4d8e:	e9 45 ff ff ff       	jmp    4cd8 <add_subscriber_in_node+0xe8>
    4d93:	41 bc ea ff ff ff    	mov    $0xffffffea,%r12d
    4d99:	e9 42 ff ff ff       	jmp    4ce0 <add_subscriber_in_node+0xf0>
    4d9e:	e8 00 00 00 00       	call   4da3 <add_subscriber_in_node+0x1b3>
    4da3:	66 66 2e 0f 1f 84 00 	data16 cs nopw 0x0(%rax,%rax,1)
    4daa:	00 00 00 00 
    4dae:	66 90                	xchg   %ax,%ax

0000000000004db0 <__pfx_remove_subscriber_in_node>:
    4db0:	90                   	nop
    4db1:	90                   	nop
    4db2:	90                   	nop
    4db3:	90                   	nop
    4db4:	90                   	nop
    4db5:	90                   	nop
    4db6:	90                   	nop
    4db7:	90                   	nop
    4db8:	90                   	nop
    4db9:	90                   	nop
    4dba:	90                   	nop
    4dbb:	90                   	nop
    4dbc:	90                   	nop
    4dbd:	90                   	nop
    4dbe:	90                   	nop
    4dbf:	90                   	nop

0000000000004dc0 <remove_subscriber_in_node>:
    4dc0:	f3 0f 1e fa          	endbr64
    4dc4:	e8 00 00 00 00       	call   4dc9 <remove_subscriber_in_node+0x9>
    4dc9:	48 85 ff             	test   %rdi,%rdi
    4dcc:	0f 84 bb 00 00 00    	je     4e8d <remove_subscriber_in_node+0xcd>
    4dd2:	55                   	push   %rbp
    4dd3:	48 89 e5             	mov    %rsp,%rbp
    4dd6:	41 57                	push   %r15
    4dd8:	41 56                	push   %r14
    4dda:	41 55                	push   %r13
    4ddc:	41 54                	push   %r12
    4dde:	49 89 f4             	mov    %rsi,%r12
    4de1:	53                   	push   %rbx
    4de2:	48 83 ec 08          	sub    $0x8,%rsp
    4de6:	48 85 f6             	test   %rsi,%rsi
    4de9:	0f 84 97 00 00 00    	je     4e86 <remove_subscriber_in_node+0xc6>
    4def:	4c 8d b7 b8 00 00 00 	lea    0xb8(%rdi),%r14
    4df6:	48 89 fb             	mov    %rdi,%rbx
    4df9:	4c 89 f7             	mov    %r14,%rdi
    4dfc:	4c 8d bb 48 01 00 00 	lea    0x148(%rbx),%r15
    4e03:	e8 00 00 00 00       	call   4e08 <remove_subscriber_in_node+0x48>
    4e08:	4c 89 e7             	mov    %r12,%rdi
    4e0b:	e8 00 00 00 00       	call   4e10 <remove_subscriber_in_node+0x50>
    4e10:	4c 89 ff             	mov    %r15,%rdi
    4e13:	49 89 c5             	mov    %rax,%r13
    4e16:	e8 00 00 00 00       	call   4e1b <remove_subscriber_in_node+0x5b>
    4e1b:	4c 89 e7             	mov    %r12,%rdi
    4e1e:	e8 00 00 00 00       	call   4e23 <remove_subscriber_in_node+0x63>
    4e23:	4c 89 ef             	mov    %r13,%rdi
    4e26:	e8 00 00 00 00       	call   4e2b <remove_subscriber_in_node+0x6b>
    4e2b:	85 c0                	test   %eax,%eax
    4e2d:	75 39                	jne    4e68 <remove_subscriber_in_node+0xa8>
    4e2f:	4c 89 ff             	mov    %r15,%rdi
    4e32:	e8 00 00 00 00       	call   4e37 <remove_subscriber_in_node+0x77>
    4e37:	4c 89 e6             	mov    %r12,%rsi
    4e3a:	48 8d bb 90 01 00 00 	lea    0x190(%rbx),%rdi
    4e41:	e8 00 00 00 00       	call   4e46 <remove_subscriber_in_node+0x86>
    4e46:	4c 89 f7             	mov    %r14,%rdi
    4e49:	e8 00 00 00 00       	call   4e4e <remove_subscriber_in_node+0x8e>
    4e4e:	e8 00 00 00 00       	call   4e53 <remove_subscriber_in_node+0x93>
    4e53:	31 c0                	xor    %eax,%eax
    4e55:	48 83 c4 08          	add    $0x8,%rsp
    4e59:	5b                   	pop    %rbx
    4e5a:	41 5c                	pop    %r12
    4e5c:	41 5d                	pop    %r13
    4e5e:	41 5e                	pop    %r14
    4e60:	41 5f                	pop    %r15
    4e62:	5d                   	pop    %rbp
    4e63:	e9 00 00 00 00       	jmp    4e68 <remove_subscriber_in_node+0xa8>
    4e68:	48 8d 7b 58          	lea    0x58(%rbx),%rdi
    4e6c:	4c 89 ee             	mov    %r13,%rsi
    4e6f:	48 89 7d d0          	mov    %rdi,-0x30(%rbp)
    4e73:	e8 00 00 00 00       	call   4e78 <remove_subscriber_in_node+0xb8>
    4e78:	48 8b 7d d0          	mov    -0x30(%rbp),%rdi
    4e7c:	4c 89 ee             	mov    %r13,%rsi
    4e7f:	e8 00 00 00 00       	call   4e84 <remove_subscriber_in_node+0xc4>
    4e84:	eb a9                	jmp    4e2f <remove_subscriber_in_node+0x6f>
    4e86:	b8 ea ff ff ff       	mov    $0xffffffea,%eax
    4e8b:	eb c8                	jmp    4e55 <remove_subscriber_in_node+0x95>
    4e8d:	b8 ea ff ff ff       	mov    $0xffffffea,%eax
    4e92:	e9 00 00 00 00       	jmp    4e97 <remove_subscriber_in_node+0xd7>
    4e97:	66 0f 1f 84 00 00 00 	nopw   0x0(%rax,%rax,1)
    4e9e:	00 00 

0000000000004ea0 <__pfx_find_subscriber_in_node>:
    4ea0:	90                   	nop
    4ea1:	90                   	nop
    4ea2:	90                   	nop
    4ea3:	90                   	nop
    4ea4:	90                   	nop
    4ea5:	90                   	nop
    4ea6:	90                   	nop
    4ea7:	90                   	nop
    4ea8:	90                   	nop
    4ea9:	90                   	nop
    4eaa:	90                   	nop
    4eab:	90                   	nop
    4eac:	90                   	nop
    4ead:	90                   	nop
    4eae:	90                   	nop
    4eaf:	90                   	nop

0000000000004eb0 <find_subscriber_in_node>:
    4eb0:	f3 0f 1e fa          	endbr64
    4eb4:	e8 00 00 00 00       	call   4eb9 <find_subscriber_in_node+0x9>
    4eb9:	89 f1                	mov    %esi,%ecx
    4ebb:	c1 e9 1f             	shr    $0x1f,%ecx
    4ebe:	48 85 d2             	test   %rdx,%rdx
    4ec1:	0f 94 c0             	sete   %al
    4ec4:	08 c8                	or     %cl,%al
    4ec6:	75 1b                	jne    4ee3 <find_subscriber_in_node+0x33>
    4ec8:	48 85 ff             	test   %rdi,%rdi
    4ecb:	74 16                	je     4ee3 <find_subscriber_in_node+0x33>
    4ecd:	55                   	push   %rbp
    4ece:	48 81 c7 90 01 00 00 	add    $0x190,%rdi
    4ed5:	48 89 e5             	mov    %rsp,%rbp
    4ed8:	e8 00 00 00 00       	call   4edd <find_subscriber_in_node+0x2d>
    4edd:	5d                   	pop    %rbp
    4ede:	e9 00 00 00 00       	jmp    4ee3 <find_subscriber_in_node+0x33>
    4ee3:	b8 ea ff ff ff       	mov    $0xffffffea,%eax
    4ee8:	e9 00 00 00 00       	jmp    4eed <find_subscriber_in_node+0x3d>
    4eed:	0f 1f 00             	nopl   (%rax)

0000000000004ef0 <__pfx_add_publisher_in_node>:
    4ef0:	90                   	nop
    4ef1:	90                   	nop
    4ef2:	90                   	nop
    4ef3:	90                   	nop
    4ef4:	90                   	nop
    4ef5:	90                   	nop
    4ef6:	90                   	nop
    4ef7:	90                   	nop
    4ef8:	90                   	nop
    4ef9:	90                   	nop
    4efa:	90                   	nop
    4efb:	90                   	nop
    4efc:	90                   	nop
    4efd:	90                   	nop
    4efe:	90                   	nop
    4eff:	90                   	nop

0000000000004f00 <add_publisher_in_node>:
    4f00:	f3 0f 1e fa          	endbr64
    4f04:	e8 00 00 00 00       	call   4f09 <add_publisher_in_node+0x9>
    4f09:	55                   	push   %rbp
    4f0a:	48 89 e5             	mov    %rsp,%rbp
    4f0d:	41 55                	push   %r13
    4f0f:	41 54                	push   %r12
    4f11:	53                   	push   %rbx
    4f12:	48 85 ff             	test   %rdi,%rdi
    4f15:	74 42                	je     4f59 <add_publisher_in_node+0x59>
    4f17:	49 89 f4             	mov    %rsi,%r12
    4f1a:	48 85 f6             	test   %rsi,%rsi
    4f1d:	74 3a                	je     4f59 <add_publisher_in_node+0x59>
    4f1f:	4c 8d af 00 01 00 00 	lea    0x100(%rdi),%r13
    4f26:	48 89 fb             	mov    %rdi,%rbx
    4f29:	4c 89 ef             	mov    %r13,%rdi
    4f2c:	e8 00 00 00 00       	call   4f31 <add_publisher_in_node+0x31>
    4f31:	48 8d bb d0 01 00 00 	lea    0x1d0(%rbx),%rdi
    4f38:	4c 89 e6             	mov    %r12,%rsi
    4f3b:	e8 00 00 00 00       	call   4f40 <add_publisher_in_node+0x40>
    4f40:	4c 89 ef             	mov    %r13,%rdi
    4f43:	41 89 c4             	mov    %eax,%r12d
    4f46:	e8 00 00 00 00       	call   4f4b <add_publisher_in_node+0x4b>
    4f4b:	5b                   	pop    %rbx
    4f4c:	44 89 e0             	mov    %r12d,%eax
    4f4f:	41 5c                	pop    %r12
    4f51:	41 5d                	pop    %r13
    4f53:	5d                   	pop    %rbp
    4f54:	e9 00 00 00 00       	jmp    4f59 <add_publisher_in_node+0x59>
    4f59:	41 bc ea ff ff ff    	mov    $0xffffffea,%r12d
    4f5f:	eb ea                	jmp    4f4b <add_publisher_in_node+0x4b>
    4f61:	66 66 2e 0f 1f 84 00 	data16 cs nopw 0x0(%rax,%rax,1)
    4f68:	00 00 00 00 
    4f6c:	0f 1f 40 00          	nopl   0x0(%rax)

0000000000004f70 <__pfx_find_publisher_in_node>:
    4f70:	90                   	nop
    4f71:	90                   	nop
    4f72:	90                   	nop
    4f73:	90                   	nop
    4f74:	90                   	nop
    4f75:	90                   	nop
    4f76:	90                   	nop
    4f77:	90                   	nop
    4f78:	90                   	nop
    4f79:	90                   	nop
    4f7a:	90                   	nop
    4f7b:	90                   	nop
    4f7c:	90                   	nop
    4f7d:	90                   	nop
    4f7e:	90                   	nop
    4f7f:	90                   	nop

0000000000004f80 <find_publisher_in_node>:
    4f80:	f3 0f 1e fa          	endbr64
    4f84:	e8 00 00 00 00       	call   4f89 <find_publisher_in_node+0x9>
    4f89:	89 f1                	mov    %esi,%ecx
    4f8b:	c1 e9 1f             	shr    $0x1f,%ecx
    4f8e:	48 85 d2             	test   %rdx,%rdx
    4f91:	0f 94 c0             	sete   %al
    4f94:	08 c8                	or     %cl,%al
    4f96:	75 1b                	jne    4fb3 <find_publisher_in_node+0x33>
    4f98:	48 85 ff             	test   %rdi,%rdi
    4f9b:	74 16                	je     4fb3 <find_publisher_in_node+0x33>
    4f9d:	55                   	push   %rbp
    4f9e:	48 81 c7 d0 01 00 00 	add    $0x1d0,%rdi
    4fa5:	48 89 e5             	mov    %rsp,%rbp
    4fa8:	e8 00 00 00 00       	call   4fad <find_publisher_in_node+0x2d>
    4fad:	5d                   	pop    %rbp
    4fae:	e9 00 00 00 00       	jmp    4fb3 <find_publisher_in_node+0x33>
    4fb3:	b8 ea ff ff ff       	mov    $0xffffffea,%eax
    4fb8:	e9 00 00 00 00       	jmp    4fbd <find_publisher_in_node+0x3d>
    4fbd:	0f 1f 00             	nopl   (%rax)

0000000000004fc0 <__pfx_remove_publisher_in_node>:
    4fc0:	90                   	nop
    4fc1:	90                   	nop
    4fc2:	90                   	nop
    4fc3:	90                   	nop
    4fc4:	90                   	nop
    4fc5:	90                   	nop
    4fc6:	90                   	nop
    4fc7:	90                   	nop
    4fc8:	90                   	nop
    4fc9:	90                   	nop
    4fca:	90                   	nop
    4fcb:	90                   	nop
    4fcc:	90                   	nop
    4fcd:	90                   	nop
    4fce:	90                   	nop
    4fcf:	90                   	nop

0000000000004fd0 <remove_publisher_in_node>:
    4fd0:	f3 0f 1e fa          	endbr64
    4fd4:	e8 00 00 00 00       	call   4fd9 <remove_publisher_in_node+0x9>
    4fd9:	55                   	push   %rbp
    4fda:	48 89 e5             	mov    %rsp,%rbp
    4fdd:	41 55                	push   %r13
    4fdf:	41 54                	push   %r12
    4fe1:	53                   	push   %rbx
    4fe2:	48 85 ff             	test   %rdi,%rdi
    4fe5:	74 47                	je     502e <remove_publisher_in_node+0x5e>
    4fe7:	49 89 f4             	mov    %rsi,%r12
    4fea:	48 85 f6             	test   %rsi,%rsi
    4fed:	74 3f                	je     502e <remove_publisher_in_node+0x5e>
    4fef:	4c 8d af 00 01 00 00 	lea    0x100(%rdi),%r13
    4ff6:	48 89 fb             	mov    %rdi,%rbx
    4ff9:	4c 89 ef             	mov    %r13,%rdi
    4ffc:	e8 00 00 00 00       	call   5001 <remove_publisher_in_node+0x31>
    5001:	4c 89 e6             	mov    %r12,%rsi
    5004:	48 8d bb d0 01 00 00 	lea    0x1d0(%rbx),%rdi
    500b:	e8 00 00 00 00       	call   5010 <remove_publisher_in_node+0x40>
    5010:	4c 89 ef             	mov    %r13,%rdi
    5013:	41 89 c4             	mov    %eax,%r12d
    5016:	e8 00 00 00 00       	call   501b <remove_publisher_in_node+0x4b>
    501b:	e8 00 00 00 00       	call   5020 <remove_publisher_in_node+0x50>
    5020:	5b                   	pop    %rbx
    5021:	44 89 e0             	mov    %r12d,%eax
    5024:	41 5c                	pop    %r12
    5026:	41 5d                	pop    %r13
    5028:	5d                   	pop    %rbp
    5029:	e9 00 00 00 00       	jmp    502e <remove_publisher_in_node+0x5e>
    502e:	41 bc ea ff ff ff    	mov    $0xffffffea,%r12d
    5034:	eb ea                	jmp    5020 <remove_publisher_in_node+0x50>
    5036:	66 2e 0f 1f 84 00 00 	cs nopw 0x0(%rax,%rax,1)
    503d:	00 00 00 

0000000000005040 <__pfx_add_node>:
    5040:	90                   	nop
    5041:	90                   	nop
    5042:	90                   	nop
    5043:	90                   	nop
    5044:	90                   	nop
    5045:	90                   	nop
    5046:	90                   	nop
    5047:	90                   	nop
    5048:	90                   	nop
    5049:	90                   	nop
    504a:	90                   	nop
    504b:	90                   	nop
    504c:	90                   	nop
    504d:	90                   	nop
    504e:	90                   	nop
    504f:	90                   	nop

0000000000005050 <add_node>:
    5050:	f3 0f 1e fa          	endbr64
    5054:	e8 00 00 00 00       	call   5059 <add_node+0x9>
    5059:	48 85 ff             	test   %rdi,%rdi
    505c:	0f 84 2d 01 00 00    	je     518f <add_node+0x13f>
    5062:	55                   	push   %rbp
    5063:	48 89 e5             	mov    %rsp,%rbp
    5066:	41 57                	push   %r15
    5068:	41 56                	push   %r14
    506a:	41 55                	push   %r13
    506c:	41 54                	push   %r12
    506e:	53                   	push   %rbx
    506f:	48 89 fb             	mov    %rdi,%rbx
    5072:	48 c7 c7 00 00 00 00 	mov    $0x0,%rdi
    5079:	e8 00 00 00 00       	call   507e <add_node+0x2e>
    507e:	48 89 da             	mov    %rbx,%rdx
    5081:	48 b8 00 00 00 00 00 	movabs $0xdffffc0000000000,%rax
    5088:	fc ff df 
    508b:	48 c1 ea 03          	shr    $0x3,%rdx
    508f:	80 3c 02 00          	cmpb   $0x0,(%rdx,%rax,1)
    5093:	0f 85 2b 01 00 00    	jne    51c4 <add_node+0x174>
    5099:	49 bc eb 83 b5 80 46 	movabs $0x61c8864680b583eb,%r12
    50a0:	86 c8 61 
    50a3:	4c 0f af 23          	imul   (%rbx),%r12
    50a7:	48 b8 00 00 00 00 00 	movabs $0xdffffc0000000000,%rax
    50ae:	fc ff df 
    50b1:	4c 8d b3 10 02 00 00 	lea    0x210(%rbx),%r14
    50b8:	49 c1 ec 3c          	shr    $0x3c,%r12
    50bc:	45 89 e5             	mov    %r12d,%r13d
    50bf:	4e 8d 3c e5 00 00 00 	lea    0x0(,%r12,8),%r15
    50c6:	00 
    50c7:	4a 8d 3c ed 00 00 00 	lea    0x0(,%r13,8),%rdi
    50ce:	00 
    50cf:	48 89 fa             	mov    %rdi,%rdx
    50d2:	48 c1 ea 03          	shr    $0x3,%rdx
    50d6:	80 3c 02 00          	cmpb   $0x0,(%rdx,%rax,1)
    50da:	0f 85 da 00 00 00    	jne    51ba <add_node+0x16a>
    50e0:	4c 89 f2             	mov    %r14,%rdx
    50e3:	4e 8b 2c ed 00 00 00 	mov    0x0(,%r13,8),%r13
    50ea:	00 
    50eb:	48 b8 00 00 00 00 00 	movabs $0xdffffc0000000000,%rax
    50f2:	fc ff df 
    50f5:	48 c1 ea 03          	shr    $0x3,%rdx
    50f9:	80 3c 02 00          	cmpb   $0x0,(%rdx,%rax,1)
    50fd:	0f 85 aa 00 00 00    	jne    51ad <add_node+0x15d>
    5103:	48 8d bb 18 02 00 00 	lea    0x218(%rbx),%rdi
    510a:	4c 89 ab 10 02 00 00 	mov    %r13,0x210(%rbx)
    5111:	48 b8 00 00 00 00 00 	movabs $0xdffffc0000000000,%rax
    5118:	fc ff df 
    511b:	48 89 fa             	mov    %rdi,%rdx
    511e:	48 c1 ea 03          	shr    $0x3,%rdx
    5122:	80 3c 02 00          	cmpb   $0x0,(%rdx,%rax,1)
    5126:	75 7b                	jne    51a3 <add_node+0x153>
    5128:	4c 89 bb 18 02 00 00 	mov    %r15,0x218(%rbx)
    512f:	48 b8 00 00 00 00 00 	movabs $0xdffffc0000000000,%rax
    5136:	fc ff df 
    5139:	4c 89 fa             	mov    %r15,%rdx
    513c:	48 c1 ea 03          	shr    $0x3,%rdx
    5140:	80 3c 02 00          	cmpb   $0x0,(%rdx,%rax,1)
    5144:	75 53                	jne    5199 <add_node+0x149>
    5146:	4e 89 34 e5 00 00 00 	mov    %r14,0x0(,%r12,8)
    514d:	00 
    514e:	4d 85 ed             	test   %r13,%r13
    5151:	74 1f                	je     5172 <add_node+0x122>
    5153:	48 b8 00 00 00 00 00 	movabs $0xdffffc0000000000,%rax
    515a:	fc ff df 
    515d:	49 8d 7d 08          	lea    0x8(%r13),%rdi
    5161:	48 89 fa             	mov    %rdi,%rdx
    5164:	48 c1 ea 03          	shr    $0x3,%rdx
    5168:	80 3c 02 00          	cmpb   $0x0,(%rdx,%rax,1)
    516c:	75 63                	jne    51d1 <add_node+0x181>
    516e:	4d 89 75 08          	mov    %r14,0x8(%r13)
    5172:	48 c7 c7 00 00 00 00 	mov    $0x0,%rdi
    5179:	e8 00 00 00 00       	call   517e <add_node+0x12e>
    517e:	31 c0                	xor    %eax,%eax
    5180:	5b                   	pop    %rbx
    5181:	41 5c                	pop    %r12
    5183:	41 5d                	pop    %r13
    5185:	41 5e                	pop    %r14
    5187:	41 5f                	pop    %r15
    5189:	5d                   	pop    %rbp
    518a:	e9 00 00 00 00       	jmp    518f <add_node+0x13f>
    518f:	b8 ea ff ff ff       	mov    $0xffffffea,%eax
    5194:	e9 00 00 00 00       	jmp    5199 <add_node+0x149>
    5199:	4c 89 ff             	mov    %r15,%rdi
    519c:	e8 00 00 00 00       	call   51a1 <add_node+0x151>
    51a1:	eb a3                	jmp    5146 <add_node+0xf6>
    51a3:	e8 00 00 00 00       	call   51a8 <add_node+0x158>
    51a8:	e9 7b ff ff ff       	jmp    5128 <add_node+0xd8>
    51ad:	4c 89 f7             	mov    %r14,%rdi
    51b0:	e8 00 00 00 00       	call   51b5 <add_node+0x165>
    51b5:	e9 49 ff ff ff       	jmp    5103 <add_node+0xb3>
    51ba:	e8 00 00 00 00       	call   51bf <add_node+0x16f>
    51bf:	e9 1c ff ff ff       	jmp    50e0 <add_node+0x90>
    51c4:	48 89 df             	mov    %rbx,%rdi
    51c7:	e8 00 00 00 00       	call   51cc <add_node+0x17c>
    51cc:	e9 c8 fe ff ff       	jmp    5099 <add_node+0x49>
    51d1:	e8 00 00 00 00       	call   51d6 <add_node+0x186>
    51d6:	eb 96                	jmp    516e <add_node+0x11e>
    51d8:	0f 1f 84 00 00 00 00 	nopl   0x0(%rax,%rax,1)
    51df:	00 

00000000000051e0 <__pfx_remove_node>:
    51e0:	90                   	nop
    51e1:	90                   	nop
    51e2:	90                   	nop
    51e3:	90                   	nop
    51e4:	90                   	nop
    51e5:	90                   	nop
    51e6:	90                   	nop
    51e7:	90                   	nop
    51e8:	90                   	nop
    51e9:	90                   	nop
    51ea:	90                   	nop
    51eb:	90                   	nop
    51ec:	90                   	nop
    51ed:	90                   	nop
    51ee:	90                   	nop
    51ef:	90                   	nop

00000000000051f0 <remove_node>:
    51f0:	f3 0f 1e fa          	endbr64
    51f4:	e8 00 00 00 00       	call   51f9 <remove_node+0x9>
    51f9:	48 85 ff             	test   %rdi,%rdi
    51fc:	0f 84 e2 00 00 00    	je     52e4 <remove_node+0xf4>
    5202:	55                   	push   %rbp
    5203:	48 89 e5             	mov    %rsp,%rbp
    5206:	41 55                	push   %r13
    5208:	41 54                	push   %r12
    520a:	53                   	push   %rbx
    520b:	48 89 fb             	mov    %rdi,%rbx
    520e:	48 c7 c7 00 00 00 00 	mov    $0x0,%rdi
    5215:	e8 00 00 00 00       	call   521a <remove_node+0x2a>
    521a:	48 8d bb 18 02 00 00 	lea    0x218(%rbx),%rdi
    5221:	48 b8 00 00 00 00 00 	movabs $0xdffffc0000000000,%rax
    5228:	fc ff df 
    522b:	48 89 fa             	mov    %rdi,%rdx
    522e:	48 c1 ea 03          	shr    $0x3,%rdx
    5232:	80 3c 02 00          	cmpb   $0x0,(%rdx,%rax,1)
    5236:	0f 85 b2 00 00 00    	jne    52ee <remove_node+0xfe>
    523c:	4c 8b a3 18 02 00 00 	mov    0x218(%rbx),%r12
    5243:	4d 85 e4             	test   %r12,%r12
    5246:	74 7e                	je     52c6 <remove_node+0xd6>
    5248:	48 8d bb 10 02 00 00 	lea    0x210(%rbx),%rdi
    524f:	48 b8 00 00 00 00 00 	movabs $0xdffffc0000000000,%rax
    5256:	fc ff df 
    5259:	48 89 fa             	mov    %rdi,%rdx
    525c:	48 c1 ea 03          	shr    $0x3,%rdx
    5260:	80 3c 02 00          	cmpb   $0x0,(%rdx,%rax,1)
    5264:	0f 85 98 00 00 00    	jne    5302 <remove_node+0x112>
    526a:	4c 89 e2             	mov    %r12,%rdx
    526d:	4c 8b ab 10 02 00 00 	mov    0x210(%rbx),%r13
    5274:	48 b8 00 00 00 00 00 	movabs $0xdffffc0000000000,%rax
    527b:	fc ff df 
    527e:	48 c1 ea 03          	shr    $0x3,%rdx
    5282:	80 3c 02 00          	cmpb   $0x0,(%rdx,%rax,1)
    5286:	75 70                	jne    52f8 <remove_node+0x108>
    5288:	4d 89 2c 24          	mov    %r13,(%r12)
    528c:	4d 85 ed             	test   %r13,%r13
    528f:	74 1f                	je     52b0 <remove_node+0xc0>
    5291:	48 b8 00 00 00 00 00 	movabs $0xdffffc0000000000,%rax
    5298:	fc ff df 
    529b:	49 8d 7d 08          	lea    0x8(%r13),%rdi
    529f:	48 89 fa             	mov    %rdi,%rdx
    52a2:	48 c1 ea 03          	shr    $0x3,%rdx
    52a6:	80 3c 02 00          	cmpb   $0x0,(%rdx,%rax,1)
    52aa:	75 60                	jne    530c <remove_node+0x11c>
    52ac:	4d 89 65 08          	mov    %r12,0x8(%r13)
    52b0:	48 c7 83 10 02 00 00 	movq   $0x0,0x210(%rbx)
    52b7:	00 00 00 00 
    52bb:	48 c7 83 18 02 00 00 	movq   $0x0,0x218(%rbx)
    52c2:	00 00 00 00 
    52c6:	48 c7 c7 00 00 00 00 	mov    $0x0,%rdi
    52cd:	e8 00 00 00 00       	call   52d2 <remove_node+0xe2>
    52d2:	e8 00 00 00 00       	call   52d7 <remove_node+0xe7>
    52d7:	31 c0                	xor    %eax,%eax
    52d9:	5b                   	pop    %rbx
    52da:	41 5c                	pop    %r12
    52dc:	41 5d                	pop    %r13
    52de:	5d                   	pop    %rbp
    52df:	e9 00 00 00 00       	jmp    52e4 <remove_node+0xf4>
    52e4:	b8 ea ff ff ff       	mov    $0xffffffea,%eax
    52e9:	e9 00 00 00 00       	jmp    52ee <remove_node+0xfe>
    52ee:	e8 00 00 00 00       	call   52f3 <remove_node+0x103>
    52f3:	e9 44 ff ff ff       	jmp    523c <remove_node+0x4c>
    52f8:	4c 89 e7             	mov    %r12,%rdi
    52fb:	e8 00 00 00 00       	call   5300 <remove_node+0x110>
    5300:	eb 86                	jmp    5288 <remove_node+0x98>
    5302:	e8 00 00 00 00       	call   5307 <remove_node+0x117>
    5307:	e9 5e ff ff ff       	jmp    526a <remove_node+0x7a>
    530c:	e8 00 00 00 00       	call   5311 <remove_node+0x121>
    5311:	eb 99                	jmp    52ac <remove_node+0xbc>
    5313:	66 66 2e 0f 1f 84 00 	data16 cs nopw 0x0(%rax,%rax,1)
    531a:	00 00 00 00 
    531e:	66 90                	xchg   %ax,%ax

0000000000005320 <__pfx_receive_message_from_node>:
    5320:	90                   	nop
    5321:	90                   	nop
    5322:	90                   	nop
    5323:	90                   	nop
    5324:	90                   	nop
    5325:	90                   	nop
    5326:	90                   	nop
    5327:	90                   	nop
    5328:	90                   	nop
    5329:	90                   	nop
    532a:	90                   	nop
    532b:	90                   	nop
    532c:	90                   	nop
    532d:	90                   	nop
    532e:	90                   	nop
    532f:	90                   	nop

0000000000005330 <receive_message_from_node>:
    5330:	f3 0f 1e fa          	endbr64
    5334:	e8 00 00 00 00       	call   5339 <receive_message_from_node+0x9>
    5339:	55                   	push   %rbp
    533a:	48 89 e5             	mov    %rsp,%rbp
    533d:	41 57                	push   %r15
    533f:	41 56                	push   %r14
    5341:	48 8d 85 58 ff ff ff 	lea    -0xa8(%rbp),%rax
    5348:	49 89 d6             	mov    %rdx,%r14
    534b:	41 55                	push   %r13
    534d:	48 c1 e8 03          	shr    $0x3,%rax
    5351:	41 54                	push   %r12
    5353:	48 89 c1             	mov    %rax,%rcx
    5356:	53                   	push   %rbx
    5357:	48 81 ec 98 00 00 00 	sub    $0x98,%rsp
    535e:	48 89 85 48 ff ff ff 	mov    %rax,-0xb8(%rbp)
    5365:	48 b8 00 00 00 00 00 	movabs $0xdffffc0000000000,%rax
    536c:	fc ff df 
    536f:	48 c7 85 58 ff ff ff 	movq   $0x41b58ab3,-0xa8(%rbp)
    5376:	b3 8a b5 41 
    537a:	48 01 c8             	add    %rcx,%rax
    537d:	48 c7 85 60 ff ff ff 	movq   $0x0,-0xa0(%rbp)
    5384:	00 00 00 00 
    5388:	48 c7 85 68 ff ff ff 	movq   $0x0,-0x98(%rbp)
    538f:	00 00 00 00 
    5393:	c7 00 f1 f1 f1 f1    	movl   $0xf1f1f1f1,(%rax)
    5399:	c7 40 04 00 f2 f2 f2 	movl   $0xf2f2f200,0x4(%rax)
    53a0:	c7 40 08 00 f3 f3 f3 	movl   $0xf3f3f300,0x8(%rax)
    53a7:	65 48 8b 04 25 28 00 	mov    %gs:0x28,%rax
    53ae:	00 00 
    53b0:	48 89 45 d0          	mov    %rax,-0x30(%rbp)
    53b4:	31 c0                	xor    %eax,%eax
    53b6:	48 85 d2             	test   %rdx,%rdx
    53b9:	0f 94 c0             	sete   %al
    53bc:	48 85 f6             	test   %rsi,%rsi
    53bf:	0f 94 c2             	sete   %dl
    53c2:	08 d0                	or     %dl,%al
    53c4:	0f 85 7f 02 00 00    	jne    5649 <receive_message_from_node+0x319>
    53ca:	49 89 ff             	mov    %rdi,%r15
    53cd:	48 85 ff             	test   %rdi,%rdi
    53d0:	0f 84 73 02 00 00    	je     5649 <receive_message_from_node+0x319>
    53d6:	48 89 f7             	mov    %rsi,%rdi
    53d9:	49 89 f4             	mov    %rsi,%r12
    53dc:	e8 00 00 00 00       	call   53e1 <receive_message_from_node+0xb1>
    53e1:	48 c7 45 98 00 00 00 	movq   $0x0,-0x68(%rbp)
    53e8:	00 
    53e9:	48 89 c7             	mov    %rax,%rdi
    53ec:	49 89 c5             	mov    %rax,%r13
    53ef:	48 c7 85 78 ff ff ff 	movq   $0x0,-0x88(%rbp)
    53f6:	00 00 00 00 
    53fa:	e8 00 00 00 00       	call   53ff <receive_message_from_node+0xcf>
    53ff:	4c 89 bd 50 ff ff ff 	mov    %r15,-0xb0(%rbp)
    5406:	49 83 c7 08          	add    $0x8,%r15
    540a:	89 c6                	mov    %eax,%esi
    540c:	4c 89 ff             	mov    %r15,%rdi
    540f:	89 c3                	mov    %eax,%ebx
    5411:	e8 00 00 00 00       	call   5416 <receive_message_from_node+0xe6>
    5416:	85 c0                	test   %eax,%eax
    5418:	0f 84 21 02 00 00    	je     563f <receive_message_from_node+0x30f>
    541e:	89 de                	mov    %ebx,%esi
    5420:	4c 89 ff             	mov    %r15,%rdi
    5423:	e8 00 00 00 00       	call   5428 <receive_message_from_node+0xf8>
    5428:	4c 89 f2             	mov    %r14,%rdx
    542b:	4c 89 ff             	mov    %r15,%rdi
    542e:	48 89 c6             	mov    %rax,%rsi
    5431:	e8 00 00 00 00       	call   5436 <receive_message_from_node+0x106>
    5436:	4c 89 e7             	mov    %r12,%rdi
    5439:	e8 00 00 00 00       	call   543e <receive_message_from_node+0x10e>
    543e:	48 8b bd 50 ff ff ff 	mov    -0xb0(%rbp),%rdi
    5445:	4c 8d b7 48 01 00 00 	lea    0x148(%rdi),%r14
    544c:	4c 89 f7             	mov    %r14,%rdi
    544f:	e8 00 00 00 00       	call   5454 <receive_message_from_node+0x124>
    5454:	4c 89 ef             	mov    %r13,%rdi
    5457:	e8 00 00 00 00       	call   545c <receive_message_from_node+0x12c>
    545c:	48 8b bd 50 ff ff ff 	mov    -0xb0(%rbp),%rdi
    5463:	48 8d 4f 58          	lea    0x58(%rdi),%rcx
    5467:	48 89 8d 50 ff ff ff 	mov    %rcx,-0xb0(%rbp)
    546e:	85 c0                	test   %eax,%eax
    5470:	0f 85 9d 00 00 00    	jne    5513 <receive_message_from_node+0x1e3>
    5476:	4c 89 f7             	mov    %r14,%rdi
    5479:	44 8d 7b 01          	lea    0x1(%rbx),%r15d
    547d:	e8 00 00 00 00       	call   5482 <receive_message_from_node+0x152>
    5482:	4c 89 f7             	mov    %r14,%rdi
    5485:	e8 00 00 00 00       	call   548a <receive_message_from_node+0x15a>
    548a:	4c 8d 45 98          	lea    -0x68(%rbp),%r8
    548e:	48 8b bd 50 ff ff ff 	mov    -0xb0(%rbp),%rdi
    5495:	44 89 fe             	mov    %r15d,%esi
    5498:	4c 89 c2             	mov    %r8,%rdx
    549b:	4c 89 85 40 ff ff ff 	mov    %r8,-0xc0(%rbp)
    54a2:	e8 00 00 00 00       	call   54a7 <receive_message_from_node+0x177>
    54a7:	4c 8b 85 40 ff ff ff 	mov    -0xc0(%rbp),%r8
    54ae:	85 c0                	test   %eax,%eax
    54b0:	89 c3                	mov    %eax,%ebx
    54b2:	0f 84 92 00 00 00    	je     554a <receive_message_from_node+0x21a>
    54b8:	83 f8 fe             	cmp    $0xfffffffe,%eax
    54bb:	0f 84 9a 00 00 00    	je     555b <receive_message_from_node+0x22b>
    54c1:	4c 89 f7             	mov    %r14,%rdi
    54c4:	e8 00 00 00 00       	call   54c9 <receive_message_from_node+0x199>
    54c9:	48 b8 00 00 00 00 00 	movabs $0xdffffc0000000000,%rax
    54d0:	fc ff df 
    54d3:	48 03 85 48 ff ff ff 	add    -0xb8(%rbp),%rax
    54da:	48 c7 00 00 00 00 00 	movq   $0x0,(%rax)
    54e1:	c7 40 08 00 00 00 00 	movl   $0x0,0x8(%rax)
    54e8:	48 8b 45 d0          	mov    -0x30(%rbp),%rax
    54ec:	65 48 2b 04 25 28 00 	sub    %gs:0x28,%rax
    54f3:	00 00 
    54f5:	0f 85 58 01 00 00    	jne    5653 <receive_message_from_node+0x323>
    54fb:	48 81 c4 98 00 00 00 	add    $0x98,%rsp
    5502:	89 d8                	mov    %ebx,%eax
    5504:	5b                   	pop    %rbx
    5505:	41 5c                	pop    %r12
    5507:	41 5d                	pop    %r13
    5509:	41 5e                	pop    %r14
    550b:	41 5f                	pop    %r15
    550d:	5d                   	pop    %rbp
    550e:	e9 00 00 00 00       	jmp    5513 <receive_message_from_node+0x1e3>
    5513:	48 89 cf             	mov    %rcx,%rdi
    5516:	4c 89 ee             	mov    %r13,%rsi
    5519:	e8 00 00 00 00       	call   551e <receive_message_from_node+0x1ee>
    551e:	48 8b bd 50 ff ff ff 	mov    -0xb0(%rbp),%rdi
    5525:	4c 89 ee             	mov    %r13,%rsi
    5528:	e8 00 00 00 00       	call   552d <receive_message_from_node+0x1fd>
    552d:	4c 89 ff             	mov    %r15,%rdi
    5530:	e8 00 00 00 00       	call   5535 <receive_message_from_node+0x205>
    5535:	39 d8                	cmp    %ebx,%eax
    5537:	0f 85 39 ff ff ff    	jne    5476 <receive_message_from_node+0x146>
    553d:	4c 89 ff             	mov    %r15,%rdi
    5540:	e8 00 00 00 00       	call   5545 <receive_message_from_node+0x215>
    5545:	e9 2c ff ff ff       	jmp    5476 <receive_message_from_node+0x146>
    554a:	48 8b 75 98          	mov    -0x68(%rbp),%rsi
    554e:	4c 89 e7             	mov    %r12,%rdi
    5551:	e8 00 00 00 00       	call   5556 <receive_message_from_node+0x226>
    5556:	e9 66 ff ff ff       	jmp    54c1 <receive_message_from_node+0x191>
    555b:	48 8b bd 50 ff ff ff 	mov    -0xb0(%rbp),%rdi
    5562:	48 8d 95 78 ff ff ff 	lea    -0x88(%rbp),%rdx
    5569:	4c 89 ee             	mov    %r13,%rsi
    556c:	4c 89 85 40 ff ff ff 	mov    %r8,-0xc0(%rbp)
    5573:	e8 00 00 00 00       	call   5578 <receive_message_from_node+0x248>
    5578:	4c 8b 85 40 ff ff ff 	mov    -0xc0(%rbp),%r8
    557f:	85 c0                	test   %eax,%eax
    5581:	89 c3                	mov    %eax,%ebx
    5583:	74 5e                	je     55e3 <receive_message_from_node+0x2b3>
    5585:	83 f8 fe             	cmp    $0xfffffffe,%eax
    5588:	0f 85 33 ff ff ff    	jne    54c1 <receive_message_from_node+0x191>
    558e:	48 8b bd 50 ff ff ff 	mov    -0xb0(%rbp),%rdi
    5595:	4c 89 c6             	mov    %r8,%rsi
    5598:	e8 00 00 00 00       	call   559d <receive_message_from_node+0x26d>
    559d:	89 c3                	mov    %eax,%ebx
    559f:	85 c0                	test   %eax,%eax
    55a1:	0f 85 1a ff ff ff    	jne    54c1 <receive_message_from_node+0x191>
    55a7:	4c 8b ad 50 ff ff ff 	mov    -0xb0(%rbp),%r13
    55ae:	48 8b 75 98          	mov    -0x68(%rbp),%rsi
    55b2:	4c 89 ef             	mov    %r13,%rdi
    55b5:	e8 00 00 00 00       	call   55ba <receive_message_from_node+0x28a>
    55ba:	48 8b 7d 98          	mov    -0x68(%rbp),%rdi
    55be:	44 89 fe             	mov    %r15d,%esi
    55c1:	e8 00 00 00 00       	call   55c6 <receive_message_from_node+0x296>
    55c6:	48 8b 75 98          	mov    -0x68(%rbp),%rsi
    55ca:	4c 89 e7             	mov    %r12,%rdi
    55cd:	e8 00 00 00 00       	call   55d2 <receive_message_from_node+0x2a2>
    55d2:	48 8b 75 98          	mov    -0x68(%rbp),%rsi
    55d6:	4c 89 ef             	mov    %r13,%rdi
    55d9:	e8 00 00 00 00       	call   55de <receive_message_from_node+0x2ae>
    55de:	e9 de fe ff ff       	jmp    54c1 <receive_message_from_node+0x191>
    55e3:	48 8b bd 50 ff ff ff 	mov    -0xb0(%rbp),%rdi
    55ea:	4c 89 c6             	mov    %r8,%rsi
    55ed:	e8 00 00 00 00       	call   55f2 <receive_message_from_node+0x2c2>
    55f2:	89 c3                	mov    %eax,%ebx
    55f4:	85 c0                	test   %eax,%eax
    55f6:	0f 85 c5 fe ff ff    	jne    54c1 <receive_message_from_node+0x191>
    55fc:	4c 8b ad 50 ff ff ff 	mov    -0xb0(%rbp),%r13
    5603:	48 8b 75 98          	mov    -0x68(%rbp),%rsi
    5607:	4c 89 ef             	mov    %r13,%rdi
    560a:	e8 00 00 00 00       	call   560f <receive_message_from_node+0x2df>
    560f:	48 8b 7d 98          	mov    -0x68(%rbp),%rdi
    5613:	44 89 fe             	mov    %r15d,%esi
    5616:	e8 00 00 00 00       	call   561b <receive_message_from_node+0x2eb>
    561b:	48 8b 75 98          	mov    -0x68(%rbp),%rsi
    561f:	4c 89 e7             	mov    %r12,%rdi
    5622:	e8 00 00 00 00       	call   5627 <receive_message_from_node+0x2f7>
    5627:	48 8b 95 78 ff ff ff 	mov    -0x88(%rbp),%rdx
    562e:	48 8b 75 98          	mov    -0x68(%rbp),%rsi
    5632:	4c 89 ef             	mov    %r13,%rdi
    5635:	e8 00 00 00 00       	call   563a <receive_message_from_node+0x30a>
    563a:	e9 82 fe ff ff       	jmp    54c1 <receive_message_from_node+0x191>
    563f:	bb f5 ff ff ff       	mov    $0xfffffff5,%ebx
    5644:	e9 80 fe ff ff       	jmp    54c9 <receive_message_from_node+0x199>
    5649:	bb ea ff ff ff       	mov    $0xffffffea,%ebx
    564e:	e9 76 fe ff ff       	jmp    54c9 <receive_message_from_node+0x199>
    5653:	e8 00 00 00 00       	call   5658 <receive_message_from_node+0x328>
    5658:	0f 1f 84 00 00 00 00 	nopl   0x0(%rax,%rax,1)
    565f:	00 

0000000000005660 <__pfx_send_message_to_node>:
    5660:	90                   	nop
    5661:	90                   	nop
    5662:	90                   	nop
    5663:	90                   	nop
    5664:	90                   	nop
    5665:	90                   	nop
    5666:	90                   	nop
    5667:	90                   	nop
    5668:	90                   	nop
    5669:	90                   	nop
    566a:	90                   	nop
    566b:	90                   	nop
    566c:	90                   	nop
    566d:	90                   	nop
    566e:	90                   	nop
    566f:	90                   	nop

0000000000005670 <send_message_to_node>:
    5670:	f3 0f 1e fa          	endbr64
    5674:	e8 00 00 00 00       	call   5679 <send_message_to_node+0x9>
    5679:	55                   	push   %rbp
    567a:	48 85 d2             	test   %rdx,%rdx
    567d:	0f 94 c0             	sete   %al
    5680:	48 85 f6             	test   %rsi,%rsi
    5683:	48 89 e5             	mov    %rsp,%rbp
    5686:	41 57                	push   %r15
    5688:	41 56                	push   %r14
    568a:	41 55                	push   %r13
    568c:	41 54                	push   %r12
    568e:	49 89 d4             	mov    %rdx,%r12
    5691:	0f 94 c2             	sete   %dl
    5694:	08 d0                	or     %dl,%al
    5696:	53                   	push   %rbx
    5697:	0f 85 b2 00 00 00    	jne    574f <send_message_to_node+0xdf>
    569d:	49 89 fe             	mov    %rdi,%r14
    56a0:	48 85 ff             	test   %rdi,%rdi
    56a3:	0f 84 a6 00 00 00    	je     574f <send_message_to_node+0xdf>
    56a9:	48 89 f7             	mov    %rsi,%rdi
    56ac:	4d 8d be 48 01 00 00 	lea    0x148(%r14),%r15
    56b3:	49 83 c6 08          	add    $0x8,%r14
    56b7:	31 db                	xor    %ebx,%ebx
    56b9:	e8 00 00 00 00       	call   56be <send_message_to_node+0x4e>
    56be:	4c 89 ff             	mov    %r15,%rdi
    56c1:	49 89 c5             	mov    %rax,%r13
    56c4:	e8 00 00 00 00       	call   56c9 <send_message_to_node+0x59>
    56c9:	4c 89 f7             	mov    %r14,%rdi
    56cc:	e8 00 00 00 00       	call   56d1 <send_message_to_node+0x61>
    56d1:	85 c0                	test   %eax,%eax
    56d3:	74 19                	je     56ee <send_message_to_node+0x7e>
    56d5:	4c 89 ff             	mov    %r15,%rdi
    56d8:	e8 00 00 00 00       	call   56dd <send_message_to_node+0x6d>
    56dd:	89 d8                	mov    %ebx,%eax
    56df:	5b                   	pop    %rbx
    56e0:	41 5c                	pop    %r12
    56e2:	41 5d                	pop    %r13
    56e4:	41 5e                	pop    %r14
    56e6:	41 5f                	pop    %r15
    56e8:	5d                   	pop    %rbp
    56e9:	e9 00 00 00 00       	jmp    56ee <send_message_to_node+0x7e>
    56ee:	4c 89 f7             	mov    %r14,%rdi
    56f1:	e8 00 00 00 00       	call   56f6 <send_message_to_node+0x86>
    56f6:	4c 89 ef             	mov    %r13,%rdi
    56f9:	89 c3                	mov    %eax,%ebx
    56fb:	89 c6                	mov    %eax,%esi
    56fd:	e8 00 00 00 00       	call   5702 <send_message_to_node+0x92>
    5702:	89 de                	mov    %ebx,%esi
    5704:	4c 89 f7             	mov    %r14,%rdi
    5707:	e8 00 00 00 00       	call   570c <send_message_to_node+0x9c>
    570c:	4c 89 ee             	mov    %r13,%rsi
    570f:	4c 89 f7             	mov    %r14,%rdi
    5712:	48 89 c3             	mov    %rax,%rbx
    5715:	e8 00 00 00 00       	call   571a <send_message_to_node+0xaa>
    571a:	4c 89 f7             	mov    %r14,%rdi
    571d:	e8 00 00 00 00       	call   5722 <send_message_to_node+0xb2>
    5722:	4c 89 ff             	mov    %r15,%rdi
    5725:	e8 00 00 00 00       	call   572a <send_message_to_node+0xba>
    572a:	48 89 de             	mov    %rbx,%rsi
    572d:	4c 89 e2             	mov    %r12,%rdx
    5730:	4c 89 f7             	mov    %r14,%rdi
    5733:	e8 00 00 00 00       	call   5738 <send_message_to_node+0xc8>
    5738:	4c 89 ff             	mov    %r15,%rdi
    573b:	89 c3                	mov    %eax,%ebx
    573d:	e8 00 00 00 00       	call   5742 <send_message_to_node+0xd2>
    5742:	4c 89 ee             	mov    %r13,%rsi
    5745:	4c 89 f7             	mov    %r14,%rdi
    5748:	e8 00 00 00 00       	call   574d <send_message_to_node+0xdd>
    574d:	eb 86                	jmp    56d5 <send_message_to_node+0x65>
    574f:	bb ea ff ff ff       	mov    $0xffffffea,%ebx
    5754:	eb 87                	jmp    56dd <send_message_to_node+0x6d>
    5756:	66 2e 0f 1f 84 00 00 	cs nopw 0x0(%rax,%rax,1)
    575d:	00 00 00 

0000000000005760 <__pfx_ps_node_create>:
    5760:	90                   	nop
    5761:	90                   	nop
    5762:	90                   	nop
    5763:	90                   	nop
    5764:	90                   	nop
    5765:	90                   	nop
    5766:	90                   	nop
    5767:	90                   	nop
    5768:	90                   	nop
    5769:	90                   	nop
    576a:	90                   	nop
    576b:	90                   	nop
    576c:	90                   	nop
    576d:	90                   	nop
    576e:	90                   	nop
    576f:	90                   	nop

0000000000005770 <ps_node_create>:
    5770:	f3 0f 1e fa          	endbr64
    5774:	e8 00 00 00 00       	call   5779 <ps_node_create+0x9>
    5779:	55                   	push   %rbp
    577a:	48 89 f1             	mov    %rsi,%rcx
    577d:	49 89 d0             	mov    %rdx,%r8
    5780:	49 b9 00 00 00 00 00 	movabs $0xdffffc0000000000,%r9
    5787:	fc ff df 
    578a:	48 89 e5             	mov    %rsp,%rbp
    578d:	41 57                	push   %r15
    578f:	49 89 ff             	mov    %rdi,%r15
    5792:	41 56                	push   %r14
    5794:	49 89 d6             	mov    %rdx,%r14
    5797:	4c 89 fa             	mov    %r15,%rdx
    579a:	41 55                	push   %r13
    579c:	4c 8d 6d d8          	lea    -0x28(%rbp),%r13
    57a0:	41 54                	push   %r12
    57a2:	4c 8d a5 78 ff ff ff 	lea    -0x88(%rbp),%r12
    57a9:	53                   	push   %rbx
    57aa:	49 c1 ec 03          	shr    $0x3,%r12
    57ae:	48 89 f3             	mov    %rsi,%rbx
    57b1:	4b 8d 04 0c          	lea    (%r12,%r9,1),%rax
    57b5:	48 8d 3d 00 00 00 00 	lea    0x0(%rip),%rdi        # 57bc <ps_node_create+0x4c>
    57bc:	48 83 ec 68          	sub    $0x68,%rsp
    57c0:	48 c7 45 80 00 00 00 	movq   $0x0,-0x80(%rbp)
    57c7:	00 
    57c8:	48 c7 85 78 ff ff ff 	movq   $0x41b58ab3,-0x88(%rbp)
    57cf:	b3 8a b5 41 
    57d3:	48 c7 45 88 00 00 00 	movq   $0x0,-0x78(%rbp)
    57da:	00 
    57db:	c7 00 f1 f1 f1 f1    	movl   $0xf1f1f1f1,(%rax)
    57e1:	c7 40 04 00 f3 f3 f3 	movl   $0xf3f3f300,0x4(%rax)
    57e8:	48 8b 35 00 00 00 00 	mov    0x0(%rip),%rsi        # 57ef <ps_node_create+0x7f>
    57ef:	65 48 8b 04 25 28 00 	mov    %gs:0x28,%rax
    57f6:	00 00 
    57f8:	48 89 45 d0          	mov    %rax,-0x30(%rbp)
    57fc:	31 c0                	xor    %eax,%eax
    57fe:	48 c7 45 98 00 00 00 	movq   $0x0,-0x68(%rbp)
    5805:	00 
    5806:	e8 00 00 00 00       	call   580b <ps_node_create+0x9b>
    580b:	48 8d 55 98          	lea    -0x68(%rbp),%rdx
    580f:	48 89 de             	mov    %rbx,%rsi
    5812:	4c 89 ff             	mov    %r15,%rdi
    5815:	e8 00 00 00 00       	call   581a <ps_node_create+0xaa>
    581a:	48 8b 55 98          	mov    -0x68(%rbp),%rdx
    581e:	49 b9 00 00 00 00 00 	movabs $0xdffffc0000000000,%r9
    5825:	fc ff df 
    5828:	89 c3                	mov    %eax,%ebx
    582a:	48 89 d0             	mov    %rdx,%rax
    582d:	48 c1 e8 03          	shr    $0x3,%rax
    5831:	42 80 3c 08 00       	cmpb   $0x0,(%rax,%r9,1)
    5836:	0f 85 c7 00 00 00    	jne    5903 <ps_node_create+0x193>
    583c:	48 8b 0a             	mov    (%rdx),%rcx
    583f:	48 8b 35 00 00 00 00 	mov    0x0(%rip),%rsi        # 5846 <ps_node_create+0xd6>
    5846:	41 89 d8             	mov    %ebx,%r8d
    5849:	4c 8d 3d 00 00 00 00 	lea    0x0(%rip),%r15        # 5850 <ps_node_create+0xe0>
    5850:	4c 89 ff             	mov    %r15,%rdi
    5853:	e8 00 00 00 00       	call   5858 <ps_node_create+0xe8>
    5858:	85 db                	test   %ebx,%ebx
    585a:	0f 85 8f 00 00 00    	jne    58ef <ps_node_create+0x17f>
    5860:	49 8b 7d c0          	mov    -0x40(%r13),%rdi
    5864:	e8 00 00 00 00       	call   5869 <ps_node_create+0xf9>
    5869:	49 8b 7d c0          	mov    -0x40(%r13),%rdi
    586d:	4c 89 f6             	mov    %r14,%rsi
    5870:	e8 00 00 00 00       	call   5875 <ps_node_create+0x105>
    5875:	89 c3                	mov    %eax,%ebx
    5877:	85 c0                	test   %eax,%eax
    5879:	75 45                	jne    58c0 <ps_node_create+0x150>
    587b:	48 8b 35 00 00 00 00 	mov    0x0(%rip),%rsi        # 5882 <ps_node_create+0x112>
    5882:	4c 89 ff             	mov    %r15,%rdi
    5885:	e8 00 00 00 00       	call   588a <ps_node_create+0x11a>
    588a:	31 c0                	xor    %eax,%eax
    588c:	48 ba 00 00 00 00 00 	movabs $0xdffffc0000000000,%rdx
    5893:	fc ff df 
    5896:	49 c7 04 14 00 00 00 	movq   $0x0,(%r12,%rdx,1)
    589d:	00 
    589e:	48 8b 55 d0          	mov    -0x30(%rbp),%rdx
    58a2:	65 48 2b 14 25 28 00 	sub    %gs:0x28,%rdx
    58a9:	00 00 
    58ab:	75 71                	jne    591e <ps_node_create+0x1ae>
    58ad:	48 83 c4 68          	add    $0x68,%rsp
    58b1:	5b                   	pop    %rbx
    58b2:	41 5c                	pop    %r12
    58b4:	41 5d                	pop    %r13
    58b6:	41 5e                	pop    %r14
    58b8:	41 5f                	pop    %r15
    58ba:	5d                   	pop    %rbp
    58bb:	e9 00 00 00 00       	jmp    58c0 <ps_node_create+0x150>
    58c0:	48 8b 35 00 00 00 00 	mov    0x0(%rip),%rsi        # 58c7 <ps_node_create+0x157>
    58c7:	4c 89 ff             	mov    %r15,%rdi
    58ca:	e8 00 00 00 00       	call   58cf <ps_node_create+0x15f>
    58cf:	49 8b 7d c0          	mov    -0x40(%r13),%rdi
    58d3:	e8 00 00 00 00       	call   58d8 <ps_node_create+0x168>
    58d8:	49 8b 7d c0          	mov    -0x40(%r13),%rdi
    58dc:	e8 00 00 00 00       	call   58e1 <ps_node_create+0x171>
    58e1:	49 8b 7d c0          	mov    -0x40(%r13),%rdi
    58e5:	e8 00 00 00 00       	call   58ea <ps_node_create+0x17a>
    58ea:	48 63 c3             	movslq %ebx,%rax
    58ed:	eb 9d                	jmp    588c <ps_node_create+0x11c>
    58ef:	48 8b 35 00 00 00 00 	mov    0x0(%rip),%rsi        # 58f6 <ps_node_create+0x186>
    58f6:	4c 89 ff             	mov    %r15,%rdi
    58f9:	e8 00 00 00 00       	call   58fe <ps_node_create+0x18e>
    58fe:	48 63 c3             	movslq %ebx,%rax
    5901:	eb 89                	jmp    588c <ps_node_create+0x11c>
    5903:	48 89 d7             	mov    %rdx,%rdi
    5906:	48 89 95 70 ff ff ff 	mov    %rdx,-0x90(%rbp)
    590d:	e8 00 00 00 00       	call   5912 <ps_node_create+0x1a2>
    5912:	48 8b 95 70 ff ff ff 	mov    -0x90(%rbp),%rdx
    5919:	e9 1e ff ff ff       	jmp    583c <ps_node_create+0xcc>
    591e:	e8 00 00 00 00       	call   5923 <ps_node_create+0x1b3>
    5923:	66 66 2e 0f 1f 84 00 	data16 cs nopw 0x0(%rax,%rax,1)
    592a:	00 00 00 00 
    592e:	66 90                	xchg   %ax,%ax

0000000000005930 <__pfx_ps_node_delete>:
    5930:	90                   	nop
    5931:	90                   	nop
    5932:	90                   	nop
    5933:	90                   	nop
    5934:	90                   	nop
    5935:	90                   	nop
    5936:	90                   	nop
    5937:	90                   	nop
    5938:	90                   	nop
    5939:	90                   	nop
    593a:	90                   	nop
    593b:	90                   	nop
    593c:	90                   	nop
    593d:	90                   	nop
    593e:	90                   	nop
    593f:	90                   	nop

0000000000005940 <ps_node_delete>:
    5940:	f3 0f 1e fa          	endbr64
    5944:	e8 00 00 00 00       	call   5949 <ps_node_delete+0x9>
    5949:	48 b8 00 00 00 00 00 	movabs $0xdffffc0000000000,%rax
    5950:	fc ff df 
    5953:	55                   	push   %rbp
    5954:	48 89 e5             	mov    %rsp,%rbp
    5957:	41 55                	push   %r13
    5959:	41 54                	push   %r12
    595b:	48 8d 75 a8          	lea    -0x58(%rbp),%rsi
    595f:	53                   	push   %rbx
    5960:	48 8d 5d 88          	lea    -0x78(%rbp),%rbx
    5964:	48 c1 eb 03          	shr    $0x3,%rbx
    5968:	48 01 d8             	add    %rbx,%rax
    596b:	48 83 ec 60          	sub    $0x60,%rsp
    596f:	48 c7 45 88 b3 8a b5 	movq   $0x41b58ab3,-0x78(%rbp)
    5976:	41 
    5977:	48 c7 45 90 00 00 00 	movq   $0x0,-0x70(%rbp)
    597e:	00 
    597f:	48 c7 45 98 00 00 00 	movq   $0x0,-0x68(%rbp)
    5986:	00 
    5987:	c7 00 f1 f1 f1 f1    	movl   $0xf1f1f1f1,(%rax)
    598d:	c7 40 04 00 f3 f3 f3 	movl   $0xf3f3f300,0x4(%rax)
    5994:	4c 8d 2d 00 00 00 00 	lea    0x0(%rip),%r13        # 599b <ps_node_delete+0x5b>
    599b:	65 48 8b 04 25 28 00 	mov    %gs:0x28,%rax
    59a2:	00 00 
    59a4:	48 89 45 e0          	mov    %rax,-0x20(%rbp)
    59a8:	31 c0                	xor    %eax,%eax
    59aa:	48 c7 45 a8 00 00 00 	movq   $0x0,-0x58(%rbp)
    59b1:	00 
    59b2:	e8 00 00 00 00       	call   59b7 <ps_node_delete+0x77>
    59b7:	48 8b 4d a8          	mov    -0x58(%rbp),%rcx
    59bb:	48 8b 35 00 00 00 00 	mov    0x0(%rip),%rsi        # 59c2 <ps_node_delete+0x82>
    59c2:	4c 89 ef             	mov    %r13,%rdi
    59c5:	4c 63 e0             	movslq %eax,%r12
    59c8:	4c 89 e2             	mov    %r12,%rdx
    59cb:	e8 00 00 00 00       	call   59d0 <ps_node_delete+0x90>
    59d0:	4d 85 e4             	test   %r12,%r12
    59d3:	75 33                	jne    5a08 <ps_node_delete+0xc8>
    59d5:	48 8b 7d a8          	mov    -0x58(%rbp),%rdi
    59d9:	e8 00 00 00 00       	call   59de <ps_node_delete+0x9e>
    59de:	48 8b 35 00 00 00 00 	mov    0x0(%rip),%rsi        # 59e5 <ps_node_delete+0xa5>
    59e5:	4c 89 ef             	mov    %r13,%rdi
    59e8:	e8 00 00 00 00       	call   59ed <ps_node_delete+0xad>
    59ed:	48 8b 7d a8          	mov    -0x58(%rbp),%rdi
    59f1:	e8 00 00 00 00       	call   59f6 <ps_node_delete+0xb6>
    59f6:	48 8b 7d a8          	mov    -0x58(%rbp),%rdi
    59fa:	e8 00 00 00 00       	call   59ff <ps_node_delete+0xbf>
    59ff:	48 8b 7d a8          	mov    -0x58(%rbp),%rdi
    5a03:	e8 00 00 00 00       	call   5a08 <ps_node_delete+0xc8>
    5a08:	48 b8 00 00 00 00 00 	movabs $0xdffffc0000000000,%rax
    5a0f:	fc ff df 
    5a12:	48 c7 04 03 00 00 00 	movq   $0x0,(%rbx,%rax,1)
    5a19:	00 
    5a1a:	48 8b 45 e0          	mov    -0x20(%rbp),%rax
    5a1e:	65 48 2b 04 25 28 00 	sub    %gs:0x28,%rax
    5a25:	00 00 
    5a27:	75 12                	jne    5a3b <ps_node_delete+0xfb>
    5a29:	48 83 c4 60          	add    $0x60,%rsp
    5a2d:	4c 89 e0             	mov    %r12,%rax
    5a30:	5b                   	pop    %rbx
    5a31:	41 5c                	pop    %r12
    5a33:	41 5d                	pop    %r13
    5a35:	5d                   	pop    %rbp
    5a36:	e9 00 00 00 00       	jmp    5a3b <ps_node_delete+0xfb>
    5a3b:	e8 00 00 00 00       	call   5a40 <__pfx_ps_node_subscribe>

0000000000005a40 <__pfx_ps_node_subscribe>:
    5a40:	90                   	nop
    5a41:	90                   	nop
    5a42:	90                   	nop
    5a43:	90                   	nop
    5a44:	90                   	nop
    5a45:	90                   	nop
    5a46:	90                   	nop
    5a47:	90                   	nop
    5a48:	90                   	nop
    5a49:	90                   	nop
    5a4a:	90                   	nop
    5a4b:	90                   	nop
    5a4c:	90                   	nop
    5a4d:	90                   	nop
    5a4e:	90                   	nop
    5a4f:	90                   	nop

0000000000005a50 <ps_node_subscribe>:
    5a50:	f3 0f 1e fa          	endbr64
    5a54:	e8 00 00 00 00       	call   5a59 <ps_node_subscribe+0x9>
    5a59:	48 ba 00 00 00 00 00 	movabs $0xdffffc0000000000,%rdx
    5a60:	fc ff df 
    5a63:	55                   	push   %rbp
    5a64:	48 89 e5             	mov    %rsp,%rbp
    5a67:	41 57                	push   %r15
    5a69:	49 89 ff             	mov    %rdi,%r15
    5a6c:	41 56                	push   %r14
    5a6e:	4c 8d 75 d8          	lea    -0x28(%rbp),%r14
    5a72:	41 55                	push   %r13
    5a74:	41 54                	push   %r12
    5a76:	4c 8d a5 38 ff ff ff 	lea    -0xc8(%rbp),%r12
    5a7d:	53                   	push   %rbx
    5a7e:	49 c1 ec 03          	shr    $0x3,%r12
    5a82:	49 8d 04 14          	lea    (%r12,%rdx,1),%rax
    5a86:	65 48 8b 1d 00 00 00 	mov    %gs:0x0(%rip),%rbx        # 5a8e <ps_node_subscribe+0x3e>
    5a8d:	00 
    5a8e:	48 81 ec b0 00 00 00 	sub    $0xb0,%rsp
    5a95:	48 8d bb 00 0a 00 00 	lea    0xa00(%rbx),%rdi
    5a9c:	48 c7 85 38 ff ff ff 	movq   $0x41b58ab3,-0xc8(%rbp)
    5aa3:	b3 8a b5 41 
    5aa7:	48 c7 85 40 ff ff ff 	movq   $0x0,-0xc0(%rbp)
    5aae:	00 00 00 00 
    5ab2:	48 c7 85 48 ff ff ff 	movq   $0x0,-0xb8(%rbp)
    5ab9:	00 00 00 00 
    5abd:	c7 00 f1 f1 f1 f1    	movl   $0xf1f1f1f1,(%rax)
    5ac3:	c7 40 04 00 f2 f2 f2 	movl   $0xf2f2f200,0x4(%rax)
    5aca:	c7 40 08 00 f2 f2 f2 	movl   $0xf2f2f200,0x8(%rax)
    5ad1:	c7 40 0c 00 f3 f3 f3 	movl   $0xf3f3f300,0xc(%rax)
    5ad8:	65 48 8b 04 25 28 00 	mov    %gs:0x28,%rax
    5adf:	00 00 
    5ae1:	48 89 45 d0          	mov    %rax,-0x30(%rbp)
    5ae5:	31 c0                	xor    %eax,%eax
    5ae7:	48 89 f8             	mov    %rdi,%rax
    5aea:	48 c1 e8 03          	shr    $0x3,%rax
    5aee:	0f b6 04 10          	movzbl (%rax,%rdx,1),%eax
    5af2:	84 c0                	test   %al,%al
    5af4:	74 08                	je     5afe <ps_node_subscribe+0xae>
    5af6:	3c 03                	cmp    $0x3,%al
    5af8:	0f 8e ea 01 00 00    	jle    5ce8 <ps_node_subscribe+0x298>
    5afe:	8b 9b 00 0a 00 00    	mov    0xa00(%rbx),%ebx
    5b04:	48 8b 35 00 00 00 00 	mov    0x0(%rip),%rsi        # 5b0b <ps_node_subscribe+0xbb>
    5b0b:	4c 89 fa             	mov    %r15,%rdx
    5b0e:	49 c7 46 80 00 00 00 	movq   $0x0,-0x80(%r14)
    5b15:	00 
    5b16:	4c 8d 2d 00 00 00 00 	lea    0x0(%rip),%r13        # 5b1d <ps_node_subscribe+0xcd>
    5b1d:	4c 89 ef             	mov    %r13,%rdi
    5b20:	89 9d 34 ff ff ff    	mov    %ebx,-0xcc(%rbp)
    5b26:	49 c7 46 a0 00 00 00 	movq   $0x0,-0x60(%r14)
    5b2d:	00 
    5b2e:	49 c7 46 c0 00 00 00 	movq   $0x0,-0x40(%r14)
    5b35:	00 
    5b36:	e8 00 00 00 00       	call   5b3b <ps_node_subscribe+0xeb>
    5b3b:	49 8d 46 a0          	lea    -0x60(%r14),%rax
    5b3f:	89 df                	mov    %ebx,%edi
    5b41:	48 89 c6             	mov    %rax,%rsi
    5b44:	48 89 85 28 ff ff ff 	mov    %rax,-0xd8(%rbp)
    5b4b:	e8 00 00 00 00       	call   5b50 <ps_node_subscribe+0x100>
    5b50:	49 8b 56 a0          	mov    -0x60(%r14),%rdx
    5b54:	48 8b 35 00 00 00 00 	mov    0x0(%rip),%rsi        # 5b5b <ps_node_subscribe+0x10b>
    5b5b:	4c 89 ef             	mov    %r13,%rdi
    5b5e:	89 c3                	mov    %eax,%ebx
    5b60:	89 c1                	mov    %eax,%ecx
    5b62:	e8 00 00 00 00       	call   5b67 <ps_node_subscribe+0x117>
    5b67:	85 db                	test   %ebx,%ebx
    5b69:	74 4a                	je     5bb5 <ps_node_subscribe+0x165>
    5b6b:	48 63 c3             	movslq %ebx,%rax
    5b6e:	48 ba 00 00 00 00 00 	movabs $0xdffffc0000000000,%rdx
    5b75:	fc ff df 
    5b78:	49 01 d4             	add    %rdx,%r12
    5b7b:	49 c7 04 24 00 00 00 	movq   $0x0,(%r12)
    5b82:	00 
    5b83:	49 c7 44 24 08 00 00 	movq   $0x0,0x8(%r12)
    5b8a:	00 00 
    5b8c:	48 8b 55 d0          	mov    -0x30(%rbp),%rdx
    5b90:	65 48 2b 14 25 28 00 	sub    %gs:0x28,%rdx
    5b97:	00 00 
    5b99:	0f 85 53 01 00 00    	jne    5cf2 <ps_node_subscribe+0x2a2>
    5b9f:	48 81 c4 b0 00 00 00 	add    $0xb0,%rsp
    5ba6:	5b                   	pop    %rbx
    5ba7:	41 5c                	pop    %r12
    5ba9:	41 5d                	pop    %r13
    5bab:	41 5e                	pop    %r14
    5bad:	41 5f                	pop    %r15
    5baf:	5d                   	pop    %rbp
    5bb0:	e9 00 00 00 00       	jmp    5bb5 <ps_node_subscribe+0x165>
    5bb5:	49 8d 7e c0          	lea    -0x40(%r14),%rdi
    5bb9:	e8 00 00 00 00       	call   5bbe <ps_node_subscribe+0x16e>
    5bbe:	49 8b 56 c0          	mov    -0x40(%r14),%rdx
    5bc2:	48 8b 35 00 00 00 00 	mov    0x0(%rip),%rsi        # 5bc9 <ps_node_subscribe+0x179>
    5bc9:	4c 89 ef             	mov    %r13,%rdi
    5bcc:	89 c3                	mov    %eax,%ebx
    5bce:	89 c1                	mov    %eax,%ecx
    5bd0:	e8 00 00 00 00       	call   5bd5 <ps_node_subscribe+0x185>
    5bd5:	85 db                	test   %ebx,%ebx
    5bd7:	0f 85 d4 00 00 00    	jne    5cb1 <ps_node_subscribe+0x261>
    5bdd:	49 8d 76 80          	lea    -0x80(%r14),%rsi
    5be1:	4c 89 ff             	mov    %r15,%rdi
    5be4:	e8 00 00 00 00       	call   5be9 <ps_node_subscribe+0x199>
    5be9:	49 8b 56 80          	mov    -0x80(%r14),%rdx
    5bed:	4c 89 f9             	mov    %r15,%rcx
    5bf0:	4c 89 ef             	mov    %r13,%rdi
    5bf3:	48 8b 35 00 00 00 00 	mov    0x0(%rip),%rsi        # 5bfa <ps_node_subscribe+0x1aa>
    5bfa:	89 c3                	mov    %eax,%ebx
    5bfc:	e8 00 00 00 00       	call   5c01 <ps_node_subscribe+0x1b1>
    5c01:	85 db                	test   %ebx,%ebx
    5c03:	0f 85 c8 00 00 00    	jne    5cd1 <ps_node_subscribe+0x281>
    5c09:	49 8b 7e 80          	mov    -0x80(%r14),%rdi
    5c0d:	48 8b 95 28 ff ff ff 	mov    -0xd8(%rbp),%rdx
    5c14:	8b b5 34 ff ff ff    	mov    -0xcc(%rbp),%esi
    5c1a:	e8 00 00 00 00       	call   5c1f <ps_node_subscribe+0x1cf>
    5c1f:	49 8b 56 a0          	mov    -0x60(%r14),%rdx
    5c23:	48 8b 35 00 00 00 00 	mov    0x0(%rip),%rsi        # 5c2a <ps_node_subscribe+0x1da>
    5c2a:	4c 89 ef             	mov    %r13,%rdi
    5c2d:	89 c3                	mov    %eax,%ebx
    5c2f:	89 c1                	mov    %eax,%ecx
    5c31:	e8 00 00 00 00       	call   5c36 <ps_node_subscribe+0x1e6>
    5c36:	83 fb fe             	cmp    $0xfffffffe,%ebx
    5c39:	74 4b                	je     5c86 <ps_node_subscribe+0x236>
    5c3b:	49 8b 7e c0          	mov    -0x40(%r14),%rdi
    5c3f:	e8 00 00 00 00       	call   5c44 <ps_node_subscribe+0x1f4>
    5c44:	49 8b 7e a0          	mov    -0x60(%r14),%rdi
    5c48:	e8 00 00 00 00       	call   5c4d <ps_node_subscribe+0x1fd>
    5c4d:	48 8b 35 00 00 00 00 	mov    0x0(%rip),%rsi        # 5c54 <ps_node_subscribe+0x204>
    5c54:	4c 89 ef             	mov    %r13,%rdi
    5c57:	e8 00 00 00 00       	call   5c5c <ps_node_subscribe+0x20c>
    5c5c:	49 8b 7e 80          	mov    -0x80(%r14),%rdi
    5c60:	e8 00 00 00 00       	call   5c65 <ps_node_subscribe+0x215>
    5c65:	49 8b 7e 80          	mov    -0x80(%r14),%rdi
    5c69:	e8 00 00 00 00       	call   5c6e <ps_node_subscribe+0x21e>
    5c6e:	48 8b 35 00 00 00 00 	mov    0x0(%rip),%rsi        # 5c75 <ps_node_subscribe+0x225>
    5c75:	48 8d 3d 00 00 00 00 	lea    0x0(%rip),%rdi        # 5c7c <ps_node_subscribe+0x22c>
    5c7c:	e8 00 00 00 00       	call   5c81 <ps_node_subscribe+0x231>
    5c81:	e9 e5 fe ff ff       	jmp    5b6b <ps_node_subscribe+0x11b>
    5c86:	49 8b 76 c0          	mov    -0x40(%r14),%rsi
    5c8a:	49 8b 7e 80          	mov    -0x80(%r14),%rdi
    5c8e:	e8 00 00 00 00       	call   5c93 <ps_node_subscribe+0x243>
    5c93:	49 8b 76 a0          	mov    -0x60(%r14),%rsi
    5c97:	49 8b 7e 80          	mov    -0x80(%r14),%rdi
    5c9b:	e8 00 00 00 00       	call   5ca0 <ps_node_subscribe+0x250>
    5ca0:	48 8b 35 00 00 00 00 	mov    0x0(%rip),%rsi        # 5ca7 <ps_node_subscribe+0x257>
    5ca7:	4c 89 ef             	mov    %r13,%rdi
    5caa:	e8 00 00 00 00       	call   5caf <ps_node_subscribe+0x25f>
    5caf:	eb ab                	jmp    5c5c <ps_node_subscribe+0x20c>
    5cb1:	49 8b 7e a0          	mov    -0x60(%r14),%rdi
    5cb5:	e8 00 00 00 00       	call   5cba <ps_node_subscribe+0x26a>
    5cba:	48 8b 35 00 00 00 00 	mov    0x0(%rip),%rsi        # 5cc1 <ps_node_subscribe+0x271>
    5cc1:	4c 89 ef             	mov    %r13,%rdi
    5cc4:	e8 00 00 00 00       	call   5cc9 <ps_node_subscribe+0x279>
    5cc9:	48 63 c3             	movslq %ebx,%rax
    5ccc:	e9 9d fe ff ff       	jmp    5b6e <ps_node_subscribe+0x11e>
    5cd1:	48 8b 35 00 00 00 00 	mov    0x0(%rip),%rsi        # 5cd8 <ps_node_subscribe+0x288>
    5cd8:	4c 89 ef             	mov    %r13,%rdi
    5cdb:	e8 00 00 00 00       	call   5ce0 <ps_node_subscribe+0x290>
    5ce0:	48 63 c3             	movslq %ebx,%rax
    5ce3:	e9 86 fe ff ff       	jmp    5b6e <ps_node_subscribe+0x11e>
    5ce8:	e8 00 00 00 00       	call   5ced <ps_node_subscribe+0x29d>
    5ced:	e9 0c fe ff ff       	jmp    5afe <ps_node_subscribe+0xae>
    5cf2:	e8 00 00 00 00       	call   5cf7 <ps_node_subscribe+0x2a7>
    5cf7:	66 0f 1f 84 00 00 00 	nopw   0x0(%rax,%rax,1)
    5cfe:	00 00 

0000000000005d00 <__pfx_ps_node_unsubscribe>:
    5d00:	90                   	nop
    5d01:	90                   	nop
    5d02:	90                   	nop
    5d03:	90                   	nop
    5d04:	90                   	nop
    5d05:	90                   	nop
    5d06:	90                   	nop
    5d07:	90                   	nop
    5d08:	90                   	nop
    5d09:	90                   	nop
    5d0a:	90                   	nop
    5d0b:	90                   	nop
    5d0c:	90                   	nop
    5d0d:	90                   	nop
    5d0e:	90                   	nop
    5d0f:	90                   	nop

0000000000005d10 <ps_node_unsubscribe>:
    5d10:	f3 0f 1e fa          	endbr64
    5d14:	e8 00 00 00 00       	call   5d19 <ps_node_unsubscribe+0x9>
    5d19:	48 ba 00 00 00 00 00 	movabs $0xdffffc0000000000,%rdx
    5d20:	fc ff df 
    5d23:	55                   	push   %rbp
    5d24:	48 89 e5             	mov    %rsp,%rbp
    5d27:	41 57                	push   %r15
    5d29:	41 56                	push   %r14
    5d2b:	4c 8d 7d d8          	lea    -0x28(%rbp),%r15
    5d2f:	41 55                	push   %r13
    5d31:	41 54                	push   %r12
    5d33:	4c 8d a5 58 ff ff ff 	lea    -0xa8(%rbp),%r12
    5d3a:	53                   	push   %rbx
    5d3b:	49 c1 ec 03          	shr    $0x3,%r12
    5d3f:	48 89 fb             	mov    %rdi,%rbx
    5d42:	49 8d 04 14          	lea    (%r12,%rdx,1),%rax
    5d46:	65 4c 8b 2d 00 00 00 	mov    %gs:0x0(%rip),%r13        # 5d4e <ps_node_unsubscribe+0x3e>
    5d4d:	00 
    5d4e:	48 83 c4 80          	add    $0xffffffffffffff80,%rsp
    5d52:	49 8d bd 00 0a 00 00 	lea    0xa00(%r13),%rdi
    5d59:	48 c7 85 58 ff ff ff 	movq   $0x41b58ab3,-0xa8(%rbp)
    5d60:	b3 8a b5 41 
    5d64:	48 c7 85 60 ff ff ff 	movq   $0x0,-0xa0(%rbp)
    5d6b:	00 00 00 00 
    5d6f:	48 c7 85 68 ff ff ff 	movq   $0x0,-0x98(%rbp)
    5d76:	00 00 00 00 
    5d7a:	c7 00 f1 f1 f1 f1    	movl   $0xf1f1f1f1,(%rax)
    5d80:	c7 40 04 00 f2 f2 f2 	movl   $0xf2f2f200,0x4(%rax)
    5d87:	c7 40 08 00 f3 f3 f3 	movl   $0xf3f3f300,0x8(%rax)
    5d8e:	65 48 8b 04 25 28 00 	mov    %gs:0x28,%rax
    5d95:	00 00 
    5d97:	48 89 45 d0          	mov    %rax,-0x30(%rbp)
    5d9b:	31 c0                	xor    %eax,%eax
    5d9d:	48 89 f8             	mov    %rdi,%rax
    5da0:	48 c1 e8 03          	shr    $0x3,%rax
    5da4:	0f b6 04 10          	movzbl (%rax,%rdx,1),%eax
    5da8:	84 c0                	test   %al,%al
    5daa:	74 08                	je     5db4 <ps_node_unsubscribe+0xa4>
    5dac:	3c 03                	cmp    $0x3,%al
    5dae:	0f 8e 36 01 00 00    	jle    5eea <ps_node_unsubscribe+0x1da>
    5db4:	48 8b 35 00 00 00 00 	mov    0x0(%rip),%rsi        # 5dbb <ps_node_unsubscribe+0xab>
    5dbb:	45 8b b5 00 0a 00 00 	mov    0xa00(%r13),%r14d
    5dc2:	49 c7 47 a0 00 00 00 	movq   $0x0,-0x60(%r15)
    5dc9:	00 
    5dca:	4c 8d 2d 00 00 00 00 	lea    0x0(%rip),%r13        # 5dd1 <ps_node_unsubscribe+0xc1>
    5dd1:	4c 89 ef             	mov    %r13,%rdi
    5dd4:	49 c7 47 c0 00 00 00 	movq   $0x0,-0x40(%r15)
    5ddb:	00 
    5ddc:	e8 00 00 00 00       	call   5de1 <ps_node_unsubscribe+0xd1>
    5de1:	48 89 df             	mov    %rbx,%rdi
    5de4:	49 8d 77 a0          	lea    -0x60(%r15),%rsi
    5de8:	e8 00 00 00 00       	call   5ded <ps_node_unsubscribe+0xdd>
    5ded:	49 8b 57 a0          	mov    -0x60(%r15),%rdx
    5df1:	48 8b 35 00 00 00 00 	mov    0x0(%rip),%rsi        # 5df8 <ps_node_unsubscribe+0xe8>
    5df8:	4c 89 ef             	mov    %r13,%rdi
    5dfb:	89 c3                	mov    %eax,%ebx
    5dfd:	89 c1                	mov    %eax,%ecx
    5dff:	e8 00 00 00 00       	call   5e04 <ps_node_unsubscribe+0xf4>
    5e04:	85 db                	test   %ebx,%ebx
    5e06:	74 47                	je     5e4f <ps_node_unsubscribe+0x13f>
    5e08:	48 ba 00 00 00 00 00 	movabs $0xdffffc0000000000,%rdx
    5e0f:	fc ff df 
    5e12:	48 63 c3             	movslq %ebx,%rax
    5e15:	49 01 d4             	add    %rdx,%r12
    5e18:	49 c7 04 24 00 00 00 	movq   $0x0,(%r12)
    5e1f:	00 
    5e20:	41 c7 44 24 08 00 00 	movl   $0x0,0x8(%r12)
    5e27:	00 00 
    5e29:	48 8b 55 d0          	mov    -0x30(%rbp),%rdx
    5e2d:	65 48 2b 14 25 28 00 	sub    %gs:0x28,%rdx
    5e34:	00 00 
    5e36:	0f 85 b8 00 00 00    	jne    5ef4 <ps_node_unsubscribe+0x1e4>
    5e3c:	48 83 ec 80          	sub    $0xffffffffffffff80,%rsp
    5e40:	5b                   	pop    %rbx
    5e41:	41 5c                	pop    %r12
    5e43:	41 5d                	pop    %r13
    5e45:	41 5e                	pop    %r14
    5e47:	41 5f                	pop    %r15
    5e49:	5d                   	pop    %rbp
    5e4a:	e9 00 00 00 00       	jmp    5e4f <ps_node_unsubscribe+0x13f>
    5e4f:	49 8b 7f a0          	mov    -0x60(%r15),%rdi
    5e53:	49 8d 57 c0          	lea    -0x40(%r15),%rdx
    5e57:	44 89 f6             	mov    %r14d,%esi
    5e5a:	e8 00 00 00 00       	call   5e5f <ps_node_unsubscribe+0x14f>
    5e5f:	49 8b 57 c0          	mov    -0x40(%r15),%rdx
    5e63:	48 8b 35 00 00 00 00 	mov    0x0(%rip),%rsi        # 5e6a <ps_node_unsubscribe+0x15a>
    5e6a:	4c 89 ef             	mov    %r13,%rdi
    5e6d:	89 c3                	mov    %eax,%ebx
    5e6f:	89 c1                	mov    %eax,%ecx
    5e71:	e8 00 00 00 00       	call   5e76 <ps_node_unsubscribe+0x166>
    5e76:	85 db                	test   %ebx,%ebx
    5e78:	74 2a                	je     5ea4 <ps_node_unsubscribe+0x194>
    5e7a:	49 8b 7f a0          	mov    -0x60(%r15),%rdi
    5e7e:	e8 00 00 00 00       	call   5e83 <ps_node_unsubscribe+0x173>
    5e83:	49 8b 7f a0          	mov    -0x60(%r15),%rdi
    5e87:	e8 00 00 00 00       	call   5e8c <ps_node_unsubscribe+0x17c>
    5e8c:	48 8b 35 00 00 00 00 	mov    0x0(%rip),%rsi        # 5e93 <ps_node_unsubscribe+0x183>
    5e93:	48 8d 3d 00 00 00 00 	lea    0x0(%rip),%rdi        # 5e9a <ps_node_unsubscribe+0x18a>
    5e9a:	e8 00 00 00 00       	call   5e9f <ps_node_unsubscribe+0x18f>
    5e9f:	e9 64 ff ff ff       	jmp    5e08 <ps_node_unsubscribe+0xf8>
    5ea4:	49 8b 77 c0          	mov    -0x40(%r15),%rsi
    5ea8:	49 8b 7f a0          	mov    -0x60(%r15),%rdi
    5eac:	e8 00 00 00 00       	call   5eb1 <ps_node_unsubscribe+0x1a1>
    5eb1:	49 8b 7f a0          	mov    -0x60(%r15),%rdi
    5eb5:	e8 00 00 00 00       	call   5eba <ps_node_unsubscribe+0x1aa>
    5eba:	48 8b 35 00 00 00 00 	mov    0x0(%rip),%rsi        # 5ec1 <ps_node_unsubscribe+0x1b1>
    5ec1:	4c 89 ef             	mov    %r13,%rdi
    5ec4:	e8 00 00 00 00       	call   5ec9 <ps_node_unsubscribe+0x1b9>
    5ec9:	31 ff                	xor    %edi,%edi
    5ecb:	e8 00 00 00 00       	call   5ed0 <ps_node_unsubscribe+0x1c0>
    5ed0:	49 8b 7f c0          	mov    -0x40(%r15),%rdi
    5ed4:	e8 00 00 00 00       	call   5ed9 <ps_node_unsubscribe+0x1c9>
    5ed9:	48 8b 35 00 00 00 00 	mov    0x0(%rip),%rsi        # 5ee0 <ps_node_unsubscribe+0x1d0>
    5ee0:	4c 89 ef             	mov    %r13,%rdi
    5ee3:	e8 00 00 00 00       	call   5ee8 <ps_node_unsubscribe+0x1d8>
    5ee8:	eb 90                	jmp    5e7a <ps_node_unsubscribe+0x16a>
    5eea:	e8 00 00 00 00       	call   5eef <ps_node_unsubscribe+0x1df>
    5eef:	e9 c0 fe ff ff       	jmp    5db4 <ps_node_unsubscribe+0xa4>
    5ef4:	e8 00 00 00 00       	call   5ef9 <ps_node_unsubscribe+0x1e9>
    5ef9:	0f 1f 80 00 00 00 00 	nopl   0x0(%rax)

0000000000005f00 <__pfx_ps_node_publish>:
    5f00:	90                   	nop
    5f01:	90                   	nop
    5f02:	90                   	nop
    5f03:	90                   	nop
    5f04:	90                   	nop
    5f05:	90                   	nop
    5f06:	90                   	nop
    5f07:	90                   	nop
    5f08:	90                   	nop
    5f09:	90                   	nop
    5f0a:	90                   	nop
    5f0b:	90                   	nop
    5f0c:	90                   	nop
    5f0d:	90                   	nop
    5f0e:	90                   	nop
    5f0f:	90                   	nop

0000000000005f10 <ps_node_publish>:
    5f10:	f3 0f 1e fa          	endbr64
    5f14:	e8 00 00 00 00       	call   5f19 <ps_node_publish+0x9>
    5f19:	48 ba 00 00 00 00 00 	movabs $0xdffffc0000000000,%rdx
    5f20:	fc ff df 
    5f23:	55                   	push   %rbp
    5f24:	48 89 e5             	mov    %rsp,%rbp
    5f27:	41 57                	push   %r15
    5f29:	41 56                	push   %r14
    5f2b:	4c 8d 75 d8          	lea    -0x28(%rbp),%r14
    5f2f:	41 55                	push   %r13
    5f31:	41 54                	push   %r12
    5f33:	4c 8d a5 38 ff ff ff 	lea    -0xc8(%rbp),%r12
    5f3a:	53                   	push   %rbx
    5f3b:	49 c1 ec 03          	shr    $0x3,%r12
    5f3f:	49 8d 04 14          	lea    (%r12,%rdx,1),%rax
    5f43:	65 48 8b 1d 00 00 00 	mov    %gs:0x0(%rip),%rbx        # 5f4b <ps_node_publish+0x3b>
    5f4a:	00 
    5f4b:	48 81 ec a8 00 00 00 	sub    $0xa8,%rsp
    5f52:	48 89 bd 30 ff ff ff 	mov    %rdi,-0xd0(%rbp)
    5f59:	48 8d bb 00 0a 00 00 	lea    0xa00(%rbx),%rdi
    5f60:	48 c7 85 38 ff ff ff 	movq   $0x41b58ab3,-0xc8(%rbp)
    5f67:	b3 8a b5 41 
    5f6b:	48 c7 85 40 ff ff ff 	movq   $0x0,-0xc0(%rbp)
    5f72:	00 00 00 00 
    5f76:	48 c7 85 48 ff ff ff 	movq   $0x0,-0xb8(%rbp)
    5f7d:	00 00 00 00 
    5f81:	c7 00 f1 f1 f1 f1    	movl   $0xf1f1f1f1,(%rax)
    5f87:	c7 40 04 00 f2 f2 f2 	movl   $0xf2f2f200,0x4(%rax)
    5f8e:	c7 40 08 00 f2 f2 f2 	movl   $0xf2f2f200,0x8(%rax)
    5f95:	c7 40 0c 00 f3 f3 f3 	movl   $0xf3f3f300,0xc(%rax)
    5f9c:	65 48 8b 04 25 28 00 	mov    %gs:0x28,%rax
    5fa3:	00 00 
    5fa5:	48 89 45 d0          	mov    %rax,-0x30(%rbp)
    5fa9:	31 c0                	xor    %eax,%eax
    5fab:	48 89 f8             	mov    %rdi,%rax
    5fae:	48 c1 e8 03          	shr    $0x3,%rax
    5fb2:	0f b6 04 10          	movzbl (%rax,%rdx,1),%eax
    5fb6:	84 c0                	test   %al,%al
    5fb8:	74 08                	je     5fc2 <ps_node_publish+0xb2>
    5fba:	3c 03                	cmp    $0x3,%al
    5fbc:	0f 8e 8f 01 00 00    	jle    6151 <ps_node_publish+0x241>
    5fc2:	44 8b bb 00 0a 00 00 	mov    0xa00(%rbx),%r15d
    5fc9:	48 8b 35 00 00 00 00 	mov    0x0(%rip),%rsi        # 5fd0 <ps_node_publish+0xc0>
    5fd0:	49 c7 46 80 00 00 00 	movq   $0x0,-0x80(%r14)
    5fd7:	00 
    5fd8:	4c 8d 2d 00 00 00 00 	lea    0x0(%rip),%r13        # 5fdf <ps_node_publish+0xcf>
    5fdf:	4c 89 ef             	mov    %r13,%rdi
    5fe2:	49 c7 46 a0 00 00 00 	movq   $0x0,-0x60(%r14)
    5fe9:	00 
    5fea:	49 c7 46 c0 00 00 00 	movq   $0x0,-0x40(%r14)
    5ff1:	00 
    5ff2:	e8 00 00 00 00       	call   5ff7 <ps_node_publish+0xe7>
    5ff7:	49 8d 76 a0          	lea    -0x60(%r14),%rsi
    5ffb:	44 89 ff             	mov    %r15d,%edi
    5ffe:	e8 00 00 00 00       	call   6003 <ps_node_publish+0xf3>
    6003:	49 8b 56 a0          	mov    -0x60(%r14),%rdx
    6007:	48 8b 35 00 00 00 00 	mov    0x0(%rip),%rsi        # 600e <ps_node_publish+0xfe>
    600e:	4c 89 ef             	mov    %r13,%rdi
    6011:	89 c3                	mov    %eax,%ebx
    6013:	89 c1                	mov    %eax,%ecx
    6015:	e8 00 00 00 00       	call   601a <ps_node_publish+0x10a>
    601a:	85 db                	test   %ebx,%ebx
    601c:	0f 85 b5 00 00 00    	jne    60d7 <ps_node_publish+0x1c7>
    6022:	49 83 7e a0 00       	cmpq   $0x0,-0x60(%r14)
    6027:	0f 84 aa 00 00 00    	je     60d7 <ps_node_publish+0x1c7>
    602d:	48 8b bd 30 ff ff ff 	mov    -0xd0(%rbp),%rdi
    6034:	49 8d 76 80          	lea    -0x80(%r14),%rsi
    6038:	e8 00 00 00 00       	call   603d <ps_node_publish+0x12d>
    603d:	49 8b 56 80          	mov    -0x80(%r14),%rdx
    6041:	48 8b 35 00 00 00 00 	mov    0x0(%rip),%rsi        # 6048 <ps_node_publish+0x138>
    6048:	4c 89 ef             	mov    %r13,%rdi
    604b:	89 c3                	mov    %eax,%ebx
    604d:	89 c1                	mov    %eax,%ecx
    604f:	e8 00 00 00 00       	call   6054 <ps_node_publish+0x144>
    6054:	85 db                	test   %ebx,%ebx
    6056:	75 76                	jne    60ce <ps_node_publish+0x1be>
    6058:	49 8b 7e 80          	mov    -0x80(%r14),%rdi
    605c:	49 8d 56 c0          	lea    -0x40(%r14),%rdx
    6060:	44 89 fe             	mov    %r15d,%esi
    6063:	e8 00 00 00 00       	call   6068 <ps_node_publish+0x158>
    6068:	49 8b 56 c0          	mov    -0x40(%r14),%rdx
    606c:	48 8b 35 00 00 00 00 	mov    0x0(%rip),%rsi        # 6073 <ps_node_publish+0x163>
    6073:	4c 89 ef             	mov    %r13,%rdi
    6076:	89 c3                	mov    %eax,%ebx
    6078:	89 c1                	mov    %eax,%ecx
    607a:	e8 00 00 00 00       	call   607f <ps_node_publish+0x16f>
    607f:	83 fb fe             	cmp    $0xfffffffe,%ebx
    6082:	0f 84 98 00 00 00    	je     6120 <ps_node_publish+0x210>
    6088:	49 8b 7e a0          	mov    -0x60(%r14),%rdi
    608c:	e8 00 00 00 00       	call   6091 <ps_node_publish+0x181>
    6091:	48 8b 35 00 00 00 00 	mov    0x0(%rip),%rsi        # 6098 <ps_node_publish+0x188>
    6098:	4c 89 ef             	mov    %r13,%rdi
    609b:	49 c7 c5 ef ff ff ff 	mov    $0xffffffffffffffef,%r13
    60a2:	e8 00 00 00 00       	call   60a7 <ps_node_publish+0x197>
    60a7:	49 8b 7e 80          	mov    -0x80(%r14),%rdi
    60ab:	e8 00 00 00 00       	call   60b0 <ps_node_publish+0x1a0>
    60b0:	49 8b 7e 80          	mov    -0x80(%r14),%rdi
    60b4:	e8 00 00 00 00       	call   60b9 <ps_node_publish+0x1a9>
    60b9:	48 8b 35 00 00 00 00 	mov    0x0(%rip),%rsi        # 60c0 <ps_node_publish+0x1b0>
    60c0:	48 8d 3d 00 00 00 00 	lea    0x0(%rip),%rdi        # 60c7 <ps_node_publish+0x1b7>
    60c7:	e8 00 00 00 00       	call   60cc <ps_node_publish+0x1bc>
    60cc:	eb 0c                	jmp    60da <ps_node_publish+0x1ca>
    60ce:	49 8b 7e a0          	mov    -0x60(%r14),%rdi
    60d2:	e8 00 00 00 00       	call   60d7 <ps_node_publish+0x1c7>
    60d7:	4c 63 eb             	movslq %ebx,%r13
    60da:	48 b8 00 00 00 00 00 	movabs $0xdffffc0000000000,%rax
    60e1:	fc ff df 
    60e4:	49 01 c4             	add    %rax,%r12
    60e7:	49 c7 04 24 00 00 00 	movq   $0x0,(%r12)
    60ee:	00 
    60ef:	49 c7 44 24 08 00 00 	movq   $0x0,0x8(%r12)
    60f6:	00 00 
    60f8:	48 8b 45 d0          	mov    -0x30(%rbp),%rax
    60fc:	65 48 2b 04 25 28 00 	sub    %gs:0x28,%rax
    6103:	00 00 
    6105:	75 54                	jne    615b <ps_node_publish+0x24b>
    6107:	48 81 c4 a8 00 00 00 	add    $0xa8,%rsp
    610e:	4c 89 e8             	mov    %r13,%rax
    6111:	5b                   	pop    %rbx
    6112:	41 5c                	pop    %r12
    6114:	41 5d                	pop    %r13
    6116:	41 5e                	pop    %r14
    6118:	41 5f                	pop    %r15
    611a:	5d                   	pop    %rbp
    611b:	e9 00 00 00 00       	jmp    6120 <ps_node_publish+0x210>
    6120:	49 8b 76 a0          	mov    -0x60(%r14),%rsi
    6124:	49 8b 7e 80          	mov    -0x80(%r14),%rdi
    6128:	e8 00 00 00 00       	call   612d <ps_node_publish+0x21d>
    612d:	49 8b 4e a0          	mov    -0x60(%r14),%rcx
    6131:	49 8b 56 80          	mov    -0x80(%r14),%rdx
    6135:	4c 89 ef             	mov    %r13,%rdi
    6138:	48 8b 35 00 00 00 00 	mov    0x0(%rip),%rsi        # 613f <ps_node_publish+0x22f>
    613f:	89 c3                	mov    %eax,%ebx
    6141:	41 89 c0             	mov    %eax,%r8d
    6144:	4c 63 eb             	movslq %ebx,%r13
    6147:	e8 00 00 00 00       	call   614c <ps_node_publish+0x23c>
    614c:	e9 56 ff ff ff       	jmp    60a7 <ps_node_publish+0x197>
    6151:	e8 00 00 00 00       	call   6156 <ps_node_publish+0x246>
    6156:	e9 67 fe ff ff       	jmp    5fc2 <ps_node_publish+0xb2>
    615b:	e8 00 00 00 00       	call   6160 <__pfx_ps_node_unpublish>

0000000000006160 <__pfx_ps_node_unpublish>:
    6160:	90                   	nop
    6161:	90                   	nop
    6162:	90                   	nop
    6163:	90                   	nop
    6164:	90                   	nop
    6165:	90                   	nop
    6166:	90                   	nop
    6167:	90                   	nop
    6168:	90                   	nop
    6169:	90                   	nop
    616a:	90                   	nop
    616b:	90                   	nop
    616c:	90                   	nop
    616d:	90                   	nop
    616e:	90                   	nop
    616f:	90                   	nop

0000000000006170 <ps_node_unpublish>:
    6170:	f3 0f 1e fa          	endbr64
    6174:	e8 00 00 00 00       	call   6179 <ps_node_unpublish+0x9>
    6179:	48 ba 00 00 00 00 00 	movabs $0xdffffc0000000000,%rdx
    6180:	fc ff df 
    6183:	55                   	push   %rbp
    6184:	48 89 e5             	mov    %rsp,%rbp
    6187:	41 57                	push   %r15
    6189:	41 56                	push   %r14
    618b:	4c 8d 7d d8          	lea    -0x28(%rbp),%r15
    618f:	41 55                	push   %r13
    6191:	41 54                	push   %r12
    6193:	4c 8d a5 58 ff ff ff 	lea    -0xa8(%rbp),%r12
    619a:	53                   	push   %rbx
    619b:	49 c1 ec 03          	shr    $0x3,%r12
    619f:	48 89 fb             	mov    %rdi,%rbx
    61a2:	49 8d 04 14          	lea    (%r12,%rdx,1),%rax
    61a6:	65 4c 8b 2d 00 00 00 	mov    %gs:0x0(%rip),%r13        # 61ae <ps_node_unpublish+0x3e>
    61ad:	00 
    61ae:	48 83 c4 80          	add    $0xffffffffffffff80,%rsp
    61b2:	49 8d bd 00 0a 00 00 	lea    0xa00(%r13),%rdi
    61b9:	48 c7 85 58 ff ff ff 	movq   $0x41b58ab3,-0xa8(%rbp)
    61c0:	b3 8a b5 41 
    61c4:	48 c7 85 60 ff ff ff 	movq   $0x0,-0xa0(%rbp)
    61cb:	00 00 00 00 
    61cf:	48 c7 85 68 ff ff ff 	movq   $0x0,-0x98(%rbp)
    61d6:	00 00 00 00 
    61da:	c7 00 f1 f1 f1 f1    	movl   $0xf1f1f1f1,(%rax)
    61e0:	c7 40 04 00 f2 f2 f2 	movl   $0xf2f2f200,0x4(%rax)
    61e7:	c7 40 08 00 f3 f3 f3 	movl   $0xf3f3f300,0x8(%rax)
    61ee:	65 48 8b 04 25 28 00 	mov    %gs:0x28,%rax
    61f5:	00 00 
    61f7:	48 89 45 d0          	mov    %rax,-0x30(%rbp)
    61fb:	31 c0                	xor    %eax,%eax
    61fd:	48 89 f8             	mov    %rdi,%rax
    6200:	48 c1 e8 03          	shr    $0x3,%rax
    6204:	0f b6 04 10          	movzbl (%rax,%rdx,1),%eax
    6208:	84 c0                	test   %al,%al
    620a:	74 08                	je     6214 <ps_node_unpublish+0xa4>
    620c:	3c 03                	cmp    $0x3,%al
    620e:	0f 8e 17 01 00 00    	jle    632b <ps_node_unpublish+0x1bb>
    6214:	48 8b 35 00 00 00 00 	mov    0x0(%rip),%rsi        # 621b <ps_node_unpublish+0xab>
    621b:	45 8b b5 00 0a 00 00 	mov    0xa00(%r13),%r14d
    6222:	49 c7 47 a0 00 00 00 	movq   $0x0,-0x60(%r15)
    6229:	00 
    622a:	4c 8d 2d 00 00 00 00 	lea    0x0(%rip),%r13        # 6231 <ps_node_unpublish+0xc1>
    6231:	4c 89 ef             	mov    %r13,%rdi
    6234:	49 c7 47 c0 00 00 00 	movq   $0x0,-0x40(%r15)
    623b:	00 
    623c:	e8 00 00 00 00       	call   6241 <ps_node_unpublish+0xd1>
    6241:	48 89 df             	mov    %rbx,%rdi
    6244:	49 8d 77 a0          	lea    -0x60(%r15),%rsi
    6248:	e8 00 00 00 00       	call   624d <ps_node_unpublish+0xdd>
    624d:	49 8b 57 a0          	mov    -0x60(%r15),%rdx
    6251:	48 8b 35 00 00 00 00 	mov    0x0(%rip),%rsi        # 6258 <ps_node_unpublish+0xe8>
    6258:	4c 89 ef             	mov    %r13,%rdi
    625b:	89 c3                	mov    %eax,%ebx
    625d:	89 c1                	mov    %eax,%ecx
    625f:	e8 00 00 00 00       	call   6264 <ps_node_unpublish+0xf4>
    6264:	85 db                	test   %ebx,%ebx
    6266:	74 47                	je     62af <ps_node_unpublish+0x13f>
    6268:	48 ba 00 00 00 00 00 	movabs $0xdffffc0000000000,%rdx
    626f:	fc ff df 
    6272:	48 63 c3             	movslq %ebx,%rax
    6275:	49 01 d4             	add    %rdx,%r12
    6278:	49 c7 04 24 00 00 00 	movq   $0x0,(%r12)
    627f:	00 
    6280:	41 c7 44 24 08 00 00 	movl   $0x0,0x8(%r12)
    6287:	00 00 
    6289:	48 8b 55 d0          	mov    -0x30(%rbp),%rdx
    628d:	65 48 2b 14 25 28 00 	sub    %gs:0x28,%rdx
    6294:	00 00 
    6296:	0f 85 99 00 00 00    	jne    6335 <ps_node_unpublish+0x1c5>
    629c:	48 83 ec 80          	sub    $0xffffffffffffff80,%rsp
    62a0:	5b                   	pop    %rbx
    62a1:	41 5c                	pop    %r12
    62a3:	41 5d                	pop    %r13
    62a5:	41 5e                	pop    %r14
    62a7:	41 5f                	pop    %r15
    62a9:	5d                   	pop    %rbp
    62aa:	e9 00 00 00 00       	jmp    62af <ps_node_unpublish+0x13f>
    62af:	49 8b 7f a0          	mov    -0x60(%r15),%rdi
    62b3:	49 8d 57 c0          	lea    -0x40(%r15),%rdx
    62b7:	44 89 f6             	mov    %r14d,%esi
    62ba:	e8 00 00 00 00       	call   62bf <ps_node_unpublish+0x14f>
    62bf:	49 8b 57 c0          	mov    -0x40(%r15),%rdx
    62c3:	48 8b 35 00 00 00 00 	mov    0x0(%rip),%rsi        # 62ca <ps_node_unpublish+0x15a>
    62ca:	4c 89 ef             	mov    %r13,%rdi
    62cd:	89 c3                	mov    %eax,%ebx
    62cf:	89 c1                	mov    %eax,%ecx
    62d1:	e8 00 00 00 00       	call   62d6 <ps_node_unpublish+0x166>
    62d6:	85 db                	test   %ebx,%ebx
    62d8:	74 2a                	je     6304 <ps_node_unpublish+0x194>
    62da:	49 8b 7f a0          	mov    -0x60(%r15),%rdi
    62de:	e8 00 00 00 00       	call   62e3 <ps_node_unpublish+0x173>
    62e3:	49 8b 7f a0          	mov    -0x60(%r15),%rdi
    62e7:	e8 00 00 00 00       	call   62ec <ps_node_unpublish+0x17c>
    62ec:	48 8b 35 00 00 00 00 	mov    0x0(%rip),%rsi        # 62f3 <ps_node_unpublish+0x183>
    62f3:	48 8d 3d 00 00 00 00 	lea    0x0(%rip),%rdi        # 62fa <ps_node_unpublish+0x18a>
    62fa:	e8 00 00 00 00       	call   62ff <ps_node_unpublish+0x18f>
    62ff:	e9 64 ff ff ff       	jmp    6268 <ps_node_unpublish+0xf8>
    6304:	49 8b 77 c0          	mov    -0x40(%r15),%rsi
    6308:	49 8b 7f a0          	mov    -0x60(%r15),%rdi
    630c:	e8 00 00 00 00       	call   6311 <ps_node_unpublish+0x1a1>
    6311:	49 8b 7f c0          	mov    -0x40(%r15),%rdi
    6315:	e8 00 00 00 00       	call   631a <ps_node_unpublish+0x1aa>
    631a:	48 8b 35 00 00 00 00 	mov    0x0(%rip),%rsi        # 6321 <ps_node_unpublish+0x1b1>
    6321:	4c 89 ef             	mov    %r13,%rdi
    6324:	e8 00 00 00 00       	call   6329 <ps_node_unpublish+0x1b9>
    6329:	eb af                	jmp    62da <ps_node_unpublish+0x16a>
    632b:	e8 00 00 00 00       	call   6330 <ps_node_unpublish+0x1c0>
    6330:	e9 df fe ff ff       	jmp    6214 <ps_node_unpublish+0xa4>
    6335:	e8 00 00 00 00       	call   633a <ps_node_unpublish+0x1ca>
    633a:	66 0f 1f 44 00 00    	nopw   0x0(%rax,%rax,1)

0000000000006340 <__pfx_ps_node_send>:
    6340:	90                   	nop
    6341:	90                   	nop
    6342:	90                   	nop
    6343:	90                   	nop
    6344:	90                   	nop
    6345:	90                   	nop
    6346:	90                   	nop
    6347:	90                   	nop
    6348:	90                   	nop
    6349:	90                   	nop
    634a:	90                   	nop
    634b:	90                   	nop
    634c:	90                   	nop
    634d:	90                   	nop
    634e:	90                   	nop
    634f:	90                   	nop

0000000000006350 <ps_node_send>:
    6350:	f3 0f 1e fa          	endbr64
    6354:	e8 00 00 00 00       	call   6359 <ps_node_send+0x9>
    6359:	48 ba 00 00 00 00 00 	movabs $0xdffffc0000000000,%rdx
    6360:	fc ff df 
    6363:	55                   	push   %rbp
    6364:	48 89 e5             	mov    %rsp,%rbp
    6367:	41 57                	push   %r15
    6369:	41 56                	push   %r14
    636b:	4c 8d 75 d8          	lea    -0x28(%rbp),%r14
    636f:	41 55                	push   %r13
    6371:	41 54                	push   %r12
    6373:	4c 8d a5 58 ff ff ff 	lea    -0xa8(%rbp),%r12
    637a:	53                   	push   %rbx
    637b:	49 c1 ec 03          	shr    $0x3,%r12
    637f:	48 89 fb             	mov    %rdi,%rbx
    6382:	49 8d 04 14          	lea    (%r12,%rdx,1),%rax
    6386:	65 4c 8b 2d 00 00 00 	mov    %gs:0x0(%rip),%r13        # 638e <ps_node_send+0x3e>
    638d:	00 
    638e:	48 81 ec 88 00 00 00 	sub    $0x88,%rsp
    6395:	48 89 b5 50 ff ff ff 	mov    %rsi,-0xb0(%rbp)
    639c:	49 8d bd 00 0a 00 00 	lea    0xa00(%r13),%rdi
    63a3:	48 c7 85 58 ff ff ff 	movq   $0x41b58ab3,-0xa8(%rbp)
    63aa:	b3 8a b5 41 
    63ae:	48 c7 85 60 ff ff ff 	movq   $0x0,-0xa0(%rbp)
    63b5:	00 00 00 00 
    63b9:	48 c7 85 68 ff ff ff 	movq   $0x0,-0x98(%rbp)
    63c0:	00 00 00 00 
    63c4:	c7 00 f1 f1 f1 f1    	movl   $0xf1f1f1f1,(%rax)
    63ca:	c7 40 04 00 f2 f2 f2 	movl   $0xf2f2f200,0x4(%rax)
    63d1:	c7 40 08 00 f3 f3 f3 	movl   $0xf3f3f300,0x8(%rax)
    63d8:	65 48 8b 04 25 28 00 	mov    %gs:0x28,%rax
    63df:	00 00 
    63e1:	48 89 45 d0          	mov    %rax,-0x30(%rbp)
    63e5:	31 c0                	xor    %eax,%eax
    63e7:	48 89 f8             	mov    %rdi,%rax
    63ea:	48 c1 e8 03          	shr    $0x3,%rax
    63ee:	0f b6 04 10          	movzbl (%rax,%rdx,1),%eax
    63f2:	84 c0                	test   %al,%al
    63f4:	74 08                	je     63fe <ps_node_send+0xae>
    63f6:	3c 03                	cmp    $0x3,%al
    63f8:	0f 8e 27 01 00 00    	jle    6525 <ps_node_send+0x1d5>
    63fe:	48 8b 35 00 00 00 00 	mov    0x0(%rip),%rsi        # 6405 <ps_node_send+0xb5>
    6405:	45 8b bd 00 0a 00 00 	mov    0xa00(%r13),%r15d
    640c:	49 c7 46 a0 00 00 00 	movq   $0x0,-0x60(%r14)
    6413:	00 
    6414:	4c 8d 2d 00 00 00 00 	lea    0x0(%rip),%r13        # 641b <ps_node_send+0xcb>
    641b:	4c 89 ef             	mov    %r13,%rdi
    641e:	49 c7 46 c0 00 00 00 	movq   $0x0,-0x40(%r14)
    6425:	00 
    6426:	e8 00 00 00 00       	call   642b <ps_node_send+0xdb>
    642b:	48 89 df             	mov    %rbx,%rdi
    642e:	49 8d 76 a0          	lea    -0x60(%r14),%rsi
    6432:	e8 00 00 00 00       	call   6437 <ps_node_send+0xe7>
    6437:	49 8b 56 a0          	mov    -0x60(%r14),%rdx
    643b:	48 8b 35 00 00 00 00 	mov    0x0(%rip),%rsi        # 6442 <ps_node_send+0xf2>
    6442:	4c 89 ef             	mov    %r13,%rdi
    6445:	89 c3                	mov    %eax,%ebx
    6447:	89 c1                	mov    %eax,%ecx
    6449:	e8 00 00 00 00       	call   644e <ps_node_send+0xfe>
    644e:	85 db                	test   %ebx,%ebx
    6450:	74 4a                	je     649c <ps_node_send+0x14c>
    6452:	48 ba 00 00 00 00 00 	movabs $0xdffffc0000000000,%rdx
    6459:	fc ff df 
    645c:	48 63 c3             	movslq %ebx,%rax
    645f:	49 01 d4             	add    %rdx,%r12
    6462:	49 c7 04 24 00 00 00 	movq   $0x0,(%r12)
    6469:	00 
    646a:	41 c7 44 24 08 00 00 	movl   $0x0,0x8(%r12)
    6471:	00 00 
    6473:	48 8b 55 d0          	mov    -0x30(%rbp),%rdx
    6477:	65 48 2b 14 25 28 00 	sub    %gs:0x28,%rdx
    647e:	00 00 
    6480:	0f 85 a9 00 00 00    	jne    652f <ps_node_send+0x1df>
    6486:	48 81 c4 88 00 00 00 	add    $0x88,%rsp
    648d:	5b                   	pop    %rbx
    648e:	41 5c                	pop    %r12
    6490:	41 5d                	pop    %r13
    6492:	41 5e                	pop    %r14
    6494:	41 5f                	pop    %r15
    6496:	5d                   	pop    %rbp
    6497:	e9 00 00 00 00       	jmp    649c <ps_node_send+0x14c>
    649c:	49 8b 7e a0          	mov    -0x60(%r14),%rdi
    64a0:	49 8d 56 c0          	lea    -0x40(%r14),%rdx
    64a4:	44 89 fe             	mov    %r15d,%esi
    64a7:	e8 00 00 00 00       	call   64ac <ps_node_send+0x15c>
    64ac:	49 8b 56 c0          	mov    -0x40(%r14),%rdx
    64b0:	48 8b 35 00 00 00 00 	mov    0x0(%rip),%rsi        # 64b7 <ps_node_send+0x167>
    64b7:	4c 89 ef             	mov    %r13,%rdi
    64ba:	89 c3                	mov    %eax,%ebx
    64bc:	89 c1                	mov    %eax,%ecx
    64be:	e8 00 00 00 00       	call   64c3 <ps_node_send+0x173>
    64c3:	85 db                	test   %ebx,%ebx
    64c5:	74 2a                	je     64f1 <ps_node_send+0x1a1>
    64c7:	49 8b 7e a0          	mov    -0x60(%r14),%rdi
    64cb:	e8 00 00 00 00       	call   64d0 <ps_node_send+0x180>
    64d0:	49 8b 7e a0          	mov    -0x60(%r14),%rdi
    64d4:	e8 00 00 00 00       	call   64d9 <ps_node_send+0x189>
    64d9:	48 8b 35 00 00 00 00 	mov    0x0(%rip),%rsi        # 64e0 <ps_node_send+0x190>
    64e0:	48 8d 3d 00 00 00 00 	lea    0x0(%rip),%rdi        # 64e7 <ps_node_send+0x197>
    64e7:	e8 00 00 00 00       	call   64ec <ps_node_send+0x19c>
    64ec:	e9 61 ff ff ff       	jmp    6452 <ps_node_send+0x102>
    64f1:	4c 8b bd 50 ff ff ff 	mov    -0xb0(%rbp),%r15
    64f8:	49 8b 76 c0          	mov    -0x40(%r14),%rsi
    64fc:	49 8b 7e a0          	mov    -0x60(%r14),%rdi
    6500:	4c 89 fa             	mov    %r15,%rdx
    6503:	e8 00 00 00 00       	call   6508 <ps_node_send+0x1b8>
    6508:	49 8b 56 c0          	mov    -0x40(%r14),%rdx
    650c:	4c 89 f9             	mov    %r15,%rcx
    650f:	4c 89 ef             	mov    %r13,%rdi
    6512:	48 8b 35 00 00 00 00 	mov    0x0(%rip),%rsi        # 6519 <ps_node_send+0x1c9>
    6519:	41 89 c0             	mov    %eax,%r8d
    651c:	89 c3                	mov    %eax,%ebx
    651e:	e8 00 00 00 00       	call   6523 <ps_node_send+0x1d3>
    6523:	eb a2                	jmp    64c7 <ps_node_send+0x177>
    6525:	e8 00 00 00 00       	call   652a <ps_node_send+0x1da>
    652a:	e9 cf fe ff ff       	jmp    63fe <ps_node_send+0xae>
    652f:	e8 00 00 00 00       	call   6534 <ps_node_send+0x1e4>
    6534:	66 66 2e 0f 1f 84 00 	data16 cs nopw 0x0(%rax,%rax,1)
    653b:	00 00 00 00 
    653f:	90                   	nop

0000000000006540 <__pfx_ps_node_receive>:
    6540:	90                   	nop
    6541:	90                   	nop
    6542:	90                   	nop
    6543:	90                   	nop
    6544:	90                   	nop
    6545:	90                   	nop
    6546:	90                   	nop
    6547:	90                   	nop
    6548:	90                   	nop
    6549:	90                   	nop
    654a:	90                   	nop
    654b:	90                   	nop
    654c:	90                   	nop
    654d:	90                   	nop
    654e:	90                   	nop
    654f:	90                   	nop

0000000000006550 <ps_node_receive>:
    6550:	f3 0f 1e fa          	endbr64
    6554:	e8 00 00 00 00       	call   6559 <ps_node_receive+0x9>
    6559:	48 ba 00 00 00 00 00 	movabs $0xdffffc0000000000,%rdx
    6560:	fc ff df 
    6563:	55                   	push   %rbp
    6564:	48 89 e5             	mov    %rsp,%rbp
    6567:	41 57                	push   %r15
    6569:	41 56                	push   %r14
    656b:	4c 8d 75 d8          	lea    -0x28(%rbp),%r14
    656f:	41 55                	push   %r13
    6571:	41 54                	push   %r12
    6573:	4c 8d a5 58 ff ff ff 	lea    -0xa8(%rbp),%r12
    657a:	53                   	push   %rbx
    657b:	49 c1 ec 03          	shr    $0x3,%r12
    657f:	48 89 fb             	mov    %rdi,%rbx
    6582:	49 8d 04 14          	lea    (%r12,%rdx,1),%rax
    6586:	65 4c 8b 2d 00 00 00 	mov    %gs:0x0(%rip),%r13        # 658e <ps_node_receive+0x3e>
    658d:	00 
    658e:	48 81 ec 88 00 00 00 	sub    $0x88,%rsp
    6595:	48 89 b5 50 ff ff ff 	mov    %rsi,-0xb0(%rbp)
    659c:	49 8d bd 00 0a 00 00 	lea    0xa00(%r13),%rdi
    65a3:	48 c7 85 58 ff ff ff 	movq   $0x41b58ab3,-0xa8(%rbp)
    65aa:	b3 8a b5 41 
    65ae:	48 c7 85 60 ff ff ff 	movq   $0x0,-0xa0(%rbp)
    65b5:	00 00 00 00 
    65b9:	48 c7 85 68 ff ff ff 	movq   $0x0,-0x98(%rbp)
    65c0:	00 00 00 00 
    65c4:	c7 00 f1 f1 f1 f1    	movl   $0xf1f1f1f1,(%rax)
    65ca:	c7 40 04 00 f2 f2 f2 	movl   $0xf2f2f200,0x4(%rax)
    65d1:	c7 40 08 00 f3 f3 f3 	movl   $0xf3f3f300,0x8(%rax)
    65d8:	65 48 8b 04 25 28 00 	mov    %gs:0x28,%rax
    65df:	00 00 
    65e1:	48 89 45 d0          	mov    %rax,-0x30(%rbp)
    65e5:	31 c0                	xor    %eax,%eax
    65e7:	48 89 f8             	mov    %rdi,%rax
    65ea:	48 c1 e8 03          	shr    $0x3,%rax
    65ee:	0f b6 04 10          	movzbl (%rax,%rdx,1),%eax
    65f2:	84 c0                	test   %al,%al
    65f4:	74 08                	je     65fe <ps_node_receive+0xae>
    65f6:	3c 03                	cmp    $0x3,%al
    65f8:	0f 8e 27 01 00 00    	jle    6725 <ps_node_receive+0x1d5>
    65fe:	48 8b 35 00 00 00 00 	mov    0x0(%rip),%rsi        # 6605 <ps_node_receive+0xb5>
    6605:	45 8b bd 00 0a 00 00 	mov    0xa00(%r13),%r15d
    660c:	49 c7 46 a0 00 00 00 	movq   $0x0,-0x60(%r14)
    6613:	00 
    6614:	4c 8d 2d 00 00 00 00 	lea    0x0(%rip),%r13        # 661b <ps_node_receive+0xcb>
    661b:	4c 89 ef             	mov    %r13,%rdi
    661e:	49 c7 46 c0 00 00 00 	movq   $0x0,-0x40(%r14)
    6625:	00 
    6626:	e8 00 00 00 00       	call   662b <ps_node_receive+0xdb>
    662b:	48 89 df             	mov    %rbx,%rdi
    662e:	49 8d 76 a0          	lea    -0x60(%r14),%rsi
    6632:	e8 00 00 00 00       	call   6637 <ps_node_receive+0xe7>
    6637:	49 8b 56 a0          	mov    -0x60(%r14),%rdx
    663b:	48 8b 35 00 00 00 00 	mov    0x0(%rip),%rsi        # 6642 <ps_node_receive+0xf2>
    6642:	4c 89 ef             	mov    %r13,%rdi
    6645:	89 c3                	mov    %eax,%ebx
    6647:	89 c1                	mov    %eax,%ecx
    6649:	e8 00 00 00 00       	call   664e <ps_node_receive+0xfe>
    664e:	85 db                	test   %ebx,%ebx
    6650:	74 4a                	je     669c <ps_node_receive+0x14c>
    6652:	48 ba 00 00 00 00 00 	movabs $0xdffffc0000000000,%rdx
    6659:	fc ff df 
    665c:	48 63 c3             	movslq %ebx,%rax
    665f:	49 01 d4             	add    %rdx,%r12
    6662:	49 c7 04 24 00 00 00 	movq   $0x0,(%r12)
    6669:	00 
    666a:	41 c7 44 24 08 00 00 	movl   $0x0,0x8(%r12)
    6671:	00 00 
    6673:	48 8b 55 d0          	mov    -0x30(%rbp),%rdx
    6677:	65 48 2b 14 25 28 00 	sub    %gs:0x28,%rdx
    667e:	00 00 
    6680:	0f 85 a9 00 00 00    	jne    672f <ps_node_receive+0x1df>
    6686:	48 81 c4 88 00 00 00 	add    $0x88,%rsp
    668d:	5b                   	pop    %rbx
    668e:	41 5c                	pop    %r12
    6690:	41 5d                	pop    %r13
    6692:	41 5e                	pop    %r14
    6694:	41 5f                	pop    %r15
    6696:	5d                   	pop    %rbp
    6697:	e9 00 00 00 00       	jmp    669c <ps_node_receive+0x14c>
    669c:	49 8b 7e a0          	mov    -0x60(%r14),%rdi
    66a0:	49 8d 56 c0          	lea    -0x40(%r14),%rdx
    66a4:	44 89 fe             	mov    %r15d,%esi
    66a7:	e8 00 00 00 00       	call   66ac <ps_node_receive+0x15c>
    66ac:	49 8b 56 c0          	mov    -0x40(%r14),%rdx
    66b0:	48 8b 35 00 00 00 00 	mov    0x0(%rip),%rsi        # 66b7 <ps_node_receive+0x167>
    66b7:	4c 89 ef             	mov    %r13,%rdi
    66ba:	89 c3                	mov    %eax,%ebx
    66bc:	89 c1                	mov    %eax,%ecx
    66be:	e8 00 00 00 00       	call   66c3 <ps_node_receive+0x173>
    66c3:	85 db                	test   %ebx,%ebx
    66c5:	74 2a                	je     66f1 <ps_node_receive+0x1a1>
    66c7:	49 8b 7e a0          	mov    -0x60(%r14),%rdi
    66cb:	e8 00 00 00 00       	call   66d0 <ps_node_receive+0x180>
    66d0:	49 8b 7e a0          	mov    -0x60(%r14),%rdi
    66d4:	e8 00 00 00 00       	call   66d9 <ps_node_receive+0x189>
    66d9:	48 8b 35 00 00 00 00 	mov    0x0(%rip),%rsi        # 66e0 <ps_node_receive+0x190>
    66e0:	48 8d 3d 00 00 00 00 	lea    0x0(%rip),%rdi        # 66e7 <ps_node_receive+0x197>
    66e7:	e8 00 00 00 00       	call   66ec <ps_node_receive+0x19c>
    66ec:	e9 61 ff ff ff       	jmp    6652 <ps_node_receive+0x102>
    66f1:	4c 8b bd 50 ff ff ff 	mov    -0xb0(%rbp),%r15
    66f8:	49 8b 76 c0          	mov    -0x40(%r14),%rsi
    66fc:	49 8b 7e a0          	mov    -0x60(%r14),%rdi
    6700:	4c 89 fa             	mov    %r15,%rdx
    6703:	e8 00 00 00 00       	call   6708 <ps_node_receive+0x1b8>
    6708:	49 8b 56 c0          	mov    -0x40(%r14),%rdx
    670c:	4c 89 f9             	mov    %r15,%rcx
    670f:	4c 89 ef             	mov    %r13,%rdi
    6712:	48 8b 35 00 00 00 00 	mov    0x0(%rip),%rsi        # 6719 <ps_node_receive+0x1c9>
    6719:	41 89 c0             	mov    %eax,%r8d
    671c:	89 c3                	mov    %eax,%ebx
    671e:	e8 00 00 00 00       	call   6723 <ps_node_receive+0x1d3>
    6723:	eb a2                	jmp    66c7 <ps_node_receive+0x177>
    6725:	e8 00 00 00 00       	call   672a <ps_node_receive+0x1da>
    672a:	e9 cf fe ff ff       	jmp    65fe <ps_node_receive+0xae>
    672f:	e8 00 00 00 00       	call   6734 <ps_node_receive+0x1e4>
    6734:	66 2e 0f 1f 84 00 00 	cs nopw 0x0(%rax,%rax,1)
    673b:	00 00 00 
    673e:	66 90                	xchg   %ax,%ax

0000000000006740 <__pfx_test_create_node_struct>:
    6740:	90                   	nop
    6741:	90                   	nop
    6742:	90                   	nop
    6743:	90                   	nop
    6744:	90                   	nop
    6745:	90                   	nop
    6746:	90                   	nop
    6747:	90                   	nop
    6748:	90                   	nop
    6749:	90                   	nop
    674a:	90                   	nop
    674b:	90                   	nop
    674c:	90                   	nop
    674d:	90                   	nop
    674e:	90                   	nop
    674f:	90                   	nop

0000000000006750 <test_create_node_struct>:
    6750:	f3 0f 1e fa          	endbr64
    6754:	e8 00 00 00 00       	call   6759 <test_create_node_struct+0x9>
    6759:	55                   	push   %rbp
    675a:	bf 14 00 00 00       	mov    $0x14,%edi
    675f:	be 0a 00 00 00       	mov    $0xa,%esi
    6764:	48 b8 00 00 00 00 00 	movabs $0xdffffc0000000000,%rax
    676b:	fc ff df 
    676e:	48 89 e5             	mov    %rsp,%rbp
    6771:	41 54                	push   %r12
    6773:	53                   	push   %rbx
    6774:	48 8d 5d 90          	lea    -0x70(%rbp),%rbx
    6778:	48 8d 55 b0          	lea    -0x50(%rbp),%rdx
    677c:	48 c1 eb 03          	shr    $0x3,%rbx
    6780:	48 01 d8             	add    %rbx,%rax
    6783:	48 83 ec 60          	sub    $0x60,%rsp
    6787:	48 c7 45 90 b3 8a b5 	movq   $0x41b58ab3,-0x70(%rbp)
    678e:	41 
    678f:	48 c7 45 98 00 00 00 	movq   $0x0,-0x68(%rbp)
    6796:	00 
    6797:	48 c7 45 a0 00 00 00 	movq   $0x0,-0x60(%rbp)
    679e:	00 
    679f:	c7 00 f1 f1 f1 f1    	movl   $0xf1f1f1f1,(%rax)
    67a5:	c7 40 04 00 f3 f3 f3 	movl   $0xf3f3f300,0x4(%rax)
    67ac:	65 48 8b 04 25 28 00 	mov    %gs:0x28,%rax
    67b3:	00 00 
    67b5:	48 89 45 e8          	mov    %rax,-0x18(%rbp)
    67b9:	31 c0                	xor    %eax,%eax
    67bb:	48 c7 45 b0 00 00 00 	movq   $0x0,-0x50(%rbp)
    67c2:	00 
    67c3:	e8 00 00 00 00       	call   67c8 <test_create_node_struct+0x78>
    67c8:	48 8b 7d b0          	mov    -0x50(%rbp),%rdi
    67cc:	41 89 c4             	mov    %eax,%r12d
    67cf:	85 c0                	test   %eax,%eax
    67d1:	75 3b                	jne    680e <test_create_node_struct+0xbe>
    67d3:	48 85 ff             	test   %rdi,%rdi
    67d6:	74 36                	je     680e <test_create_node_struct+0xbe>
    67d8:	e8 00 00 00 00       	call   67dd <test_create_node_struct+0x8d>
    67dd:	48 b8 00 00 00 00 00 	movabs $0xdffffc0000000000,%rax
    67e4:	fc ff df 
    67e7:	48 c7 04 03 00 00 00 	movq   $0x0,(%rbx,%rax,1)
    67ee:	00 
    67ef:	48 8b 45 e8          	mov    -0x18(%rbp),%rax
    67f3:	65 48 2b 04 25 28 00 	sub    %gs:0x28,%rax
    67fa:	00 00 
    67fc:	75 34                	jne    6832 <test_create_node_struct+0xe2>
    67fe:	48 83 c4 60          	add    $0x60,%rsp
    6802:	44 89 e0             	mov    %r12d,%eax
    6805:	5b                   	pop    %rbx
    6806:	41 5c                	pop    %r12
    6808:	5d                   	pop    %rbp
    6809:	e9 00 00 00 00       	jmp    680e <test_create_node_struct+0xbe>
    680e:	48 8b 35 00 00 00 00 	mov    0x0(%rip),%rsi        # 6815 <test_create_node_struct+0xc5>
    6815:	48 89 f9             	mov    %rdi,%rcx
    6818:	44 89 e2             	mov    %r12d,%edx
    681b:	41 bc fe ff ff ff    	mov    $0xfffffffe,%r12d
    6821:	4c 8d 05 00 00 00 00 	lea    0x0(%rip),%r8        # 6828 <test_create_node_struct+0xd8>
    6828:	4c 89 c7             	mov    %r8,%rdi
    682b:	e8 00 00 00 00       	call   6830 <test_create_node_struct+0xe0>
    6830:	eb ab                	jmp    67dd <test_create_node_struct+0x8d>
    6832:	e8 00 00 00 00       	call   6837 <test_create_node_struct+0xe7>
    6837:	66 0f 1f 84 00 00 00 	nopw   0x0(%rax,%rax,1)
    683e:	00 00 

0000000000006840 <__pfx_test_create_publisher_struct>:
    6840:	90                   	nop
    6841:	90                   	nop
    6842:	90                   	nop
    6843:	90                   	nop
    6844:	90                   	nop
    6845:	90                   	nop
    6846:	90                   	nop
    6847:	90                   	nop
    6848:	90                   	nop
    6849:	90                   	nop
    684a:	90                   	nop
    684b:	90                   	nop
    684c:	90                   	nop
    684d:	90                   	nop
    684e:	90                   	nop
    684f:	90                   	nop

0000000000006850 <test_create_publisher_struct>:
    6850:	f3 0f 1e fa          	endbr64
    6854:	e8 00 00 00 00       	call   6859 <test_create_publisher_struct+0x9>
    6859:	48 b8 00 00 00 00 00 	movabs $0xdffffc0000000000,%rax
    6860:	fc ff df 
    6863:	55                   	push   %rbp
    6864:	bf 0b 00 00 00       	mov    $0xb,%edi
    6869:	48 89 e5             	mov    %rsp,%rbp
    686c:	41 54                	push   %r12
    686e:	53                   	push   %rbx
    686f:	48 8d 5d 90          	lea    -0x70(%rbp),%rbx
    6873:	48 8d 75 b0          	lea    -0x50(%rbp),%rsi
    6877:	48 c1 eb 03          	shr    $0x3,%rbx
    687b:	48 01 d8             	add    %rbx,%rax
    687e:	48 83 ec 60          	sub    $0x60,%rsp
    6882:	48 c7 45 90 b3 8a b5 	movq   $0x41b58ab3,-0x70(%rbp)
    6889:	41 
    688a:	48 c7 45 98 00 00 00 	movq   $0x0,-0x68(%rbp)
    6891:	00 
    6892:	48 c7 45 a0 00 00 00 	movq   $0x0,-0x60(%rbp)
    6899:	00 
    689a:	c7 00 f1 f1 f1 f1    	movl   $0xf1f1f1f1,(%rax)
    68a0:	c7 40 04 00 f3 f3 f3 	movl   $0xf3f3f300,0x4(%rax)
    68a7:	65 48 8b 04 25 28 00 	mov    %gs:0x28,%rax
    68ae:	00 00 
    68b0:	48 89 45 e8          	mov    %rax,-0x18(%rbp)
    68b4:	31 c0                	xor    %eax,%eax
    68b6:	48 c7 45 b0 00 00 00 	movq   $0x0,-0x50(%rbp)
    68bd:	00 
    68be:	e8 00 00 00 00       	call   68c3 <test_create_publisher_struct+0x73>
    68c3:	48 8b 7d b0          	mov    -0x50(%rbp),%rdi
    68c7:	41 89 c4             	mov    %eax,%r12d
    68ca:	85 c0                	test   %eax,%eax
    68cc:	75 3b                	jne    6909 <test_create_publisher_struct+0xb9>
    68ce:	48 85 ff             	test   %rdi,%rdi
    68d1:	74 36                	je     6909 <test_create_publisher_struct+0xb9>
    68d3:	e8 00 00 00 00       	call   68d8 <test_create_publisher_struct+0x88>
    68d8:	48 b8 00 00 00 00 00 	movabs $0xdffffc0000000000,%rax
    68df:	fc ff df 
    68e2:	48 c7 04 03 00 00 00 	movq   $0x0,(%rbx,%rax,1)
    68e9:	00 
    68ea:	48 8b 45 e8          	mov    -0x18(%rbp),%rax
    68ee:	65 48 2b 04 25 28 00 	sub    %gs:0x28,%rax
    68f5:	00 00 
    68f7:	75 34                	jne    692d <test_create_publisher_struct+0xdd>
    68f9:	48 83 c4 60          	add    $0x60,%rsp
    68fd:	44 89 e0             	mov    %r12d,%eax
    6900:	5b                   	pop    %rbx
    6901:	41 5c                	pop    %r12
    6903:	5d                   	pop    %rbp
    6904:	e9 00 00 00 00       	jmp    6909 <test_create_publisher_struct+0xb9>
    6909:	48 8b 35 00 00 00 00 	mov    0x0(%rip),%rsi        # 6910 <test_create_publisher_struct+0xc0>
    6910:	48 89 f9             	mov    %rdi,%rcx
    6913:	44 89 e2             	mov    %r12d,%edx
    6916:	41 bc fe ff ff ff    	mov    $0xfffffffe,%r12d
    691c:	4c 8d 05 00 00 00 00 	lea    0x0(%rip),%r8        # 6923 <test_create_publisher_struct+0xd3>
    6923:	4c 89 c7             	mov    %r8,%rdi
    6926:	e8 00 00 00 00       	call   692b <test_create_publisher_struct+0xdb>
    692b:	eb ab                	jmp    68d8 <test_create_publisher_struct+0x88>
    692d:	e8 00 00 00 00       	call   6932 <test_create_publisher_struct+0xe2>
    6932:	66 66 2e 0f 1f 84 00 	data16 cs nopw 0x0(%rax,%rax,1)
    6939:	00 00 00 00 
    693d:	0f 1f 00             	nopl   (%rax)

0000000000006940 <__pfx_test_create_subscriber_struct>:
    6940:	90                   	nop
    6941:	90                   	nop
    6942:	90                   	nop
    6943:	90                   	nop
    6944:	90                   	nop
    6945:	90                   	nop
    6946:	90                   	nop
    6947:	90                   	nop
    6948:	90                   	nop
    6949:	90                   	nop
    694a:	90                   	nop
    694b:	90                   	nop
    694c:	90                   	nop
    694d:	90                   	nop
    694e:	90                   	nop
    694f:	90                   	nop

0000000000006950 <test_create_subscriber_struct>:
    6950:	f3 0f 1e fa          	endbr64
    6954:	e8 00 00 00 00       	call   6959 <test_create_subscriber_struct+0x9>
    6959:	48 b8 00 00 00 00 00 	movabs $0xdffffc0000000000,%rax
    6960:	fc ff df 
    6963:	55                   	push   %rbp
    6964:	bf 0b 00 00 00       	mov    $0xb,%edi
    6969:	48 89 e5             	mov    %rsp,%rbp
    696c:	41 54                	push   %r12
    696e:	53                   	push   %rbx
    696f:	48 8d 5d 90          	lea    -0x70(%rbp),%rbx
    6973:	48 8d 75 b0          	lea    -0x50(%rbp),%rsi
    6977:	48 c1 eb 03          	shr    $0x3,%rbx
    697b:	48 01 d8             	add    %rbx,%rax
    697e:	48 83 ec 60          	sub    $0x60,%rsp
    6982:	48 c7 45 90 b3 8a b5 	movq   $0x41b58ab3,-0x70(%rbp)
    6989:	41 
    698a:	48 c7 45 98 00 00 00 	movq   $0x0,-0x68(%rbp)
    6991:	00 
    6992:	48 c7 45 a0 00 00 00 	movq   $0x0,-0x60(%rbp)
    6999:	00 
    699a:	c7 00 f1 f1 f1 f1    	movl   $0xf1f1f1f1,(%rax)
    69a0:	c7 40 04 00 f3 f3 f3 	movl   $0xf3f3f300,0x4(%rax)
    69a7:	65 48 8b 04 25 28 00 	mov    %gs:0x28,%rax
    69ae:	00 00 
    69b0:	48 89 45 e8          	mov    %rax,-0x18(%rbp)
    69b4:	31 c0                	xor    %eax,%eax
    69b6:	48 c7 45 b0 00 00 00 	movq   $0x0,-0x50(%rbp)
    69bd:	00 
    69be:	e8 00 00 00 00       	call   69c3 <test_create_subscriber_struct+0x73>
    69c3:	48 8b 7d b0          	mov    -0x50(%rbp),%rdi
    69c7:	41 89 c4             	mov    %eax,%r12d
    69ca:	85 c0                	test   %eax,%eax
    69cc:	75 3b                	jne    6a09 <test_create_subscriber_struct+0xb9>
    69ce:	48 85 ff             	test   %rdi,%rdi
    69d1:	74 36                	je     6a09 <test_create_subscriber_struct+0xb9>
    69d3:	e8 00 00 00 00       	call   69d8 <test_create_subscriber_struct+0x88>
    69d8:	48 b8 00 00 00 00 00 	movabs $0xdffffc0000000000,%rax
    69df:	fc ff df 
    69e2:	48 c7 04 03 00 00 00 	movq   $0x0,(%rbx,%rax,1)
    69e9:	00 
    69ea:	48 8b 45 e8          	mov    -0x18(%rbp),%rax
    69ee:	65 48 2b 04 25 28 00 	sub    %gs:0x28,%rax
    69f5:	00 00 
    69f7:	75 34                	jne    6a2d <test_create_subscriber_struct+0xdd>
    69f9:	48 83 c4 60          	add    $0x60,%rsp
    69fd:	44 89 e0             	mov    %r12d,%eax
    6a00:	5b                   	pop    %rbx
    6a01:	41 5c                	pop    %r12
    6a03:	5d                   	pop    %rbp
    6a04:	e9 00 00 00 00       	jmp    6a09 <test_create_subscriber_struct+0xb9>
    6a09:	48 8b 35 00 00 00 00 	mov    0x0(%rip),%rsi        # 6a10 <test_create_subscriber_struct+0xc0>
    6a10:	48 89 f9             	mov    %rdi,%rcx
    6a13:	44 89 e2             	mov    %r12d,%edx
    6a16:	41 bc fe ff ff ff    	mov    $0xfffffffe,%r12d
    6a1c:	4c 8d 05 00 00 00 00 	lea    0x0(%rip),%r8        # 6a23 <test_create_subscriber_struct+0xd3>
    6a23:	4c 89 c7             	mov    %r8,%rdi
    6a26:	e8 00 00 00 00       	call   6a2b <test_create_subscriber_struct+0xdb>
    6a2b:	eb ab                	jmp    69d8 <test_create_subscriber_struct+0x88>
    6a2d:	e8 00 00 00 00       	call   6a32 <test_create_subscriber_struct+0xe2>
    6a32:	66 66 2e 0f 1f 84 00 	data16 cs nopw 0x0(%rax,%rax,1)
    6a39:	00 00 00 00 
    6a3d:	0f 1f 00             	nopl   (%rax)

0000000000006a40 <__pfx_test_create_position_struct>:
    6a40:	90                   	nop
    6a41:	90                   	nop
    6a42:	90                   	nop
    6a43:	90                   	nop
    6a44:	90                   	nop
    6a45:	90                   	nop
    6a46:	90                   	nop
    6a47:	90                   	nop
    6a48:	90                   	nop
    6a49:	90                   	nop
    6a4a:	90                   	nop
    6a4b:	90                   	nop
    6a4c:	90                   	nop
    6a4d:	90                   	nop
    6a4e:	90                   	nop
    6a4f:	90                   	nop

0000000000006a50 <test_create_position_struct>:
    6a50:	f3 0f 1e fa          	endbr64
    6a54:	e8 00 00 00 00       	call   6a59 <test_create_position_struct+0x9>
    6a59:	48 b8 00 00 00 00 00 	movabs $0xdffffc0000000000,%rax
    6a60:	fc ff df 
    6a63:	55                   	push   %rbp
    6a64:	48 89 e5             	mov    %rsp,%rbp
    6a67:	41 54                	push   %r12
    6a69:	53                   	push   %rbx
    6a6a:	48 8d 5d 90          	lea    -0x70(%rbp),%rbx
    6a6e:	48 8d 7d b0          	lea    -0x50(%rbp),%rdi
    6a72:	48 c1 eb 03          	shr    $0x3,%rbx
    6a76:	48 01 d8             	add    %rbx,%rax
    6a79:	48 83 ec 60          	sub    $0x60,%rsp
    6a7d:	48 c7 45 90 b3 8a b5 	movq   $0x41b58ab3,-0x70(%rbp)
    6a84:	41 
    6a85:	48 c7 45 98 00 00 00 	movq   $0x0,-0x68(%rbp)
    6a8c:	00 
    6a8d:	48 c7 45 a0 00 00 00 	movq   $0x0,-0x60(%rbp)
    6a94:	00 
    6a95:	c7 00 f1 f1 f1 f1    	movl   $0xf1f1f1f1,(%rax)
    6a9b:	c7 40 04 00 f3 f3 f3 	movl   $0xf3f3f300,0x4(%rax)
    6aa2:	65 48 8b 04 25 28 00 	mov    %gs:0x28,%rax
    6aa9:	00 00 
    6aab:	48 89 45 e8          	mov    %rax,-0x18(%rbp)
    6aaf:	31 c0                	xor    %eax,%eax
    6ab1:	48 c7 45 b0 00 00 00 	movq   $0x0,-0x50(%rbp)
    6ab8:	00 
    6ab9:	e8 00 00 00 00       	call   6abe <test_create_position_struct+0x6e>
    6abe:	48 8b 7d b0          	mov    -0x50(%rbp),%rdi
    6ac2:	41 89 c4             	mov    %eax,%r12d
    6ac5:	85 c0                	test   %eax,%eax
    6ac7:	75 3b                	jne    6b04 <test_create_position_struct+0xb4>
    6ac9:	48 85 ff             	test   %rdi,%rdi
    6acc:	74 36                	je     6b04 <test_create_position_struct+0xb4>
    6ace:	e8 00 00 00 00       	call   6ad3 <test_create_position_struct+0x83>
    6ad3:	48 b8 00 00 00 00 00 	movabs $0xdffffc0000000000,%rax
    6ada:	fc ff df 
    6add:	48 c7 04 03 00 00 00 	movq   $0x0,(%rbx,%rax,1)
    6ae4:	00 
    6ae5:	48 8b 45 e8          	mov    -0x18(%rbp),%rax
    6ae9:	65 48 2b 04 25 28 00 	sub    %gs:0x28,%rax
    6af0:	00 00 
    6af2:	75 34                	jne    6b28 <test_create_position_struct+0xd8>
    6af4:	48 83 c4 60          	add    $0x60,%rsp
    6af8:	44 89 e0             	mov    %r12d,%eax
    6afb:	5b                   	pop    %rbx
    6afc:	41 5c                	pop    %r12
    6afe:	5d                   	pop    %rbp
    6aff:	e9 00 00 00 00       	jmp    6b04 <test_create_position_struct+0xb4>
    6b04:	48 8b 35 00 00 00 00 	mov    0x0(%rip),%rsi        # 6b0b <test_create_position_struct+0xbb>
    6b0b:	48 89 f9             	mov    %rdi,%rcx
    6b0e:	44 89 e2             	mov    %r12d,%edx
    6b11:	41 bc fe ff ff ff    	mov    $0xfffffffe,%r12d
    6b17:	4c 8d 05 00 00 00 00 	lea    0x0(%rip),%r8        # 6b1e <test_create_position_struct+0xce>
    6b1e:	4c 89 c7             	mov    %r8,%rdi
    6b21:	e8 00 00 00 00       	call   6b26 <test_create_position_struct+0xd6>
    6b26:	eb ab                	jmp    6ad3 <test_create_position_struct+0x83>
    6b28:	e8 00 00 00 00       	call   6b2d <test_create_position_struct+0xdd>
    6b2d:	0f 1f 00             	nopl   (%rax)

0000000000006b30 <__pfx_test_init_buffer_struct>:
    6b30:	90                   	nop
    6b31:	90                   	nop
    6b32:	90                   	nop
    6b33:	90                   	nop
    6b34:	90                   	nop
    6b35:	90                   	nop
    6b36:	90                   	nop
    6b37:	90                   	nop
    6b38:	90                   	nop
    6b39:	90                   	nop
    6b3a:	90                   	nop
    6b3b:	90                   	nop
    6b3c:	90                   	nop
    6b3d:	90                   	nop
    6b3e:	90                   	nop
    6b3f:	90                   	nop

0000000000006b40 <test_init_buffer_struct>:
    6b40:	f3 0f 1e fa          	endbr64
    6b44:	e8 00 00 00 00       	call   6b49 <test_init_buffer_struct+0x9>
    6b49:	4c 8d 54 24 08       	lea    0x8(%rsp),%r10
    6b4e:	48 83 e4 f0          	and    $0xfffffffffffffff0,%rsp
    6b52:	ba 0a 00 00 00       	mov    $0xa,%edx
    6b57:	48 b8 00 00 00 00 00 	movabs $0xdffffc0000000000,%rax
    6b5e:	fc ff df 
    6b61:	41 ff 72 f8          	push   -0x8(%r10)
    6b65:	be 14 00 00 00       	mov    $0x14,%esi
    6b6a:	55                   	push   %rbp
    6b6b:	48 89 e5             	mov    %rsp,%rbp
    6b6e:	41 56                	push   %r14
    6b70:	41 55                	push   %r13
    6b72:	48 8d bd 40 ff ff ff 	lea    -0xc0(%rbp),%rdi
    6b79:	41 54                	push   %r12
    6b7b:	41 52                	push   %r10
    6b7d:	53                   	push   %rbx
    6b7e:	48 8d 9d 10 ff ff ff 	lea    -0xf0(%rbp),%rbx
    6b85:	48 c1 eb 03          	shr    $0x3,%rbx
    6b89:	48 01 d8             	add    %rbx,%rax
    6b8c:	48 81 ec d8 00 00 00 	sub    $0xd8,%rsp
    6b93:	48 c7 85 10 ff ff ff 	movq   $0x41b58ab3,-0xf0(%rbp)
    6b9a:	b3 8a b5 41 
    6b9e:	48 c7 85 18 ff ff ff 	movq   $0x0,-0xe8(%rbp)
    6ba5:	00 00 00 00 
    6ba9:	48 c7 85 20 ff ff ff 	movq   $0x0,-0xe0(%rbp)
    6bb0:	00 00 00 00 
    6bb4:	c7 00 f1 f1 f1 f1    	movl   $0xf1f1f1f1,(%rax)
    6bba:	c7 40 04 f1 f1 00 00 	movl   $0xf1f1,0x4(%rax)
    6bc1:	c7 40 10 f3 f3 f3 f3 	movl   $0xf3f3f3f3,0x10(%rax)
    6bc8:	65 48 8b 04 25 28 00 	mov    %gs:0x28,%rax
    6bcf:	00 00 
    6bd1:	48 89 45 c8          	mov    %rax,-0x38(%rbp)
    6bd5:	31 c0                	xor    %eax,%eax
    6bd7:	e8 00 00 00 00       	call   6bdc <test_init_buffer_struct+0x9c>
    6bdc:	4c 8b 8d 50 ff ff ff 	mov    -0xb0(%rbp),%r9
    6be3:	4c 8b 95 60 ff ff ff 	mov    -0xa0(%rbp),%r10
    6bea:	4c 8b 85 68 ff ff ff 	mov    -0x98(%rbp),%r8
    6bf1:	48 8b 75 80          	mov    -0x80(%rbp),%rsi
    6bf5:	89 c2                	mov    %eax,%edx
    6bf7:	48 8b 7d 88          	mov    -0x78(%rbp),%rdi
    6bfb:	4c 8b 9d 58 ff ff ff 	mov    -0xa8(%rbp),%r11
    6c02:	44 8b ad 74 ff ff ff 	mov    -0x8c(%rbp),%r13d
    6c09:	44 8b b5 7c ff ff ff 	mov    -0x84(%rbp),%r14d
    6c10:	8b 8d 70 ff ff ff    	mov    -0x90(%rbp),%ecx
    6c16:	85 c0                	test   %eax,%eax
    6c18:	75 6f                	jne    6c89 <test_init_buffer_struct+0x149>
    6c1a:	4d 39 d1             	cmp    %r10,%r9
    6c1d:	75 6a                	jne    6c89 <test_init_buffer_struct+0x149>
    6c1f:	4d 39 c1             	cmp    %r8,%r9
    6c22:	75 65                	jne    6c89 <test_init_buffer_struct+0x149>
    6c24:	48 83 fe 0a          	cmp    $0xa,%rsi
    6c28:	75 5f                	jne    6c89 <test_init_buffer_struct+0x149>
    6c2a:	48 83 ff 14          	cmp    $0x14,%rdi
    6c2e:	75 59                	jne    6c89 <test_init_buffer_struct+0x149>
    6c30:	4c 89 d8             	mov    %r11,%rax
    6c33:	4c 29 c8             	sub    %r9,%rax
    6c36:	48 3d be 00 00 00    	cmp    $0xbe,%rax
    6c3c:	75 4b                	jne    6c89 <test_init_buffer_struct+0x149>
    6c3e:	44 89 e8             	mov    %r13d,%eax
    6c41:	44 09 f0             	or     %r14d,%eax
    6c44:	09 c8                	or     %ecx,%eax
    6c46:	75 41                	jne    6c89 <test_init_buffer_struct+0x149>
    6c48:	48 ba 00 00 00 00 00 	movabs $0xdffffc0000000000,%rdx
    6c4f:	fc ff df 
    6c52:	48 01 d3             	add    %rdx,%rbx
    6c55:	48 c7 03 00 00 00 00 	movq   $0x0,(%rbx)
    6c5c:	c7 43 10 00 00 00 00 	movl   $0x0,0x10(%rbx)
    6c63:	48 8b 55 c8          	mov    -0x38(%rbp),%rdx
    6c67:	65 48 2b 14 25 28 00 	sub    %gs:0x28,%rdx
    6c6e:	00 00 
    6c70:	75 78                	jne    6cea <test_init_buffer_struct+0x1aa>
    6c72:	48 8d 65 d8          	lea    -0x28(%rbp),%rsp
    6c76:	5b                   	pop    %rbx
    6c77:	41 5a                	pop    %r10
    6c79:	41 5c                	pop    %r12
    6c7b:	41 5d                	pop    %r13
    6c7d:	41 5e                	pop    %r14
    6c7f:	5d                   	pop    %rbp
    6c80:	49 8d 62 f8          	lea    -0x8(%r10),%rsp
    6c84:	e9 00 00 00 00       	jmp    6c89 <test_init_buffer_struct+0x149>
    6c89:	56                   	push   %rsi
    6c8a:	48 8b 35 00 00 00 00 	mov    0x0(%rip),%rsi        # 6c91 <test_init_buffer_struct+0x151>
    6c91:	57                   	push   %rdi
    6c92:	51                   	push   %rcx
    6c93:	4c 89 d1             	mov    %r10,%rcx
    6c96:	41 56                	push   %r14
    6c98:	41 55                	push   %r13
    6c9a:	41 53                	push   %r11
    6c9c:	4c 8d 25 00 00 00 00 	lea    0x0(%rip),%r12        # 6ca3 <test_init_buffer_struct+0x163>
    6ca3:	4c 89 e7             	mov    %r12,%rdi
    6ca6:	e8 00 00 00 00       	call   6cab <test_init_buffer_struct+0x16b>
    6cab:	48 8b 45 88          	mov    -0x78(%rbp),%rax
    6caf:	48 8b 35 00 00 00 00 	mov    0x0(%rip),%rsi        # 6cb6 <test_init_buffer_struct+0x176>
    6cb6:	4c 89 e7             	mov    %r12,%rdi
    6cb9:	48 8b 95 58 ff ff ff 	mov    -0xa8(%rbp),%rdx
    6cc0:	48 83 c4 30          	add    $0x30,%rsp
    6cc4:	48 2b 95 50 ff ff ff 	sub    -0xb0(%rbp),%rdx
    6ccb:	48 8d 48 ff          	lea    -0x1(%rax),%rcx
    6ccf:	48 89 85 08 ff ff ff 	mov    %rax,-0xf8(%rbp)
    6cd6:	48 0f af 4d 80       	imul   -0x80(%rbp),%rcx
    6cdb:	e8 00 00 00 00       	call   6ce0 <test_init_buffer_struct+0x1a0>
    6ce0:	b8 fe ff ff ff       	mov    $0xfffffffe,%eax
    6ce5:	e9 5e ff ff ff       	jmp    6c48 <test_init_buffer_struct+0x108>
    6cea:	e8 00 00 00 00       	call   6cef <test_init_buffer_struct+0x1af>
    6cef:	90                   	nop

0000000000006cf0 <__pfx_test_find_publisher_empty>:
    6cf0:	90                   	nop
    6cf1:	90                   	nop
    6cf2:	90                   	nop
    6cf3:	90                   	nop
    6cf4:	90                   	nop
    6cf5:	90                   	nop
    6cf6:	90                   	nop
    6cf7:	90                   	nop
    6cf8:	90                   	nop
    6cf9:	90                   	nop
    6cfa:	90                   	nop
    6cfb:	90                   	nop
    6cfc:	90                   	nop
    6cfd:	90                   	nop
    6cfe:	90                   	nop
    6cff:	90                   	nop

0000000000006d00 <test_find_publisher_empty>:
    6d00:	f3 0f 1e fa          	endbr64
    6d04:	e8 00 00 00 00       	call   6d09 <test_find_publisher_empty+0x9>
    6d09:	48 b8 00 00 00 00 00 	movabs $0xdffffc0000000000,%rax
    6d10:	fc ff df 
    6d13:	55                   	push   %rbp
    6d14:	48 89 e5             	mov    %rsp,%rbp
    6d17:	53                   	push   %rbx
    6d18:	48 8d 9d 38 ff ff ff 	lea    -0xc8(%rbp),%rbx
    6d1f:	48 8d bd 78 ff ff ff 	lea    -0x88(%rbp),%rdi
    6d26:	48 c1 eb 03          	shr    $0x3,%rbx
    6d2a:	48 01 d8             	add    %rbx,%rax
    6d2d:	48 81 ec c0 00 00 00 	sub    $0xc0,%rsp
    6d34:	48 c7 85 38 ff ff ff 	movq   $0x41b58ab3,-0xc8(%rbp)
    6d3b:	b3 8a b5 41 
    6d3f:	48 c7 85 40 ff ff ff 	movq   $0x0,-0xc0(%rbp)
    6d46:	00 00 00 00 
    6d4a:	48 c7 85 48 ff ff ff 	movq   $0x0,-0xb8(%rbp)
    6d51:	00 00 00 00 
    6d55:	c7 00 f1 f1 f1 f1    	movl   $0xf1f1f1f1,(%rax)
    6d5b:	c7 40 04 00 f2 f2 f2 	movl   $0xf2f2f200,0x4(%rax)
    6d62:	c7 40 10 f3 f3 f3 f3 	movl   $0xf3f3f3f3,0x10(%rax)
    6d69:	65 48 8b 04 25 28 00 	mov    %gs:0x28,%rax
    6d70:	00 00 
    6d72:	48 89 45 f0          	mov    %rax,-0x10(%rbp)
    6d76:	31 c0                	xor    %eax,%eax
    6d78:	48 c7 85 58 ff ff ff 	movq   $0x0,-0xa8(%rbp)
    6d7f:	00 00 00 00 
    6d83:	e8 00 00 00 00       	call   6d88 <test_find_publisher_empty+0x88>
    6d88:	48 8d 95 58 ff ff ff 	lea    -0xa8(%rbp),%rdx
    6d8f:	be 0b 00 00 00       	mov    $0xb,%esi
    6d94:	48 8d bd 78 ff ff ff 	lea    -0x88(%rbp),%rdi
    6d9b:	e8 00 00 00 00       	call   6da0 <test_find_publisher_empty+0xa0>
    6da0:	48 8b 8d 58 ff ff ff 	mov    -0xa8(%rbp),%rcx
    6da7:	83 f8 fe             	cmp    $0xfffffffe,%eax
    6daa:	75 3f                	jne    6deb <test_find_publisher_empty+0xeb>
    6dac:	45 31 c0             	xor    %r8d,%r8d
    6daf:	48 85 c9             	test   %rcx,%rcx
    6db2:	75 37                	jne    6deb <test_find_publisher_empty+0xeb>
    6db4:	48 b8 00 00 00 00 00 	movabs $0xdffffc0000000000,%rax
    6dbb:	fc ff df 
    6dbe:	48 01 c3             	add    %rax,%rbx
    6dc1:	48 c7 03 00 00 00 00 	movq   $0x0,(%rbx)
    6dc8:	c7 43 10 00 00 00 00 	movl   $0x0,0x10(%rbx)
    6dcf:	48 8b 45 f0          	mov    -0x10(%rbp),%rax
    6dd3:	65 48 2b 04 25 28 00 	sub    %gs:0x28,%rax
    6dda:	00 00 
    6ddc:	75 2a                	jne    6e08 <test_find_publisher_empty+0x108>
    6dde:	48 8b 5d f8          	mov    -0x8(%rbp),%rbx
    6de2:	44 89 c0             	mov    %r8d,%eax
    6de5:	c9                   	leave
    6de6:	e9 00 00 00 00       	jmp    6deb <test_find_publisher_empty+0xeb>
    6deb:	48 8b 35 00 00 00 00 	mov    0x0(%rip),%rsi        # 6df2 <test_find_publisher_empty+0xf2>
    6df2:	89 c2                	mov    %eax,%edx
    6df4:	48 8d 3d 00 00 00 00 	lea    0x0(%rip),%rdi        # 6dfb <test_find_publisher_empty+0xfb>
    6dfb:	e8 00 00 00 00       	call   6e00 <test_find_publisher_empty+0x100>
    6e00:	41 b8 fe ff ff ff    	mov    $0xfffffffe,%r8d
    6e06:	eb ac                	jmp    6db4 <test_find_publisher_empty+0xb4>
    6e08:	e8 00 00 00 00       	call   6e0d <test_find_publisher_empty+0x10d>
    6e0d:	0f 1f 00             	nopl   (%rax)

0000000000006e10 <__pfx_test_find_publisher>:
    6e10:	90                   	nop
    6e11:	90                   	nop
    6e12:	90                   	nop
    6e13:	90                   	nop
    6e14:	90                   	nop
    6e15:	90                   	nop
    6e16:	90                   	nop
    6e17:	90                   	nop
    6e18:	90                   	nop
    6e19:	90                   	nop
    6e1a:	90                   	nop
    6e1b:	90                   	nop
    6e1c:	90                   	nop
    6e1d:	90                   	nop
    6e1e:	90                   	nop
    6e1f:	90                   	nop

0000000000006e20 <test_find_publisher>:
    6e20:	f3 0f 1e fa          	endbr64
    6e24:	e8 00 00 00 00       	call   6e29 <test_find_publisher+0x9>
    6e29:	48 b8 00 00 00 00 00 	movabs $0xdffffc0000000000,%rax
    6e30:	fc ff df 
    6e33:	55                   	push   %rbp
    6e34:	48 89 e5             	mov    %rsp,%rbp
    6e37:	53                   	push   %rbx
    6e38:	48 8d 95 18 ff ff ff 	lea    -0xe8(%rbp),%rdx
    6e3f:	48 8d bd 78 ff ff ff 	lea    -0x88(%rbp),%rdi
    6e46:	48 89 d3             	mov    %rdx,%rbx
    6e49:	48 c1 eb 03          	shr    $0x3,%rbx
    6e4d:	48 81 ec e0 00 00 00 	sub    $0xe0,%rsp
    6e54:	48 c7 85 18 ff ff ff 	movq   $0x41b58ab3,-0xe8(%rbp)
    6e5b:	b3 8a b5 41 
    6e5f:	48 c7 85 20 ff ff ff 	movq   $0x0,-0xe0(%rbp)
    6e66:	00 00 00 00 
    6e6a:	48 01 d8             	add    %rbx,%rax
    6e6d:	48 c7 85 28 ff ff ff 	movq   $0x0,-0xd8(%rbp)
    6e74:	00 00 00 00 
    6e78:	c7 00 f1 f1 f1 f1    	movl   $0xf1f1f1f1,(%rax)
    6e7e:	c7 40 04 00 f2 f2 f2 	movl   $0xf2f2f200,0x4(%rax)
    6e85:	c7 40 08 00 f2 f2 f2 	movl   $0xf2f2f200,0x8(%rax)
    6e8c:	c7 40 14 f3 f3 f3 f3 	movl   $0xf3f3f3f3,0x14(%rax)
    6e93:	65 48 8b 04 25 28 00 	mov    %gs:0x28,%rax
    6e9a:	00 00 
    6e9c:	48 89 45 f0          	mov    %rax,-0x10(%rbp)
    6ea0:	31 c0                	xor    %eax,%eax
    6ea2:	48 c7 85 38 ff ff ff 	movq   $0x0,-0xc8(%rbp)
    6ea9:	00 00 00 00 
    6ead:	48 c7 85 58 ff ff ff 	movq   $0x0,-0xa8(%rbp)
    6eb4:	00 00 00 00 
    6eb8:	e8 00 00 00 00       	call   6ebd <test_find_publisher+0x9d>
    6ebd:	48 8d b5 38 ff ff ff 	lea    -0xc8(%rbp),%rsi
    6ec4:	bf 0b 00 00 00       	mov    $0xb,%edi
    6ec9:	e8 00 00 00 00       	call   6ece <test_find_publisher+0xae>
    6ece:	48 8b b5 38 ff ff ff 	mov    -0xc8(%rbp),%rsi
    6ed5:	48 8d bd 78 ff ff ff 	lea    -0x88(%rbp),%rdi
    6edc:	e8 00 00 00 00       	call   6ee1 <test_find_publisher+0xc1>
    6ee1:	48 8d 95 58 ff ff ff 	lea    -0xa8(%rbp),%rdx
    6ee8:	be 0b 00 00 00       	mov    $0xb,%esi
    6eed:	48 8d bd 78 ff ff ff 	lea    -0x88(%rbp),%rdi
    6ef4:	e8 00 00 00 00       	call   6ef9 <test_find_publisher+0xd9>
    6ef9:	4c 8b 85 58 ff ff ff 	mov    -0xa8(%rbp),%r8
    6f00:	48 8b 8d 38 ff ff ff 	mov    -0xc8(%rbp),%rcx
    6f07:	85 c0                	test   %eax,%eax
    6f09:	75 45                	jne    6f50 <test_find_publisher+0x130>
    6f0b:	4d 85 c0             	test   %r8,%r8
    6f0e:	74 40                	je     6f50 <test_find_publisher+0x130>
    6f10:	49 39 c8             	cmp    %rcx,%r8
    6f13:	75 3b                	jne    6f50 <test_find_publisher+0x130>
    6f15:	48 ba 00 00 00 00 00 	movabs $0xdffffc0000000000,%rdx
    6f1c:	fc ff df 
    6f1f:	48 01 da             	add    %rbx,%rdx
    6f22:	48 c7 02 00 00 00 00 	movq   $0x0,(%rdx)
    6f29:	c7 42 08 00 00 00 00 	movl   $0x0,0x8(%rdx)
    6f30:	c7 42 14 00 00 00 00 	movl   $0x0,0x14(%rdx)
    6f37:	48 8b 55 f0          	mov    -0x10(%rbp),%rdx
    6f3b:	65 48 2b 14 25 28 00 	sub    %gs:0x28,%rdx
    6f42:	00 00 
    6f44:	75 26                	jne    6f6c <test_find_publisher+0x14c>
    6f46:	48 8b 5d f8          	mov    -0x8(%rbp),%rbx
    6f4a:	c9                   	leave
    6f4b:	e9 00 00 00 00       	jmp    6f50 <test_find_publisher+0x130>
    6f50:	48 8b 35 00 00 00 00 	mov    0x0(%rip),%rsi        # 6f57 <test_find_publisher+0x137>
    6f57:	89 c2                	mov    %eax,%edx
    6f59:	48 8d 3d 00 00 00 00 	lea    0x0(%rip),%rdi        # 6f60 <test_find_publisher+0x140>
    6f60:	e8 00 00 00 00       	call   6f65 <test_find_publisher+0x145>
    6f65:	b8 fe ff ff ff       	mov    $0xfffffffe,%eax
    6f6a:	eb a9                	jmp    6f15 <test_find_publisher+0xf5>
    6f6c:	e8 00 00 00 00       	call   6f71 <test_find_publisher+0x151>
    6f71:	66 66 2e 0f 1f 84 00 	data16 cs nopw 0x0(%rax,%rax,1)
    6f78:	00 00 00 00 
    6f7c:	0f 1f 40 00          	nopl   0x0(%rax)

0000000000006f80 <__pfx_test_find_publisher_not_right_number>:
    6f80:	90                   	nop
    6f81:	90                   	nop
    6f82:	90                   	nop
    6f83:	90                   	nop
    6f84:	90                   	nop
    6f85:	90                   	nop
    6f86:	90                   	nop
    6f87:	90                   	nop
    6f88:	90                   	nop
    6f89:	90                   	nop
    6f8a:	90                   	nop
    6f8b:	90                   	nop
    6f8c:	90                   	nop
    6f8d:	90                   	nop
    6f8e:	90                   	nop
    6f8f:	90                   	nop

0000000000006f90 <test_find_publisher_not_right_number>:
    6f90:	f3 0f 1e fa          	endbr64
    6f94:	e8 00 00 00 00       	call   6f99 <test_find_publisher_not_right_number+0x9>
    6f99:	55                   	push   %rbp
    6f9a:	48 89 e5             	mov    %rsp,%rbp
    6f9d:	53                   	push   %rbx
    6f9e:	48 8d 85 18 ff ff ff 	lea    -0xe8(%rbp),%rax
    6fa5:	48 8d bd 78 ff ff ff 	lea    -0x88(%rbp),%rdi
    6fac:	48 c1 e8 03          	shr    $0x3,%rax
    6fb0:	48 89 c3             	mov    %rax,%rbx
    6fb3:	48 81 ec e0 00 00 00 	sub    $0xe0,%rsp
    6fba:	48 b8 00 00 00 00 00 	movabs $0xdffffc0000000000,%rax
    6fc1:	fc ff df 
    6fc4:	48 c7 85 18 ff ff ff 	movq   $0x41b58ab3,-0xe8(%rbp)
    6fcb:	b3 8a b5 41 
    6fcf:	48 c7 85 20 ff ff ff 	movq   $0x0,-0xe0(%rbp)
    6fd6:	00 00 00 00 
    6fda:	48 01 d8             	add    %rbx,%rax
    6fdd:	48 c7 85 28 ff ff ff 	movq   $0x0,-0xd8(%rbp)
    6fe4:	00 00 00 00 
    6fe8:	c7 00 f1 f1 f1 f1    	movl   $0xf1f1f1f1,(%rax)
    6fee:	c7 40 04 00 f2 f2 f2 	movl   $0xf2f2f200,0x4(%rax)
    6ff5:	c7 40 08 00 f2 f2 f2 	movl   $0xf2f2f200,0x8(%rax)
    6ffc:	c7 40 14 f3 f3 f3 f3 	movl   $0xf3f3f3f3,0x14(%rax)
    7003:	65 48 8b 04 25 28 00 	mov    %gs:0x28,%rax
    700a:	00 00 
    700c:	48 89 45 f0          	mov    %rax,-0x10(%rbp)
    7010:	31 c0                	xor    %eax,%eax
    7012:	48 c7 85 38 ff ff ff 	movq   $0x0,-0xc8(%rbp)
    7019:	00 00 00 00 
    701d:	48 c7 85 58 ff ff ff 	movq   $0x0,-0xa8(%rbp)
    7024:	00 00 00 00 
    7028:	e8 00 00 00 00       	call   702d <test_find_publisher_not_right_number+0x9d>
    702d:	48 8d b5 38 ff ff ff 	lea    -0xc8(%rbp),%rsi
    7034:	bf 0b 00 00 00       	mov    $0xb,%edi
    7039:	e8 00 00 00 00       	call   703e <test_find_publisher_not_right_number+0xae>
    703e:	48 8b b5 38 ff ff ff 	mov    -0xc8(%rbp),%rsi
    7045:	48 8d bd 78 ff ff ff 	lea    -0x88(%rbp),%rdi
    704c:	e8 00 00 00 00       	call   7051 <test_find_publisher_not_right_number+0xc1>
    7051:	48 8d 95 58 ff ff ff 	lea    -0xa8(%rbp),%rdx
    7058:	be 0c 00 00 00       	mov    $0xc,%esi
    705d:	48 8d bd 78 ff ff ff 	lea    -0x88(%rbp),%rdi
    7064:	e8 00 00 00 00       	call   7069 <test_find_publisher_not_right_number+0xd9>
    7069:	4c 8b 85 58 ff ff ff 	mov    -0xa8(%rbp),%r8
    7070:	85 c0                	test   %eax,%eax
    7072:	74 46                	je     70ba <test_find_publisher_not_right_number+0x12a>
    7074:	45 31 c9             	xor    %r9d,%r9d
    7077:	4d 85 c0             	test   %r8,%r8
    707a:	75 3e                	jne    70ba <test_find_publisher_not_right_number+0x12a>
    707c:	48 b8 00 00 00 00 00 	movabs $0xdffffc0000000000,%rax
    7083:	fc ff df 
    7086:	48 01 d8             	add    %rbx,%rax
    7089:	48 c7 00 00 00 00 00 	movq   $0x0,(%rax)
    7090:	c7 40 08 00 00 00 00 	movl   $0x0,0x8(%rax)
    7097:	c7 40 14 00 00 00 00 	movl   $0x0,0x14(%rax)
    709e:	48 8b 45 f0          	mov    -0x10(%rbp),%rax
    70a2:	65 48 2b 04 25 28 00 	sub    %gs:0x28,%rax
    70a9:	00 00 
    70ab:	75 31                	jne    70de <test_find_publisher_not_right_number+0x14e>
    70ad:	48 8b 5d f8          	mov    -0x8(%rbp),%rbx
    70b1:	44 89 c8             	mov    %r9d,%eax
    70b4:	c9                   	leave
    70b5:	e9 00 00 00 00       	jmp    70ba <test_find_publisher_not_right_number+0x12a>
    70ba:	48 8b 8d 38 ff ff ff 	mov    -0xc8(%rbp),%rcx
    70c1:	48 8b 35 00 00 00 00 	mov    0x0(%rip),%rsi        # 70c8 <test_find_publisher_not_right_number+0x138>
    70c8:	89 c2                	mov    %eax,%edx
    70ca:	48 8d 3d 00 00 00 00 	lea    0x0(%rip),%rdi        # 70d1 <test_find_publisher_not_right_number+0x141>
    70d1:	e8 00 00 00 00       	call   70d6 <test_find_publisher_not_right_number+0x146>
    70d6:	41 b9 fe ff ff ff    	mov    $0xfffffffe,%r9d
    70dc:	eb 9e                	jmp    707c <test_find_publisher_not_right_number+0xec>
    70de:	e8 00 00 00 00       	call   70e3 <test_find_publisher_not_right_number+0x153>
    70e3:	66 66 2e 0f 1f 84 00 	data16 cs nopw 0x0(%rax,%rax,1)
    70ea:	00 00 00 00 
    70ee:	66 90                	xchg   %ax,%ax

00000000000070f0 <__pfx_test_find_publisher_double_number>:
    70f0:	90                   	nop
    70f1:	90                   	nop
    70f2:	90                   	nop
    70f3:	90                   	nop
    70f4:	90                   	nop
    70f5:	90                   	nop
    70f6:	90                   	nop
    70f7:	90                   	nop
    70f8:	90                   	nop
    70f9:	90                   	nop
    70fa:	90                   	nop
    70fb:	90                   	nop
    70fc:	90                   	nop
    70fd:	90                   	nop
    70fe:	90                   	nop
    70ff:	90                   	nop

0000000000007100 <test_find_publisher_double_number>:
    7100:	f3 0f 1e fa          	endbr64
    7104:	e8 00 00 00 00       	call   7109 <test_find_publisher_double_number+0x9>
    7109:	55                   	push   %rbp
    710a:	48 89 e5             	mov    %rsp,%rbp
    710d:	41 56                	push   %r14
    710f:	48 8d 85 e0 fe ff ff 	lea    -0x120(%rbp),%rax
    7116:	41 55                	push   %r13
    7118:	48 8d bd 60 ff ff ff 	lea    -0xa0(%rbp),%rdi
    711f:	41 54                	push   %r12
    7121:	48 c1 e8 03          	shr    $0x3,%rax
    7125:	4c 8d 6d e0          	lea    -0x20(%rbp),%r13
    7129:	53                   	push   %rbx
    712a:	48 89 c3             	mov    %rax,%rbx
    712d:	48 b8 00 00 00 00 00 	movabs $0xdffffc0000000000,%rax
    7134:	fc ff df 
    7137:	48 01 d8             	add    %rbx,%rax
    713a:	48 81 ec 00 01 00 00 	sub    $0x100,%rsp
    7141:	48 c7 85 e0 fe ff ff 	movq   $0x41b58ab3,-0x120(%rbp)
    7148:	b3 8a b5 41 
    714c:	48 c7 85 e8 fe ff ff 	movq   $0x0,-0x118(%rbp)
    7153:	00 00 00 00 
    7157:	48 c7 85 f0 fe ff ff 	movq   $0x0,-0x110(%rbp)
    715e:	00 00 00 00 
    7162:	c7 00 f1 f1 f1 f1    	movl   $0xf1f1f1f1,(%rax)
    7168:	c7 40 04 00 f2 f2 f2 	movl   $0xf2f2f200,0x4(%rax)
    716f:	c7 40 08 00 f2 f2 f2 	movl   $0xf2f2f200,0x8(%rax)
    7176:	c7 40 0c 00 f2 f2 f2 	movl   $0xf2f2f200,0xc(%rax)
    717d:	c7 40 18 f3 f3 f3 f3 	movl   $0xf3f3f3f3,0x18(%rax)
    7184:	65 48 8b 04 25 28 00 	mov    %gs:0x28,%rax
    718b:	00 00 
    718d:	48 89 45 d8          	mov    %rax,-0x28(%rbp)
    7191:	31 c0                	xor    %eax,%eax
    7193:	48 c7 85 00 ff ff ff 	movq   $0x0,-0x100(%rbp)
    719a:	00 00 00 00 
    719e:	48 c7 85 20 ff ff ff 	movq   $0x0,-0xe0(%rbp)
    71a5:	00 00 00 00 
    71a9:	48 c7 85 40 ff ff ff 	movq   $0x0,-0xc0(%rbp)
    71b0:	00 00 00 00 
    71b4:	e8 00 00 00 00       	call   71b9 <test_find_publisher_double_number+0xb9>
    71b9:	48 8d b5 00 ff ff ff 	lea    -0x100(%rbp),%rsi
    71c0:	bf 0b 00 00 00       	mov    $0xb,%edi
    71c5:	e8 00 00 00 00       	call   71ca <test_find_publisher_double_number+0xca>
    71ca:	48 8b b5 00 ff ff ff 	mov    -0x100(%rbp),%rsi
    71d1:	48 8d bd 60 ff ff ff 	lea    -0xa0(%rbp),%rdi
    71d8:	e8 00 00 00 00       	call   71dd <test_find_publisher_double_number+0xdd>
    71dd:	48 8d b5 00 ff ff ff 	lea    -0x100(%rbp),%rsi
    71e4:	bf 0c 00 00 00       	mov    $0xc,%edi
    71e9:	48 c7 85 00 ff ff ff 	movq   $0x0,-0x100(%rbp)
    71f0:	00 00 00 00 
    71f4:	e8 00 00 00 00       	call   71f9 <test_find_publisher_double_number+0xf9>
    71f9:	48 8b b5 00 ff ff ff 	mov    -0x100(%rbp),%rsi
    7200:	48 8d bd 60 ff ff ff 	lea    -0xa0(%rbp),%rdi
    7207:	e8 00 00 00 00       	call   720c <test_find_publisher_double_number+0x10c>
    720c:	48 8d 95 00 ff ff ff 	lea    -0x100(%rbp),%rdx
    7213:	be 0c 00 00 00       	mov    $0xc,%esi
    7218:	48 8d bd 60 ff ff ff 	lea    -0xa0(%rbp),%rdi
    721f:	48 c7 85 00 ff ff ff 	movq   $0x0,-0x100(%rbp)
    7226:	00 00 00 00 
    722a:	e8 00 00 00 00       	call   722f <test_find_publisher_double_number+0x12f>
    722f:	48 8d 95 20 ff ff ff 	lea    -0xe0(%rbp),%rdx
    7236:	be 0b 00 00 00       	mov    $0xb,%esi
    723b:	48 8d bd 60 ff ff ff 	lea    -0xa0(%rbp),%rdi
    7242:	41 89 c4             	mov    %eax,%r12d
    7245:	e8 00 00 00 00       	call   724a <test_find_publisher_double_number+0x14a>
    724a:	48 8d 95 40 ff ff ff 	lea    -0xc0(%rbp),%rdx
    7251:	be 0a 00 00 00       	mov    $0xa,%esi
    7256:	48 8d bd 60 ff ff ff 	lea    -0xa0(%rbp),%rdi
    725d:	41 89 c6             	mov    %eax,%r14d
    7260:	e8 00 00 00 00       	call   7265 <test_find_publisher_double_number+0x165>
    7265:	44 89 e1             	mov    %r12d,%ecx
    7268:	44 09 f1             	or     %r14d,%ecx
    726b:	75 77                	jne    72e4 <test_find_publisher_double_number+0x1e4>
    726d:	83 f8 fe             	cmp    $0xfffffffe,%eax
    7270:	75 72                	jne    72e4 <test_find_publisher_double_number+0x1e4>
    7272:	4c 8b 8d 00 ff ff ff 	mov    -0x100(%rbp),%r9
    7279:	48 8b 95 20 ff ff ff 	mov    -0xe0(%rbp),%rdx
    7280:	48 8b 8d 40 ff ff ff 	mov    -0xc0(%rbp),%rcx
    7287:	4d 85 c9             	test   %r9,%r9
    728a:	74 6d                	je     72f9 <test_find_publisher_double_number+0x1f9>
    728c:	48 85 d2             	test   %rdx,%rdx
    728f:	74 68                	je     72f9 <test_find_publisher_double_number+0x1f9>
    7291:	48 85 c9             	test   %rcx,%rcx
    7294:	75 63                	jne    72f9 <test_find_publisher_double_number+0x1f9>
    7296:	49 39 d1             	cmp    %rdx,%r9
    7299:	74 5e                	je     72f9 <test_find_publisher_double_number+0x1f9>
    729b:	45 31 c0             	xor    %r8d,%r8d
    729e:	48 b8 00 00 00 00 00 	movabs $0xdffffc0000000000,%rax
    72a5:	fc ff df 
    72a8:	48 01 d8             	add    %rbx,%rax
    72ab:	48 c7 00 00 00 00 00 	movq   $0x0,(%rax)
    72b2:	48 c7 40 08 00 00 00 	movq   $0x0,0x8(%rax)
    72b9:	00 
    72ba:	c7 40 18 00 00 00 00 	movl   $0x0,0x18(%rax)
    72c1:	48 8b 45 d8          	mov    -0x28(%rbp),%rax
    72c5:	65 48 2b 04 25 28 00 	sub    %gs:0x28,%rax
    72cc:	00 00 
    72ce:	75 54                	jne    7324 <test_find_publisher_double_number+0x224>
    72d0:	48 8d 65 e0          	lea    -0x20(%rbp),%rsp
    72d4:	44 89 c0             	mov    %r8d,%eax
    72d7:	5b                   	pop    %rbx
    72d8:	41 5c                	pop    %r12
    72da:	41 5d                	pop    %r13
    72dc:	41 5e                	pop    %r14
    72de:	5d                   	pop    %rbp
    72df:	e9 00 00 00 00       	jmp    72e4 <test_find_publisher_double_number+0x1e4>
    72e4:	4d 8b 8d 20 ff ff ff 	mov    -0xe0(%r13),%r9
    72eb:	49 8b 95 40 ff ff ff 	mov    -0xc0(%r13),%rdx
    72f2:	49 8b 8d 60 ff ff ff 	mov    -0xa0(%r13),%rcx
    72f9:	51                   	push   %rcx
    72fa:	48 8b 35 00 00 00 00 	mov    0x0(%rip),%rsi        # 7301 <test_find_publisher_double_number+0x201>
    7301:	41 89 c0             	mov    %eax,%r8d
    7304:	44 89 f1             	mov    %r14d,%ecx
    7307:	52                   	push   %rdx
    7308:	44 89 e2             	mov    %r12d,%edx
    730b:	48 8d 3d 00 00 00 00 	lea    0x0(%rip),%rdi        # 7312 <test_find_publisher_double_number+0x212>
    7312:	e8 00 00 00 00       	call   7317 <test_find_publisher_double_number+0x217>
    7317:	41 b8 fe ff ff ff    	mov    $0xfffffffe,%r8d
    731d:	58                   	pop    %rax
    731e:	5a                   	pop    %rdx
    731f:	e9 7a ff ff ff       	jmp    729e <test_find_publisher_double_number+0x19e>
    7324:	e8 00 00 00 00       	call   7329 <test_find_publisher_double_number+0x229>
    7329:	0f 1f 80 00 00 00 00 	nopl   0x0(%rax)

0000000000007330 <__pfx_test_find_publisher_affect>:
    7330:	90                   	nop
    7331:	90                   	nop
    7332:	90                   	nop
    7333:	90                   	nop
    7334:	90                   	nop
    7335:	90                   	nop
    7336:	90                   	nop
    7337:	90                   	nop
    7338:	90                   	nop
    7339:	90                   	nop
    733a:	90                   	nop
    733b:	90                   	nop
    733c:	90                   	nop
    733d:	90                   	nop
    733e:	90                   	nop
    733f:	90                   	nop

0000000000007340 <test_find_publisher_affect>:
    7340:	f3 0f 1e fa          	endbr64
    7344:	e8 00 00 00 00       	call   7349 <test_find_publisher_affect+0x9>
    7349:	55                   	push   %rbp
    734a:	48 89 e5             	mov    %rsp,%rbp
    734d:	41 56                	push   %r14
    734f:	48 8d 85 c0 fe ff ff 	lea    -0x140(%rbp),%rax
    7356:	41 55                	push   %r13
    7358:	48 8d bd 60 ff ff ff 	lea    -0xa0(%rbp),%rdi
    735f:	41 54                	push   %r12
    7361:	48 c1 e8 03          	shr    $0x3,%rax
    7365:	53                   	push   %rbx
    7366:	48 89 c3             	mov    %rax,%rbx
    7369:	48 b8 00 00 00 00 00 	movabs $0xdffffc0000000000,%rax
    7370:	fc ff df 
    7373:	48 01 d8             	add    %rbx,%rax
    7376:	48 81 ec 20 01 00 00 	sub    $0x120,%rsp
    737d:	48 c7 85 c0 fe ff ff 	movq   $0x41b58ab3,-0x140(%rbp)
    7384:	b3 8a b5 41 
    7388:	48 c7 85 c8 fe ff ff 	movq   $0x0,-0x138(%rbp)
    738f:	00 00 00 00 
    7393:	48 c7 85 d0 fe ff ff 	movq   $0x0,-0x130(%rbp)
    739a:	00 00 00 00 
    739e:	c7 00 f1 f1 f1 f1    	movl   $0xf1f1f1f1,(%rax)
    73a4:	c7 40 04 00 f2 f2 f2 	movl   $0xf2f2f200,0x4(%rax)
    73ab:	c7 40 08 00 f2 f2 f2 	movl   $0xf2f2f200,0x8(%rax)
    73b2:	c7 40 0c 00 f2 f2 f2 	movl   $0xf2f2f200,0xc(%rax)
    73b9:	c7 40 10 00 f2 f2 f2 	movl   $0xf2f2f200,0x10(%rax)
    73c0:	c7 40 1c f3 f3 f3 f3 	movl   $0xf3f3f3f3,0x1c(%rax)
    73c7:	65 48 8b 04 25 28 00 	mov    %gs:0x28,%rax
    73ce:	00 00 
    73d0:	48 89 45 d8          	mov    %rax,-0x28(%rbp)
    73d4:	31 c0                	xor    %eax,%eax
    73d6:	48 c7 85 e0 fe ff ff 	movq   $0x0,-0x120(%rbp)
    73dd:	00 00 00 00 
    73e1:	48 c7 85 00 ff ff ff 	movq   $0x0,-0x100(%rbp)
    73e8:	00 00 00 00 
    73ec:	48 c7 85 20 ff ff ff 	movq   $0x0,-0xe0(%rbp)
    73f3:	00 00 00 00 
    73f7:	48 c7 85 40 ff ff ff 	movq   $0x0,-0xc0(%rbp)
    73fe:	00 00 00 00 
    7402:	e8 00 00 00 00       	call   7407 <test_find_publisher_affect+0xc7>
    7407:	48 8d b5 e0 fe ff ff 	lea    -0x120(%rbp),%rsi
    740e:	bf 0b 00 00 00       	mov    $0xb,%edi
    7413:	e8 00 00 00 00       	call   7418 <test_find_publisher_affect+0xd8>
    7418:	48 8b b5 e0 fe ff ff 	mov    -0x120(%rbp),%rsi
    741f:	48 8d bd 60 ff ff ff 	lea    -0xa0(%rbp),%rdi
    7426:	e8 00 00 00 00       	call   742b <test_find_publisher_affect+0xeb>
    742b:	48 8d b5 e0 fe ff ff 	lea    -0x120(%rbp),%rsi
    7432:	bf 0c 00 00 00       	mov    $0xc,%edi
    7437:	48 c7 85 e0 fe ff ff 	movq   $0x0,-0x120(%rbp)
    743e:	00 00 00 00 
    7442:	e8 00 00 00 00       	call   7447 <test_find_publisher_affect+0x107>
    7447:	48 8b b5 e0 fe ff ff 	mov    -0x120(%rbp),%rsi
    744e:	48 8d bd 60 ff ff ff 	lea    -0xa0(%rbp),%rdi
    7455:	e8 00 00 00 00       	call   745a <test_find_publisher_affect+0x11a>
    745a:	48 8d 95 e0 fe ff ff 	lea    -0x120(%rbp),%rdx
    7461:	be 0c 00 00 00       	mov    $0xc,%esi
    7466:	48 8d bd 60 ff ff ff 	lea    -0xa0(%rbp),%rdi
    746d:	48 c7 85 e0 fe ff ff 	movq   $0x0,-0x120(%rbp)
    7474:	00 00 00 00 
    7478:	e8 00 00 00 00       	call   747d <test_find_publisher_affect+0x13d>
    747d:	48 8d 95 00 ff ff ff 	lea    -0x100(%rbp),%rdx
    7484:	be 0b 00 00 00       	mov    $0xb,%esi
    7489:	48 8d bd 60 ff ff ff 	lea    -0xa0(%rbp),%rdi
    7490:	41 89 c4             	mov    %eax,%r12d
    7493:	e8 00 00 00 00       	call   7498 <test_find_publisher_affect+0x158>
    7498:	48 8d 95 20 ff ff ff 	lea    -0xe0(%rbp),%rdx
    749f:	be 0c 00 00 00       	mov    $0xc,%esi
    74a4:	48 8d bd 60 ff ff ff 	lea    -0xa0(%rbp),%rdi
    74ab:	41 89 c5             	mov    %eax,%r13d
    74ae:	e8 00 00 00 00       	call   74b3 <test_find_publisher_affect+0x173>
    74b3:	48 8d 95 40 ff ff ff 	lea    -0xc0(%rbp),%rdx
    74ba:	be 0b 00 00 00       	mov    $0xb,%esi
    74bf:	48 8d bd 60 ff ff ff 	lea    -0xa0(%rbp),%rdi
    74c6:	41 89 c6             	mov    %eax,%r14d
    74c9:	e8 00 00 00 00       	call   74ce <test_find_publisher_affect+0x18e>
    74ce:	41 89 c1             	mov    %eax,%r9d
    74d1:	44 89 e0             	mov    %r12d,%eax
    74d4:	44 09 e8             	or     %r13d,%eax
    74d7:	44 09 f0             	or     %r14d,%eax
    74da:	44 09 c8             	or     %r9d,%eax
    74dd:	0f 85 9f 00 00 00    	jne    7582 <test_find_publisher_affect+0x242>
    74e3:	41 89 c2             	mov    %eax,%r10d
    74e6:	48 8b 85 e0 fe ff ff 	mov    -0x120(%rbp),%rax
    74ed:	48 8b 8d 00 ff ff ff 	mov    -0x100(%rbp),%rcx
    74f4:	48 8b 95 20 ff ff ff 	mov    -0xe0(%rbp),%rdx
    74fb:	48 8b b5 40 ff ff ff 	mov    -0xc0(%rbp),%rsi
    7502:	48 85 c0             	test   %rax,%rax
    7505:	0f 84 93 00 00 00    	je     759e <test_find_publisher_affect+0x25e>
    750b:	48 85 c9             	test   %rcx,%rcx
    750e:	0f 84 8a 00 00 00    	je     759e <test_find_publisher_affect+0x25e>
    7514:	48 85 d2             	test   %rdx,%rdx
    7517:	0f 84 81 00 00 00    	je     759e <test_find_publisher_affect+0x25e>
    751d:	48 85 f6             	test   %rsi,%rsi
    7520:	40 0f 94 c7          	sete   %dil
    7524:	48 39 d0             	cmp    %rdx,%rax
    7527:	41 0f 95 c0          	setne  %r8b
    752b:	44 08 c7             	or     %r8b,%dil
    752e:	75 6e                	jne    759e <test_find_publisher_affect+0x25e>
    7530:	48 39 f1             	cmp    %rsi,%rcx
    7533:	75 69                	jne    759e <test_find_publisher_affect+0x25e>
    7535:	48 b8 00 00 00 00 00 	movabs $0xdffffc0000000000,%rax
    753c:	fc ff df 
    753f:	48 01 d8             	add    %rbx,%rax
    7542:	48 c7 00 00 00 00 00 	movq   $0x0,(%rax)
    7549:	48 c7 40 08 00 00 00 	movq   $0x0,0x8(%rax)
    7550:	00 
    7551:	c7 40 10 00 00 00 00 	movl   $0x0,0x10(%rax)
    7558:	c7 40 1c 00 00 00 00 	movl   $0x0,0x1c(%rax)
    755f:	48 8b 45 d8          	mov    -0x28(%rbp),%rax
    7563:	65 48 2b 04 25 28 00 	sub    %gs:0x28,%rax
    756a:	00 00 
    756c:	75 5f                	jne    75cd <test_find_publisher_affect+0x28d>
    756e:	48 8d 65 e0          	lea    -0x20(%rbp),%rsp
    7572:	44 89 d0             	mov    %r10d,%eax
    7575:	5b                   	pop    %rbx
    7576:	41 5c                	pop    %r12
    7578:	41 5d                	pop    %r13
    757a:	41 5e                	pop    %r14
    757c:	5d                   	pop    %rbp
    757d:	e9 00 00 00 00       	jmp    7582 <test_find_publisher_affect+0x242>
    7582:	48 8b 85 e0 fe ff ff 	mov    -0x120(%rbp),%rax
    7589:	48 8b 8d 00 ff ff ff 	mov    -0x100(%rbp),%rcx
    7590:	48 8b 95 20 ff ff ff 	mov    -0xe0(%rbp),%rdx
    7597:	48 8b b5 40 ff ff ff 	mov    -0xc0(%rbp),%rsi
    759e:	56                   	push   %rsi
    759f:	48 8b 35 00 00 00 00 	mov    0x0(%rip),%rsi        # 75a6 <test_find_publisher_affect+0x266>
    75a6:	45 89 f0             	mov    %r14d,%r8d
    75a9:	52                   	push   %rdx
    75aa:	44 89 e2             	mov    %r12d,%edx
    75ad:	51                   	push   %rcx
    75ae:	44 89 e9             	mov    %r13d,%ecx
    75b1:	50                   	push   %rax
    75b2:	48 8d 3d 00 00 00 00 	lea    0x0(%rip),%rdi        # 75b9 <test_find_publisher_affect+0x279>
    75b9:	e8 00 00 00 00       	call   75be <test_find_publisher_affect+0x27e>
    75be:	41 ba fe ff ff ff    	mov    $0xfffffffe,%r10d
    75c4:	48 83 c4 20          	add    $0x20,%rsp
    75c8:	e9 68 ff ff ff       	jmp    7535 <test_find_publisher_affect+0x1f5>
    75cd:	e8 00 00 00 00       	call   75d2 <test_find_publisher_affect+0x292>
    75d2:	66 66 2e 0f 1f 84 00 	data16 cs nopw 0x0(%rax,%rax,1)
    75d9:	00 00 00 00 
    75dd:	0f 1f 00             	nopl   (%rax)

00000000000075e0 <__pfx_test_find_subscriber_empty>:
    75e0:	90                   	nop
    75e1:	90                   	nop
    75e2:	90                   	nop
    75e3:	90                   	nop
    75e4:	90                   	nop
    75e5:	90                   	nop
    75e6:	90                   	nop
    75e7:	90                   	nop
    75e8:	90                   	nop
    75e9:	90                   	nop
    75ea:	90                   	nop
    75eb:	90                   	nop
    75ec:	90                   	nop
    75ed:	90                   	nop
    75ee:	90                   	nop
    75ef:	90                   	nop

00000000000075f0 <test_find_subscriber_empty>:
    75f0:	f3 0f 1e fa          	endbr64
    75f4:	e8 00 00 00 00       	call   75f9 <test_find_subscriber_empty+0x9>
    75f9:	48 b8 00 00 00 00 00 	movabs $0xdffffc0000000000,%rax
    7600:	fc ff df 
    7603:	55                   	push   %rbp
    7604:	48 89 e5             	mov    %rsp,%rbp
    7607:	53                   	push   %rbx
    7608:	48 8d 9d 38 ff ff ff 	lea    -0xc8(%rbp),%rbx
    760f:	48 8d bd 78 ff ff ff 	lea    -0x88(%rbp),%rdi
    7616:	48 c1 eb 03          	shr    $0x3,%rbx
    761a:	48 01 d8             	add    %rbx,%rax
    761d:	48 81 ec c0 00 00 00 	sub    $0xc0,%rsp
    7624:	48 c7 85 38 ff ff ff 	movq   $0x41b58ab3,-0xc8(%rbp)
    762b:	b3 8a b5 41 
    762f:	48 c7 85 40 ff ff ff 	movq   $0x0,-0xc0(%rbp)
    7636:	00 00 00 00 
    763a:	48 c7 85 48 ff ff ff 	movq   $0x0,-0xb8(%rbp)
    7641:	00 00 00 00 
    7645:	c7 00 f1 f1 f1 f1    	movl   $0xf1f1f1f1,(%rax)
    764b:	c7 40 04 00 f2 f2 f2 	movl   $0xf2f2f200,0x4(%rax)
    7652:	c7 40 10 f3 f3 f3 f3 	movl   $0xf3f3f3f3,0x10(%rax)
    7659:	65 48 8b 04 25 28 00 	mov    %gs:0x28,%rax
    7660:	00 00 
    7662:	48 89 45 f0          	mov    %rax,-0x10(%rbp)
    7666:	31 c0                	xor    %eax,%eax
    7668:	48 c7 85 58 ff ff ff 	movq   $0x0,-0xa8(%rbp)
    766f:	00 00 00 00 
    7673:	e8 00 00 00 00       	call   7678 <test_find_subscriber_empty+0x88>
    7678:	48 8d 95 58 ff ff ff 	lea    -0xa8(%rbp),%rdx
    767f:	be 0b 00 00 00       	mov    $0xb,%esi
    7684:	48 8d bd 78 ff ff ff 	lea    -0x88(%rbp),%rdi
    768b:	e8 00 00 00 00       	call   7690 <test_find_subscriber_empty+0xa0>
    7690:	48 8b 8d 58 ff ff ff 	mov    -0xa8(%rbp),%rcx
    7697:	83 f8 fe             	cmp    $0xfffffffe,%eax
    769a:	75 3f                	jne    76db <test_find_subscriber_empty+0xeb>
    769c:	45 31 c0             	xor    %r8d,%r8d
    769f:	48 85 c9             	test   %rcx,%rcx
    76a2:	75 37                	jne    76db <test_find_subscriber_empty+0xeb>
    76a4:	48 b8 00 00 00 00 00 	movabs $0xdffffc0000000000,%rax
    76ab:	fc ff df 
    76ae:	48 01 c3             	add    %rax,%rbx
    76b1:	48 c7 03 00 00 00 00 	movq   $0x0,(%rbx)
    76b8:	c7 43 10 00 00 00 00 	movl   $0x0,0x10(%rbx)
    76bf:	48 8b 45 f0          	mov    -0x10(%rbp),%rax
    76c3:	65 48 2b 04 25 28 00 	sub    %gs:0x28,%rax
    76ca:	00 00 
    76cc:	75 2a                	jne    76f8 <test_find_subscriber_empty+0x108>
    76ce:	48 8b 5d f8          	mov    -0x8(%rbp),%rbx
    76d2:	44 89 c0             	mov    %r8d,%eax
    76d5:	c9                   	leave
    76d6:	e9 00 00 00 00       	jmp    76db <test_find_subscriber_empty+0xeb>
    76db:	48 8b 35 00 00 00 00 	mov    0x0(%rip),%rsi        # 76e2 <test_find_subscriber_empty+0xf2>
    76e2:	89 c2                	mov    %eax,%edx
    76e4:	48 8d 3d 00 00 00 00 	lea    0x0(%rip),%rdi        # 76eb <test_find_subscriber_empty+0xfb>
    76eb:	e8 00 00 00 00       	call   76f0 <test_find_subscriber_empty+0x100>
    76f0:	41 b8 fe ff ff ff    	mov    $0xfffffffe,%r8d
    76f6:	eb ac                	jmp    76a4 <test_find_subscriber_empty+0xb4>
    76f8:	e8 00 00 00 00       	call   76fd <test_find_subscriber_empty+0x10d>
    76fd:	0f 1f 00             	nopl   (%rax)

0000000000007700 <__pfx_test_find_subscriber>:
    7700:	90                   	nop
    7701:	90                   	nop
    7702:	90                   	nop
    7703:	90                   	nop
    7704:	90                   	nop
    7705:	90                   	nop
    7706:	90                   	nop
    7707:	90                   	nop
    7708:	90                   	nop
    7709:	90                   	nop
    770a:	90                   	nop
    770b:	90                   	nop
    770c:	90                   	nop
    770d:	90                   	nop
    770e:	90                   	nop
    770f:	90                   	nop

0000000000007710 <test_find_subscriber>:
    7710:	f3 0f 1e fa          	endbr64
    7714:	e8 00 00 00 00       	call   7719 <test_find_subscriber+0x9>
    7719:	48 b8 00 00 00 00 00 	movabs $0xdffffc0000000000,%rax
    7720:	fc ff df 
    7723:	55                   	push   %rbp
    7724:	48 89 e5             	mov    %rsp,%rbp
    7727:	53                   	push   %rbx
    7728:	48 8d 95 18 ff ff ff 	lea    -0xe8(%rbp),%rdx
    772f:	48 8d bd 78 ff ff ff 	lea    -0x88(%rbp),%rdi
    7736:	48 89 d3             	mov    %rdx,%rbx
    7739:	48 c1 eb 03          	shr    $0x3,%rbx
    773d:	48 81 ec e0 00 00 00 	sub    $0xe0,%rsp
    7744:	48 c7 85 18 ff ff ff 	movq   $0x41b58ab3,-0xe8(%rbp)
    774b:	b3 8a b5 41 
    774f:	48 c7 85 20 ff ff ff 	movq   $0x0,-0xe0(%rbp)
    7756:	00 00 00 00 
    775a:	48 01 d8             	add    %rbx,%rax
    775d:	48 c7 85 28 ff ff ff 	movq   $0x0,-0xd8(%rbp)
    7764:	00 00 00 00 
    7768:	c7 00 f1 f1 f1 f1    	movl   $0xf1f1f1f1,(%rax)
    776e:	c7 40 04 00 f2 f2 f2 	movl   $0xf2f2f200,0x4(%rax)
    7775:	c7 40 08 00 f2 f2 f2 	movl   $0xf2f2f200,0x8(%rax)
    777c:	c7 40 14 f3 f3 f3 f3 	movl   $0xf3f3f3f3,0x14(%rax)
    7783:	65 48 8b 04 25 28 00 	mov    %gs:0x28,%rax
    778a:	00 00 
    778c:	48 89 45 f0          	mov    %rax,-0x10(%rbp)
    7790:	31 c0                	xor    %eax,%eax
    7792:	48 c7 85 38 ff ff ff 	movq   $0x0,-0xc8(%rbp)
    7799:	00 00 00 00 
    779d:	48 c7 85 58 ff ff ff 	movq   $0x0,-0xa8(%rbp)
    77a4:	00 00 00 00 
    77a8:	e8 00 00 00 00       	call   77ad <test_find_subscriber+0x9d>
    77ad:	48 8d b5 38 ff ff ff 	lea    -0xc8(%rbp),%rsi
    77b4:	bf 0b 00 00 00       	mov    $0xb,%edi
    77b9:	e8 00 00 00 00       	call   77be <test_find_subscriber+0xae>
    77be:	48 8b b5 38 ff ff ff 	mov    -0xc8(%rbp),%rsi
    77c5:	48 8d bd 78 ff ff ff 	lea    -0x88(%rbp),%rdi
    77cc:	e8 00 00 00 00       	call   77d1 <test_find_subscriber+0xc1>
    77d1:	48 8d 95 58 ff ff ff 	lea    -0xa8(%rbp),%rdx
    77d8:	be 0b 00 00 00       	mov    $0xb,%esi
    77dd:	48 8d bd 78 ff ff ff 	lea    -0x88(%rbp),%rdi
    77e4:	e8 00 00 00 00       	call   77e9 <test_find_subscriber+0xd9>
    77e9:	4c 8b 85 58 ff ff ff 	mov    -0xa8(%rbp),%r8
    77f0:	48 8b 8d 38 ff ff ff 	mov    -0xc8(%rbp),%rcx
    77f7:	85 c0                	test   %eax,%eax
    77f9:	75 45                	jne    7840 <test_find_subscriber+0x130>
    77fb:	4d 85 c0             	test   %r8,%r8
    77fe:	74 40                	je     7840 <test_find_subscriber+0x130>
    7800:	49 39 c8             	cmp    %rcx,%r8
    7803:	75 3b                	jne    7840 <test_find_subscriber+0x130>
    7805:	48 ba 00 00 00 00 00 	movabs $0xdffffc0000000000,%rdx
    780c:	fc ff df 
    780f:	48 01 da             	add    %rbx,%rdx
    7812:	48 c7 02 00 00 00 00 	movq   $0x0,(%rdx)
    7819:	c7 42 08 00 00 00 00 	movl   $0x0,0x8(%rdx)
    7820:	c7 42 14 00 00 00 00 	movl   $0x0,0x14(%rdx)
    7827:	48 8b 55 f0          	mov    -0x10(%rbp),%rdx
    782b:	65 48 2b 14 25 28 00 	sub    %gs:0x28,%rdx
    7832:	00 00 
    7834:	75 26                	jne    785c <test_find_subscriber+0x14c>
    7836:	48 8b 5d f8          	mov    -0x8(%rbp),%rbx
    783a:	c9                   	leave
    783b:	e9 00 00 00 00       	jmp    7840 <test_find_subscriber+0x130>
    7840:	48 8b 35 00 00 00 00 	mov    0x0(%rip),%rsi        # 7847 <test_find_subscriber+0x137>
    7847:	89 c2                	mov    %eax,%edx
    7849:	48 8d 3d 00 00 00 00 	lea    0x0(%rip),%rdi        # 7850 <test_find_subscriber+0x140>
    7850:	e8 00 00 00 00       	call   7855 <test_find_subscriber+0x145>
    7855:	b8 fe ff ff ff       	mov    $0xfffffffe,%eax
    785a:	eb a9                	jmp    7805 <test_find_subscriber+0xf5>
    785c:	e8 00 00 00 00       	call   7861 <test_find_subscriber+0x151>
    7861:	66 66 2e 0f 1f 84 00 	data16 cs nopw 0x0(%rax,%rax,1)
    7868:	00 00 00 00 
    786c:	0f 1f 40 00          	nopl   0x0(%rax)

0000000000007870 <__pfx_test_find_subscriber_not_right_number>:
    7870:	90                   	nop
    7871:	90                   	nop
    7872:	90                   	nop
    7873:	90                   	nop
    7874:	90                   	nop
    7875:	90                   	nop
    7876:	90                   	nop
    7877:	90                   	nop
    7878:	90                   	nop
    7879:	90                   	nop
    787a:	90                   	nop
    787b:	90                   	nop
    787c:	90                   	nop
    787d:	90                   	nop
    787e:	90                   	nop
    787f:	90                   	nop

0000000000007880 <test_find_subscriber_not_right_number>:
    7880:	f3 0f 1e fa          	endbr64
    7884:	e8 00 00 00 00       	call   7889 <test_find_subscriber_not_right_number+0x9>
    7889:	55                   	push   %rbp
    788a:	48 89 e5             	mov    %rsp,%rbp
    788d:	53                   	push   %rbx
    788e:	48 8d 85 18 ff ff ff 	lea    -0xe8(%rbp),%rax
    7895:	48 8d bd 78 ff ff ff 	lea    -0x88(%rbp),%rdi
    789c:	48 c1 e8 03          	shr    $0x3,%rax
    78a0:	48 89 c3             	mov    %rax,%rbx
    78a3:	48 81 ec e0 00 00 00 	sub    $0xe0,%rsp
    78aa:	48 b8 00 00 00 00 00 	movabs $0xdffffc0000000000,%rax
    78b1:	fc ff df 
    78b4:	48 c7 85 18 ff ff ff 	movq   $0x41b58ab3,-0xe8(%rbp)
    78bb:	b3 8a b5 41 
    78bf:	48 c7 85 20 ff ff ff 	movq   $0x0,-0xe0(%rbp)
    78c6:	00 00 00 00 
    78ca:	48 01 d8             	add    %rbx,%rax
    78cd:	48 c7 85 28 ff ff ff 	movq   $0x0,-0xd8(%rbp)
    78d4:	00 00 00 00 
    78d8:	c7 00 f1 f1 f1 f1    	movl   $0xf1f1f1f1,(%rax)
    78de:	c7 40 04 00 f2 f2 f2 	movl   $0xf2f2f200,0x4(%rax)
    78e5:	c7 40 08 00 f2 f2 f2 	movl   $0xf2f2f200,0x8(%rax)
    78ec:	c7 40 14 f3 f3 f3 f3 	movl   $0xf3f3f3f3,0x14(%rax)
    78f3:	65 48 8b 04 25 28 00 	mov    %gs:0x28,%rax
    78fa:	00 00 
    78fc:	48 89 45 f0          	mov    %rax,-0x10(%rbp)
    7900:	31 c0                	xor    %eax,%eax
    7902:	48 c7 85 38 ff ff ff 	movq   $0x0,-0xc8(%rbp)
    7909:	00 00 00 00 
    790d:	48 c7 85 58 ff ff ff 	movq   $0x0,-0xa8(%rbp)
    7914:	00 00 00 00 
    7918:	e8 00 00 00 00       	call   791d <test_find_subscriber_not_right_number+0x9d>
    791d:	48 8d b5 38 ff ff ff 	lea    -0xc8(%rbp),%rsi
    7924:	bf 0b 00 00 00       	mov    $0xb,%edi
    7929:	e8 00 00 00 00       	call   792e <test_find_subscriber_not_right_number+0xae>
    792e:	48 8b b5 38 ff ff ff 	mov    -0xc8(%rbp),%rsi
    7935:	48 8d bd 78 ff ff ff 	lea    -0x88(%rbp),%rdi
    793c:	e8 00 00 00 00       	call   7941 <test_find_subscriber_not_right_number+0xc1>
    7941:	48 8d 95 58 ff ff ff 	lea    -0xa8(%rbp),%rdx
    7948:	be 0c 00 00 00       	mov    $0xc,%esi
    794d:	48 8d bd 78 ff ff ff 	lea    -0x88(%rbp),%rdi
    7954:	e8 00 00 00 00       	call   7959 <test_find_subscriber_not_right_number+0xd9>
    7959:	4c 8b 85 58 ff ff ff 	mov    -0xa8(%rbp),%r8
    7960:	48 8b 8d 38 ff ff ff 	mov    -0xc8(%rbp),%rcx
    7967:	85 c0                	test   %eax,%eax
    7969:	74 4b                	je     79b6 <test_find_subscriber_not_right_number+0x136>
    796b:	4d 85 c0             	test   %r8,%r8
    796e:	75 46                	jne    79b6 <test_find_subscriber_not_right_number+0x136>
    7970:	48 85 c9             	test   %rcx,%rcx
    7973:	74 41                	je     79b6 <test_find_subscriber_not_right_number+0x136>
    7975:	45 31 c0             	xor    %r8d,%r8d
    7978:	48 b8 00 00 00 00 00 	movabs $0xdffffc0000000000,%rax
    797f:	fc ff df 
    7982:	48 01 d8             	add    %rbx,%rax
    7985:	48 c7 00 00 00 00 00 	movq   $0x0,(%rax)
    798c:	c7 40 08 00 00 00 00 	movl   $0x0,0x8(%rax)
    7993:	c7 40 14 00 00 00 00 	movl   $0x0,0x14(%rax)
    799a:	48 8b 45 f0          	mov    -0x10(%rbp),%rax
    799e:	65 48 2b 04 25 28 00 	sub    %gs:0x28,%rax
    79a5:	00 00 
    79a7:	75 2a                	jne    79d3 <test_find_subscriber_not_right_number+0x153>
    79a9:	48 8b 5d f8          	mov    -0x8(%rbp),%rbx
    79ad:	44 89 c0             	mov    %r8d,%eax
    79b0:	c9                   	leave
    79b1:	e9 00 00 00 00       	jmp    79b6 <test_find_subscriber_not_right_number+0x136>
    79b6:	48 8b 35 00 00 00 00 	mov    0x0(%rip),%rsi        # 79bd <test_find_subscriber_not_right_number+0x13d>
    79bd:	89 c2                	mov    %eax,%edx
    79bf:	48 8d 3d 00 00 00 00 	lea    0x0(%rip),%rdi        # 79c6 <test_find_subscriber_not_right_number+0x146>
    79c6:	e8 00 00 00 00       	call   79cb <test_find_subscriber_not_right_number+0x14b>
    79cb:	41 b8 fe ff ff ff    	mov    $0xfffffffe,%r8d
    79d1:	eb a5                	jmp    7978 <test_find_subscriber_not_right_number+0xf8>
    79d3:	e8 00 00 00 00       	call   79d8 <test_find_subscriber_not_right_number+0x158>
    79d8:	0f 1f 84 00 00 00 00 	nopl   0x0(%rax,%rax,1)
    79df:	00 

00000000000079e0 <__pfx_test_find_subscriber_double_number>:
    79e0:	90                   	nop
    79e1:	90                   	nop
    79e2:	90                   	nop
    79e3:	90                   	nop
    79e4:	90                   	nop
    79e5:	90                   	nop
    79e6:	90                   	nop
    79e7:	90                   	nop
    79e8:	90                   	nop
    79e9:	90                   	nop
    79ea:	90                   	nop
    79eb:	90                   	nop
    79ec:	90                   	nop
    79ed:	90                   	nop
    79ee:	90                   	nop
    79ef:	90                   	nop

00000000000079f0 <test_find_subscriber_double_number>:
    79f0:	f3 0f 1e fa          	endbr64
    79f4:	e8 00 00 00 00       	call   79f9 <test_find_subscriber_double_number+0x9>
    79f9:	55                   	push   %rbp
    79fa:	48 89 e5             	mov    %rsp,%rbp
    79fd:	41 56                	push   %r14
    79ff:	48 8d 85 e0 fe ff ff 	lea    -0x120(%rbp),%rax
    7a06:	41 55                	push   %r13
    7a08:	48 8d bd 60 ff ff ff 	lea    -0xa0(%rbp),%rdi
    7a0f:	41 54                	push   %r12
    7a11:	48 c1 e8 03          	shr    $0x3,%rax
    7a15:	4c 8d 6d e0          	lea    -0x20(%rbp),%r13
    7a19:	53                   	push   %rbx
    7a1a:	48 89 c3             	mov    %rax,%rbx
    7a1d:	48 b8 00 00 00 00 00 	movabs $0xdffffc0000000000,%rax
    7a24:	fc ff df 
    7a27:	48 01 d8             	add    %rbx,%rax
    7a2a:	48 81 ec 00 01 00 00 	sub    $0x100,%rsp
    7a31:	48 c7 85 e0 fe ff ff 	movq   $0x41b58ab3,-0x120(%rbp)
    7a38:	b3 8a b5 41 
    7a3c:	48 c7 85 e8 fe ff ff 	movq   $0x0,-0x118(%rbp)
    7a43:	00 00 00 00 
    7a47:	48 c7 85 f0 fe ff ff 	movq   $0x0,-0x110(%rbp)
    7a4e:	00 00 00 00 
    7a52:	c7 00 f1 f1 f1 f1    	movl   $0xf1f1f1f1,(%rax)
    7a58:	c7 40 04 00 f2 f2 f2 	movl   $0xf2f2f200,0x4(%rax)
    7a5f:	c7 40 08 00 f2 f2 f2 	movl   $0xf2f2f200,0x8(%rax)
    7a66:	c7 40 0c 00 f2 f2 f2 	movl   $0xf2f2f200,0xc(%rax)
    7a6d:	c7 40 18 f3 f3 f3 f3 	movl   $0xf3f3f3f3,0x18(%rax)
    7a74:	65 48 8b 04 25 28 00 	mov    %gs:0x28,%rax
    7a7b:	00 00 
    7a7d:	48 89 45 d8          	mov    %rax,-0x28(%rbp)
    7a81:	31 c0                	xor    %eax,%eax
    7a83:	48 c7 85 00 ff ff ff 	movq   $0x0,-0x100(%rbp)
    7a8a:	00 00 00 00 
    7a8e:	48 c7 85 20 ff ff ff 	movq   $0x0,-0xe0(%rbp)
    7a95:	00 00 00 00 
    7a99:	48 c7 85 40 ff ff ff 	movq   $0x0,-0xc0(%rbp)
    7aa0:	00 00 00 00 
    7aa4:	e8 00 00 00 00       	call   7aa9 <test_find_subscriber_double_number+0xb9>
    7aa9:	48 8d b5 00 ff ff ff 	lea    -0x100(%rbp),%rsi
    7ab0:	bf 0b 00 00 00       	mov    $0xb,%edi
    7ab5:	e8 00 00 00 00       	call   7aba <test_find_subscriber_double_number+0xca>
    7aba:	48 8b b5 00 ff ff ff 	mov    -0x100(%rbp),%rsi
    7ac1:	48 8d bd 60 ff ff ff 	lea    -0xa0(%rbp),%rdi
    7ac8:	e8 00 00 00 00       	call   7acd <test_find_subscriber_double_number+0xdd>
    7acd:	48 8d b5 00 ff ff ff 	lea    -0x100(%rbp),%rsi
    7ad4:	bf 0c 00 00 00       	mov    $0xc,%edi
    7ad9:	48 c7 85 00 ff ff ff 	movq   $0x0,-0x100(%rbp)
    7ae0:	00 00 00 00 
    7ae4:	e8 00 00 00 00       	call   7ae9 <test_find_subscriber_double_number+0xf9>
    7ae9:	48 8b b5 00 ff ff ff 	mov    -0x100(%rbp),%rsi
    7af0:	48 8d bd 60 ff ff ff 	lea    -0xa0(%rbp),%rdi
    7af7:	e8 00 00 00 00       	call   7afc <test_find_subscriber_double_number+0x10c>
    7afc:	48 8d 95 00 ff ff ff 	lea    -0x100(%rbp),%rdx
    7b03:	be 0c 00 00 00       	mov    $0xc,%esi
    7b08:	48 8d bd 60 ff ff ff 	lea    -0xa0(%rbp),%rdi
    7b0f:	48 c7 85 00 ff ff ff 	movq   $0x0,-0x100(%rbp)
    7b16:	00 00 00 00 
    7b1a:	e8 00 00 00 00       	call   7b1f <test_find_subscriber_double_number+0x12f>
    7b1f:	48 8d 95 20 ff ff ff 	lea    -0xe0(%rbp),%rdx
    7b26:	be 0b 00 00 00       	mov    $0xb,%esi
    7b2b:	48 8d bd 60 ff ff ff 	lea    -0xa0(%rbp),%rdi
    7b32:	41 89 c4             	mov    %eax,%r12d
    7b35:	e8 00 00 00 00       	call   7b3a <test_find_subscriber_double_number+0x14a>
    7b3a:	48 8d 95 40 ff ff ff 	lea    -0xc0(%rbp),%rdx
    7b41:	be 0a 00 00 00       	mov    $0xa,%esi
    7b46:	48 8d bd 60 ff ff ff 	lea    -0xa0(%rbp),%rdi
    7b4d:	41 89 c6             	mov    %eax,%r14d
    7b50:	e8 00 00 00 00       	call   7b55 <test_find_subscriber_double_number+0x165>
    7b55:	44 89 e1             	mov    %r12d,%ecx
    7b58:	44 09 f1             	or     %r14d,%ecx
    7b5b:	75 77                	jne    7bd4 <test_find_subscriber_double_number+0x1e4>
    7b5d:	83 f8 fe             	cmp    $0xfffffffe,%eax
    7b60:	75 72                	jne    7bd4 <test_find_subscriber_double_number+0x1e4>
    7b62:	4c 8b 8d 00 ff ff ff 	mov    -0x100(%rbp),%r9
    7b69:	48 8b 95 20 ff ff ff 	mov    -0xe0(%rbp),%rdx
    7b70:	48 8b 8d 40 ff ff ff 	mov    -0xc0(%rbp),%rcx
    7b77:	4d 85 c9             	test   %r9,%r9
    7b7a:	74 6d                	je     7be9 <test_find_subscriber_double_number+0x1f9>
    7b7c:	48 85 d2             	test   %rdx,%rdx
    7b7f:	74 68                	je     7be9 <test_find_subscriber_double_number+0x1f9>
    7b81:	48 85 c9             	test   %rcx,%rcx
    7b84:	75 63                	jne    7be9 <test_find_subscriber_double_number+0x1f9>
    7b86:	49 39 d1             	cmp    %rdx,%r9
    7b89:	74 5e                	je     7be9 <test_find_subscriber_double_number+0x1f9>
    7b8b:	45 31 c0             	xor    %r8d,%r8d
    7b8e:	48 b8 00 00 00 00 00 	movabs $0xdffffc0000000000,%rax
    7b95:	fc ff df 
    7b98:	48 01 d8             	add    %rbx,%rax
    7b9b:	48 c7 00 00 00 00 00 	movq   $0x0,(%rax)
    7ba2:	48 c7 40 08 00 00 00 	movq   $0x0,0x8(%rax)
    7ba9:	00 
    7baa:	c7 40 18 00 00 00 00 	movl   $0x0,0x18(%rax)
    7bb1:	48 8b 45 d8          	mov    -0x28(%rbp),%rax
    7bb5:	65 48 2b 04 25 28 00 	sub    %gs:0x28,%rax
    7bbc:	00 00 
    7bbe:	75 54                	jne    7c14 <test_find_subscriber_double_number+0x224>
    7bc0:	48 8d 65 e0          	lea    -0x20(%rbp),%rsp
    7bc4:	44 89 c0             	mov    %r8d,%eax
    7bc7:	5b                   	pop    %rbx
    7bc8:	41 5c                	pop    %r12
    7bca:	41 5d                	pop    %r13
    7bcc:	41 5e                	pop    %r14
    7bce:	5d                   	pop    %rbp
    7bcf:	e9 00 00 00 00       	jmp    7bd4 <test_find_subscriber_double_number+0x1e4>
    7bd4:	4d 8b 8d 20 ff ff ff 	mov    -0xe0(%r13),%r9
    7bdb:	49 8b 95 40 ff ff ff 	mov    -0xc0(%r13),%rdx
    7be2:	49 8b 8d 60 ff ff ff 	mov    -0xa0(%r13),%rcx
    7be9:	51                   	push   %rcx
    7bea:	48 8b 35 00 00 00 00 	mov    0x0(%rip),%rsi        # 7bf1 <test_find_subscriber_double_number+0x201>
    7bf1:	41 89 c0             	mov    %eax,%r8d
    7bf4:	44 89 f1             	mov    %r14d,%ecx
    7bf7:	52                   	push   %rdx
    7bf8:	44 89 e2             	mov    %r12d,%edx
    7bfb:	48 8d 3d 00 00 00 00 	lea    0x0(%rip),%rdi        # 7c02 <test_find_subscriber_double_number+0x212>
    7c02:	e8 00 00 00 00       	call   7c07 <test_find_subscriber_double_number+0x217>
    7c07:	41 b8 fe ff ff ff    	mov    $0xfffffffe,%r8d
    7c0d:	58                   	pop    %rax
    7c0e:	5a                   	pop    %rdx
    7c0f:	e9 7a ff ff ff       	jmp    7b8e <test_find_subscriber_double_number+0x19e>
    7c14:	e8 00 00 00 00       	call   7c19 <test_find_subscriber_double_number+0x229>
    7c19:	0f 1f 80 00 00 00 00 	nopl   0x0(%rax)

0000000000007c20 <__pfx_test_find_subscriber_affect>:
    7c20:	90                   	nop
    7c21:	90                   	nop
    7c22:	90                   	nop
    7c23:	90                   	nop
    7c24:	90                   	nop
    7c25:	90                   	nop
    7c26:	90                   	nop
    7c27:	90                   	nop
    7c28:	90                   	nop
    7c29:	90                   	nop
    7c2a:	90                   	nop
    7c2b:	90                   	nop
    7c2c:	90                   	nop
    7c2d:	90                   	nop
    7c2e:	90                   	nop
    7c2f:	90                   	nop

0000000000007c30 <test_find_subscriber_affect>:
    7c30:	f3 0f 1e fa          	endbr64
    7c34:	e8 00 00 00 00       	call   7c39 <test_find_subscriber_affect+0x9>
    7c39:	55                   	push   %rbp
    7c3a:	48 89 e5             	mov    %rsp,%rbp
    7c3d:	41 56                	push   %r14
    7c3f:	48 8d 85 c0 fe ff ff 	lea    -0x140(%rbp),%rax
    7c46:	41 55                	push   %r13
    7c48:	48 8d bd 60 ff ff ff 	lea    -0xa0(%rbp),%rdi
    7c4f:	41 54                	push   %r12
    7c51:	48 c1 e8 03          	shr    $0x3,%rax
    7c55:	53                   	push   %rbx
    7c56:	48 89 c3             	mov    %rax,%rbx
    7c59:	48 b8 00 00 00 00 00 	movabs $0xdffffc0000000000,%rax
    7c60:	fc ff df 
    7c63:	48 01 d8             	add    %rbx,%rax
    7c66:	48 81 ec 20 01 00 00 	sub    $0x120,%rsp
    7c6d:	48 c7 85 c0 fe ff ff 	movq   $0x41b58ab3,-0x140(%rbp)
    7c74:	b3 8a b5 41 
    7c78:	48 c7 85 c8 fe ff ff 	movq   $0x0,-0x138(%rbp)
    7c7f:	00 00 00 00 
    7c83:	48 c7 85 d0 fe ff ff 	movq   $0x0,-0x130(%rbp)
    7c8a:	00 00 00 00 
    7c8e:	c7 00 f1 f1 f1 f1    	movl   $0xf1f1f1f1,(%rax)
    7c94:	c7 40 04 00 f2 f2 f2 	movl   $0xf2f2f200,0x4(%rax)
    7c9b:	c7 40 08 00 f2 f2 f2 	movl   $0xf2f2f200,0x8(%rax)
    7ca2:	c7 40 0c 00 f2 f2 f2 	movl   $0xf2f2f200,0xc(%rax)
    7ca9:	c7 40 10 00 f2 f2 f2 	movl   $0xf2f2f200,0x10(%rax)
    7cb0:	c7 40 1c f3 f3 f3 f3 	movl   $0xf3f3f3f3,0x1c(%rax)
    7cb7:	65 48 8b 04 25 28 00 	mov    %gs:0x28,%rax
    7cbe:	00 00 
    7cc0:	48 89 45 d8          	mov    %rax,-0x28(%rbp)
    7cc4:	31 c0                	xor    %eax,%eax
    7cc6:	48 c7 85 e0 fe ff ff 	movq   $0x0,-0x120(%rbp)
    7ccd:	00 00 00 00 
    7cd1:	48 c7 85 00 ff ff ff 	movq   $0x0,-0x100(%rbp)
    7cd8:	00 00 00 00 
    7cdc:	48 c7 85 20 ff ff ff 	movq   $0x0,-0xe0(%rbp)
    7ce3:	00 00 00 00 
    7ce7:	48 c7 85 40 ff ff ff 	movq   $0x0,-0xc0(%rbp)
    7cee:	00 00 00 00 
    7cf2:	e8 00 00 00 00       	call   7cf7 <test_find_subscriber_affect+0xc7>
    7cf7:	48 8d b5 e0 fe ff ff 	lea    -0x120(%rbp),%rsi
    7cfe:	bf 0b 00 00 00       	mov    $0xb,%edi
    7d03:	e8 00 00 00 00       	call   7d08 <test_find_subscriber_affect+0xd8>
    7d08:	48 8b b5 e0 fe ff ff 	mov    -0x120(%rbp),%rsi
    7d0f:	48 8d bd 60 ff ff ff 	lea    -0xa0(%rbp),%rdi
    7d16:	e8 00 00 00 00       	call   7d1b <test_find_subscriber_affect+0xeb>
    7d1b:	48 8d b5 e0 fe ff ff 	lea    -0x120(%rbp),%rsi
    7d22:	bf 0c 00 00 00       	mov    $0xc,%edi
    7d27:	48 c7 85 e0 fe ff ff 	movq   $0x0,-0x120(%rbp)
    7d2e:	00 00 00 00 
    7d32:	e8 00 00 00 00       	call   7d37 <test_find_subscriber_affect+0x107>
    7d37:	48 8b b5 e0 fe ff ff 	mov    -0x120(%rbp),%rsi
    7d3e:	48 8d bd 60 ff ff ff 	lea    -0xa0(%rbp),%rdi
    7d45:	e8 00 00 00 00       	call   7d4a <test_find_subscriber_affect+0x11a>
    7d4a:	48 8d 95 e0 fe ff ff 	lea    -0x120(%rbp),%rdx
    7d51:	be 0c 00 00 00       	mov    $0xc,%esi
    7d56:	48 8d bd 60 ff ff ff 	lea    -0xa0(%rbp),%rdi
    7d5d:	48 c7 85 e0 fe ff ff 	movq   $0x0,-0x120(%rbp)
    7d64:	00 00 00 00 
    7d68:	e8 00 00 00 00       	call   7d6d <test_find_subscriber_affect+0x13d>
    7d6d:	48 8d 95 00 ff ff ff 	lea    -0x100(%rbp),%rdx
    7d74:	be 0b 00 00 00       	mov    $0xb,%esi
    7d79:	48 8d bd 60 ff ff ff 	lea    -0xa0(%rbp),%rdi
    7d80:	41 89 c4             	mov    %eax,%r12d
    7d83:	e8 00 00 00 00       	call   7d88 <test_find_subscriber_affect+0x158>
    7d88:	48 8d 95 20 ff ff ff 	lea    -0xe0(%rbp),%rdx
    7d8f:	be 0c 00 00 00       	mov    $0xc,%esi
    7d94:	48 8d bd 60 ff ff ff 	lea    -0xa0(%rbp),%rdi
    7d9b:	41 89 c5             	mov    %eax,%r13d
    7d9e:	e8 00 00 00 00       	call   7da3 <test_find_subscriber_affect+0x173>
    7da3:	48 8d 95 40 ff ff ff 	lea    -0xc0(%rbp),%rdx
    7daa:	be 0b 00 00 00       	mov    $0xb,%esi
    7daf:	48 8d bd 60 ff ff ff 	lea    -0xa0(%rbp),%rdi
    7db6:	41 89 c6             	mov    %eax,%r14d
    7db9:	e8 00 00 00 00       	call   7dbe <test_find_subscriber_affect+0x18e>
    7dbe:	41 89 c1             	mov    %eax,%r9d
    7dc1:	44 89 e0             	mov    %r12d,%eax
    7dc4:	44 09 e8             	or     %r13d,%eax
    7dc7:	44 09 f0             	or     %r14d,%eax
    7dca:	44 09 c8             	or     %r9d,%eax
    7dcd:	0f 85 9f 00 00 00    	jne    7e72 <test_find_subscriber_affect+0x242>
    7dd3:	41 89 c2             	mov    %eax,%r10d
    7dd6:	48 8b 85 e0 fe ff ff 	mov    -0x120(%rbp),%rax
    7ddd:	48 8b 8d 00 ff ff ff 	mov    -0x100(%rbp),%rcx
    7de4:	48 8b 95 20 ff ff ff 	mov    -0xe0(%rbp),%rdx
    7deb:	48 8b b5 40 ff ff ff 	mov    -0xc0(%rbp),%rsi
    7df2:	48 85 c0             	test   %rax,%rax
    7df5:	0f 84 93 00 00 00    	je     7e8e <test_find_subscriber_affect+0x25e>
    7dfb:	48 85 c9             	test   %rcx,%rcx
    7dfe:	0f 84 8a 00 00 00    	je     7e8e <test_find_subscriber_affect+0x25e>
    7e04:	48 85 d2             	test   %rdx,%rdx
    7e07:	0f 84 81 00 00 00    	je     7e8e <test_find_subscriber_affect+0x25e>
    7e0d:	48 85 f6             	test   %rsi,%rsi
    7e10:	40 0f 94 c7          	sete   %dil
    7e14:	48 39 d0             	cmp    %rdx,%rax
    7e17:	41 0f 95 c0          	setne  %r8b
    7e1b:	44 08 c7             	or     %r8b,%dil
    7e1e:	75 6e                	jne    7e8e <test_find_subscriber_affect+0x25e>
    7e20:	48 39 f1             	cmp    %rsi,%rcx
    7e23:	75 69                	jne    7e8e <test_find_subscriber_affect+0x25e>
    7e25:	48 b8 00 00 00 00 00 	movabs $0xdffffc0000000000,%rax
    7e2c:	fc ff df 
    7e2f:	48 01 d8             	add    %rbx,%rax
    7e32:	48 c7 00 00 00 00 00 	movq   $0x0,(%rax)
    7e39:	48 c7 40 08 00 00 00 	movq   $0x0,0x8(%rax)
    7e40:	00 
    7e41:	c7 40 10 00 00 00 00 	movl   $0x0,0x10(%rax)
    7e48:	c7 40 1c 00 00 00 00 	movl   $0x0,0x1c(%rax)
    7e4f:	48 8b 45 d8          	mov    -0x28(%rbp),%rax
    7e53:	65 48 2b 04 25 28 00 	sub    %gs:0x28,%rax
    7e5a:	00 00 
    7e5c:	75 5f                	jne    7ebd <test_find_subscriber_affect+0x28d>
    7e5e:	48 8d 65 e0          	lea    -0x20(%rbp),%rsp
    7e62:	44 89 d0             	mov    %r10d,%eax
    7e65:	5b                   	pop    %rbx
    7e66:	41 5c                	pop    %r12
    7e68:	41 5d                	pop    %r13
    7e6a:	41 5e                	pop    %r14
    7e6c:	5d                   	pop    %rbp
    7e6d:	e9 00 00 00 00       	jmp    7e72 <test_find_subscriber_affect+0x242>
    7e72:	48 8b 85 e0 fe ff ff 	mov    -0x120(%rbp),%rax
    7e79:	48 8b 8d 00 ff ff ff 	mov    -0x100(%rbp),%rcx
    7e80:	48 8b 95 20 ff ff ff 	mov    -0xe0(%rbp),%rdx
    7e87:	48 8b b5 40 ff ff ff 	mov    -0xc0(%rbp),%rsi
    7e8e:	56                   	push   %rsi
    7e8f:	48 8b 35 00 00 00 00 	mov    0x0(%rip),%rsi        # 7e96 <test_find_subscriber_affect+0x266>
    7e96:	45 89 f0             	mov    %r14d,%r8d
    7e99:	52                   	push   %rdx
    7e9a:	44 89 e2             	mov    %r12d,%edx
    7e9d:	51                   	push   %rcx
    7e9e:	44 89 e9             	mov    %r13d,%ecx
    7ea1:	50                   	push   %rax
    7ea2:	48 8d 3d 00 00 00 00 	lea    0x0(%rip),%rdi        # 7ea9 <test_find_subscriber_affect+0x279>
    7ea9:	e8 00 00 00 00       	call   7eae <test_find_subscriber_affect+0x27e>
    7eae:	41 ba fe ff ff ff    	mov    $0xfffffffe,%r10d
    7eb4:	48 83 c4 20          	add    $0x20,%rsp
    7eb8:	e9 68 ff ff ff       	jmp    7e25 <test_find_subscriber_affect+0x1f5>
    7ebd:	e8 00 00 00 00       	call   7ec2 <test_find_subscriber_affect+0x292>
    7ec2:	66 66 2e 0f 1f 84 00 	data16 cs nopw 0x0(%rax,%rax,1)
    7ec9:	00 00 00 00 
    7ecd:	0f 1f 00             	nopl   (%rax)

0000000000007ed0 <__pfx_test_find_free_position_empty>:
    7ed0:	90                   	nop
    7ed1:	90                   	nop
    7ed2:	90                   	nop
    7ed3:	90                   	nop
    7ed4:	90                   	nop
    7ed5:	90                   	nop
    7ed6:	90                   	nop
    7ed7:	90                   	nop
    7ed8:	90                   	nop
    7ed9:	90                   	nop
    7eda:	90                   	nop
    7edb:	90                   	nop
    7edc:	90                   	nop
    7edd:	90                   	nop
    7ede:	90                   	nop
    7edf:	90                   	nop

0000000000007ee0 <test_find_free_position_empty>:
    7ee0:	f3 0f 1e fa          	endbr64
    7ee4:	e8 00 00 00 00       	call   7ee9 <test_find_free_position_empty+0x9>
    7ee9:	48 b8 00 00 00 00 00 	movabs $0xdffffc0000000000,%rax
    7ef0:	fc ff df 
    7ef3:	55                   	push   %rbp
    7ef4:	48 89 e5             	mov    %rsp,%rbp
    7ef7:	53                   	push   %rbx
    7ef8:	48 83 e4 f0          	and    $0xfffffffffffffff0,%rsp
    7efc:	48 81 ec e0 00 00 00 	sub    $0xe0,%rsp
    7f03:	48 89 e3             	mov    %rsp,%rbx
    7f06:	48 8d 7c 24 40       	lea    0x40(%rsp),%rdi
    7f0b:	48 c7 04 24 b3 8a b5 	movq   $0x41b58ab3,(%rsp)
    7f12:	41 
    7f13:	48 c7 44 24 08 00 00 	movq   $0x0,0x8(%rsp)
    7f1a:	00 00 
    7f1c:	48 c1 eb 03          	shr    $0x3,%rbx
    7f20:	48 c7 44 24 10 00 00 	movq   $0x0,0x10(%rsp)
    7f27:	00 00 
    7f29:	48 01 d8             	add    %rbx,%rax
    7f2c:	c7 00 f1 f1 f1 f1    	movl   $0xf1f1f1f1,(%rax)
    7f32:	c7 40 04 00 f2 f2 f2 	movl   $0xf2f2f200,0x4(%rax)
    7f39:	c7 40 14 f3 f3 f3 f3 	movl   $0xf3f3f3f3,0x14(%rax)
    7f40:	65 48 8b 04 25 28 00 	mov    %gs:0x28,%rax
    7f47:	00 00 
    7f49:	48 89 84 24 d8 00 00 	mov    %rax,0xd8(%rsp)
    7f50:	00 
    7f51:	31 c0                	xor    %eax,%eax
    7f53:	48 c7 44 24 20 00 00 	movq   $0x0,0x20(%rsp)
    7f5a:	00 00 
    7f5c:	e8 00 00 00 00       	call   7f61 <test_find_free_position_empty+0x81>
    7f61:	48 8d 74 24 20       	lea    0x20(%rsp),%rsi
    7f66:	48 8d 7c 24 40       	lea    0x40(%rsp),%rdi
    7f6b:	e8 00 00 00 00       	call   7f70 <test_find_free_position_empty+0x90>
    7f70:	48 8b 4c 24 20       	mov    0x20(%rsp),%rcx
    7f75:	85 c0                	test   %eax,%eax
    7f77:	74 43                	je     7fbc <test_find_free_position_empty+0xdc>
    7f79:	45 31 c0             	xor    %r8d,%r8d
    7f7c:	48 85 c9             	test   %rcx,%rcx
    7f7f:	75 3b                	jne    7fbc <test_find_free_position_empty+0xdc>
    7f81:	48 b8 00 00 00 00 00 	movabs $0xdffffc0000000000,%rax
    7f88:	fc ff df 
    7f8b:	48 01 c3             	add    %rax,%rbx
    7f8e:	48 c7 03 00 00 00 00 	movq   $0x0,(%rbx)
    7f95:	c7 43 14 00 00 00 00 	movl   $0x0,0x14(%rbx)
    7f9c:	48 8b 84 24 d8 00 00 	mov    0xd8(%rsp),%rax
    7fa3:	00 
    7fa4:	65 48 2b 04 25 28 00 	sub    %gs:0x28,%rax
    7fab:	00 00 
    7fad:	75 2a                	jne    7fd9 <test_find_free_position_empty+0xf9>
    7faf:	48 8b 5d f8          	mov    -0x8(%rbp),%rbx
    7fb3:	44 89 c0             	mov    %r8d,%eax
    7fb6:	c9                   	leave
    7fb7:	e9 00 00 00 00       	jmp    7fbc <test_find_free_position_empty+0xdc>
    7fbc:	48 8b 35 00 00 00 00 	mov    0x0(%rip),%rsi        # 7fc3 <test_find_free_position_empty+0xe3>
    7fc3:	89 c2                	mov    %eax,%edx
    7fc5:	48 8d 3d 00 00 00 00 	lea    0x0(%rip),%rdi        # 7fcc <test_find_free_position_empty+0xec>
    7fcc:	e8 00 00 00 00       	call   7fd1 <test_find_free_position_empty+0xf1>
    7fd1:	41 b8 fe ff ff ff    	mov    $0xfffffffe,%r8d
    7fd7:	eb a8                	jmp    7f81 <test_find_free_position_empty+0xa1>
    7fd9:	e8 00 00 00 00       	call   7fde <test_find_free_position_empty+0xfe>
    7fde:	66 90                	xchg   %ax,%ax

0000000000007fe0 <__pfx_test_find_free_position>:
    7fe0:	90                   	nop
    7fe1:	90                   	nop
    7fe2:	90                   	nop
    7fe3:	90                   	nop
    7fe4:	90                   	nop
    7fe5:	90                   	nop
    7fe6:	90                   	nop
    7fe7:	90                   	nop
    7fe8:	90                   	nop
    7fe9:	90                   	nop
    7fea:	90                   	nop
    7feb:	90                   	nop
    7fec:	90                   	nop
    7fed:	90                   	nop
    7fee:	90                   	nop
    7fef:	90                   	nop

0000000000007ff0 <test_find_free_position>:
    7ff0:	f3 0f 1e fa          	endbr64
    7ff4:	e8 00 00 00 00       	call   7ff9 <test_find_free_position+0x9>
    7ff9:	48 b8 00 00 00 00 00 	movabs $0xdffffc0000000000,%rax
    8000:	fc ff df 
    8003:	55                   	push   %rbp
    8004:	48 89 e5             	mov    %rsp,%rbp
    8007:	53                   	push   %rbx
    8008:	48 83 e4 f0          	and    $0xfffffffffffffff0,%rsp
    800c:	48 81 ec 00 01 00 00 	sub    $0x100,%rsp
    8013:	48 89 e2             	mov    %rsp,%rdx
    8016:	48 8d 7c 24 60       	lea    0x60(%rsp),%rdi
    801b:	48 c7 04 24 b3 8a b5 	movq   $0x41b58ab3,(%rsp)
    8022:	41 
    8023:	48 c7 44 24 08 00 00 	movq   $0x0,0x8(%rsp)
    802a:	00 00 
    802c:	48 89 d3             	mov    %rdx,%rbx
    802f:	48 c7 44 24 10 00 00 	movq   $0x0,0x10(%rsp)
    8036:	00 00 
    8038:	48 c1 eb 03          	shr    $0x3,%rbx
    803c:	48 01 d8             	add    %rbx,%rax
    803f:	c7 00 f1 f1 f1 f1    	movl   $0xf1f1f1f1,(%rax)
    8045:	c7 40 04 00 f2 f2 f2 	movl   $0xf2f2f200,0x4(%rax)
    804c:	c7 40 08 00 f2 f2 f2 	movl   $0xf2f2f200,0x8(%rax)
    8053:	c7 40 18 f3 f3 f3 f3 	movl   $0xf3f3f3f3,0x18(%rax)
    805a:	65 48 8b 04 25 28 00 	mov    %gs:0x28,%rax
    8061:	00 00 
    8063:	48 89 84 24 f8 00 00 	mov    %rax,0xf8(%rsp)
    806a:	00 
    806b:	31 c0                	xor    %eax,%eax
    806d:	48 c7 44 24 20 00 00 	movq   $0x0,0x20(%rsp)
    8074:	00 00 
    8076:	48 c7 44 24 40 00 00 	movq   $0x0,0x40(%rsp)
    807d:	00 00 
    807f:	e8 00 00 00 00       	call   8084 <test_find_free_position+0x94>
    8084:	48 8d 7c 24 20       	lea    0x20(%rsp),%rdi
    8089:	e8 00 00 00 00       	call   808e <test_find_free_position+0x9e>
    808e:	48 8b 74 24 20       	mov    0x20(%rsp),%rsi
    8093:	48 8d 7c 24 60       	lea    0x60(%rsp),%rdi
    8098:	e8 00 00 00 00       	call   809d <test_find_free_position+0xad>
    809d:	48 8d 74 24 40       	lea    0x40(%rsp),%rsi
    80a2:	48 8d 7c 24 60       	lea    0x60(%rsp),%rdi
    80a7:	e8 00 00 00 00       	call   80ac <test_find_free_position+0xbc>
    80ac:	4c 8b 44 24 40       	mov    0x40(%rsp),%r8
    80b1:	48 8b 4c 24 20       	mov    0x20(%rsp),%rcx
    80b6:	85 c0                	test   %eax,%eax
    80b8:	75 49                	jne    8103 <test_find_free_position+0x113>
    80ba:	4d 85 c0             	test   %r8,%r8
    80bd:	74 44                	je     8103 <test_find_free_position+0x113>
    80bf:	49 39 c8             	cmp    %rcx,%r8
    80c2:	75 3f                	jne    8103 <test_find_free_position+0x113>
    80c4:	48 ba 00 00 00 00 00 	movabs $0xdffffc0000000000,%rdx
    80cb:	fc ff df 
    80ce:	48 01 da             	add    %rbx,%rdx
    80d1:	48 c7 02 00 00 00 00 	movq   $0x0,(%rdx)
    80d8:	c7 42 08 00 00 00 00 	movl   $0x0,0x8(%rdx)
    80df:	c7 42 18 00 00 00 00 	movl   $0x0,0x18(%rdx)
    80e6:	48 8b 94 24 f8 00 00 	mov    0xf8(%rsp),%rdx
    80ed:	00 
    80ee:	65 48 2b 14 25 28 00 	sub    %gs:0x28,%rdx
    80f5:	00 00 
    80f7:	75 26                	jne    811f <test_find_free_position+0x12f>
    80f9:	48 8b 5d f8          	mov    -0x8(%rbp),%rbx
    80fd:	c9                   	leave
    80fe:	e9 00 00 00 00       	jmp    8103 <test_find_free_position+0x113>
    8103:	48 8b 35 00 00 00 00 	mov    0x0(%rip),%rsi        # 810a <test_find_free_position+0x11a>
    810a:	89 c2                	mov    %eax,%edx
    810c:	48 8d 3d 00 00 00 00 	lea    0x0(%rip),%rdi        # 8113 <test_find_free_position+0x123>
    8113:	e8 00 00 00 00       	call   8118 <test_find_free_position+0x128>
    8118:	b8 fe ff ff ff       	mov    $0xfffffffe,%eax
    811d:	eb a5                	jmp    80c4 <test_find_free_position+0xd4>
    811f:	e8 00 00 00 00       	call   8124 <test_find_free_position+0x134>
    8124:	66 66 2e 0f 1f 84 00 	data16 cs nopw 0x0(%rax,%rax,1)
    812b:	00 00 00 00 
    812f:	90                   	nop

0000000000008130 <__pfx_test_find_free_position_after_pop>:
    8130:	90                   	nop
    8131:	90                   	nop
    8132:	90                   	nop
    8133:	90                   	nop
    8134:	90                   	nop
    8135:	90                   	nop
    8136:	90                   	nop
    8137:	90                   	nop
    8138:	90                   	nop
    8139:	90                   	nop
    813a:	90                   	nop
    813b:	90                   	nop
    813c:	90                   	nop
    813d:	90                   	nop
    813e:	90                   	nop
    813f:	90                   	nop

0000000000008140 <test_find_free_position_after_pop>:
    8140:	f3 0f 1e fa          	endbr64
    8144:	e8 00 00 00 00       	call   8149 <test_find_free_position_after_pop+0x9>
    8149:	55                   	push   %rbp
    814a:	48 89 e5             	mov    %rsp,%rbp
    814d:	53                   	push   %rbx
    814e:	48 83 e4 f0          	and    $0xfffffffffffffff0,%rsp
    8152:	48 81 ec 00 01 00 00 	sub    $0x100,%rsp
    8159:	48 89 e0             	mov    %rsp,%rax
    815c:	48 8d 7c 24 60       	lea    0x60(%rsp),%rdi
    8161:	48 c7 04 24 b3 8a b5 	movq   $0x41b58ab3,(%rsp)
    8168:	41 
    8169:	48 c7 44 24 08 00 00 	movq   $0x0,0x8(%rsp)
    8170:	00 00 
    8172:	48 c1 e8 03          	shr    $0x3,%rax
    8176:	48 c7 44 24 10 00 00 	movq   $0x0,0x10(%rsp)
    817d:	00 00 
    817f:	48 89 c3             	mov    %rax,%rbx
    8182:	48 b8 00 00 00 00 00 	movabs $0xdffffc0000000000,%rax
    8189:	fc ff df 
    818c:	48 01 d8             	add    %rbx,%rax
    818f:	c7 00 f1 f1 f1 f1    	movl   $0xf1f1f1f1,(%rax)
    8195:	c7 40 04 00 f2 f2 f2 	movl   $0xf2f2f200,0x4(%rax)
    819c:	c7 40 08 00 f2 f2 f2 	movl   $0xf2f2f200,0x8(%rax)
    81a3:	c7 40 18 f3 f3 f3 f3 	movl   $0xf3f3f3f3,0x18(%rax)
    81aa:	65 48 8b 04 25 28 00 	mov    %gs:0x28,%rax
    81b1:	00 00 
    81b3:	48 89 84 24 f8 00 00 	mov    %rax,0xf8(%rsp)
    81ba:	00 
    81bb:	31 c0                	xor    %eax,%eax
    81bd:	48 c7 44 24 20 00 00 	movq   $0x0,0x20(%rsp)
    81c4:	00 00 
    81c6:	48 c7 44 24 40 00 00 	movq   $0x0,0x40(%rsp)
    81cd:	00 00 
    81cf:	e8 00 00 00 00       	call   81d4 <test_find_free_position_after_pop+0x94>
    81d4:	48 8d 7c 24 20       	lea    0x20(%rsp),%rdi
    81d9:	e8 00 00 00 00       	call   81de <test_find_free_position_after_pop+0x9e>
    81de:	48 8b 74 24 20       	mov    0x20(%rsp),%rsi
    81e3:	48 8d 7c 24 60       	lea    0x60(%rsp),%rdi
    81e8:	e8 00 00 00 00       	call   81ed <test_find_free_position_after_pop+0xad>
    81ed:	48 8b 74 24 20       	mov    0x20(%rsp),%rsi
    81f2:	48 8d 7c 24 60       	lea    0x60(%rsp),%rdi
    81f7:	e8 00 00 00 00       	call   81fc <test_find_free_position_after_pop+0xbc>
    81fc:	48 8d 74 24 40       	lea    0x40(%rsp),%rsi
    8201:	48 8d 7c 24 60       	lea    0x60(%rsp),%rdi
    8206:	e8 00 00 00 00       	call   820b <test_find_free_position_after_pop+0xcb>
    820b:	48 8b 4c 24 40       	mov    0x40(%rsp),%rcx
    8210:	85 c0                	test   %eax,%eax
    8212:	74 4a                	je     825e <test_find_free_position_after_pop+0x11e>
    8214:	45 31 c0             	xor    %r8d,%r8d
    8217:	48 85 c9             	test   %rcx,%rcx
    821a:	75 42                	jne    825e <test_find_free_position_after_pop+0x11e>
    821c:	48 b8 00 00 00 00 00 	movabs $0xdffffc0000000000,%rax
    8223:	fc ff df 
    8226:	48 01 d8             	add    %rbx,%rax
    8229:	48 c7 00 00 00 00 00 	movq   $0x0,(%rax)
    8230:	c7 40 08 00 00 00 00 	movl   $0x0,0x8(%rax)
    8237:	c7 40 18 00 00 00 00 	movl   $0x0,0x18(%rax)
    823e:	48 8b 84 24 f8 00 00 	mov    0xf8(%rsp),%rax
    8245:	00 
    8246:	65 48 2b 04 25 28 00 	sub    %gs:0x28,%rax
    824d:	00 00 
    824f:	75 2a                	jne    827b <test_find_free_position_after_pop+0x13b>
    8251:	48 8b 5d f8          	mov    -0x8(%rbp),%rbx
    8255:	44 89 c0             	mov    %r8d,%eax
    8258:	c9                   	leave
    8259:	e9 00 00 00 00       	jmp    825e <test_find_free_position_after_pop+0x11e>
    825e:	48 8b 35 00 00 00 00 	mov    0x0(%rip),%rsi        # 8265 <test_find_free_position_after_pop+0x125>
    8265:	89 c2                	mov    %eax,%edx
    8267:	48 8d 3d 00 00 00 00 	lea    0x0(%rip),%rdi        # 826e <test_find_free_position_after_pop+0x12e>
    826e:	e8 00 00 00 00       	call   8273 <test_find_free_position_after_pop+0x133>
    8273:	41 b8 fe ff ff ff    	mov    $0xfffffffe,%r8d
    8279:	eb a1                	jmp    821c <test_find_free_position_after_pop+0xdc>
    827b:	e8 00 00 00 00       	call   8280 <__pfx_test_find_free_position_empty_double>

0000000000008280 <__pfx_test_find_free_position_empty_double>:
    8280:	90                   	nop
    8281:	90                   	nop
    8282:	90                   	nop
    8283:	90                   	nop
    8284:	90                   	nop
    8285:	90                   	nop
    8286:	90                   	nop
    8287:	90                   	nop
    8288:	90                   	nop
    8289:	90                   	nop
    828a:	90                   	nop
    828b:	90                   	nop
    828c:	90                   	nop
    828d:	90                   	nop
    828e:	90                   	nop
    828f:	90                   	nop

0000000000008290 <test_find_free_position_empty_double>:
    8290:	f3 0f 1e fa          	endbr64
    8294:	e8 00 00 00 00       	call   8299 <test_find_free_position_empty_double+0x9>
    8299:	55                   	push   %rbp
    829a:	48 89 e5             	mov    %rsp,%rbp
    829d:	53                   	push   %rbx
    829e:	48 83 e4 f0          	and    $0xfffffffffffffff0,%rsp
    82a2:	48 81 ec 20 01 00 00 	sub    $0x120,%rsp
    82a9:	48 89 e0             	mov    %rsp,%rax
    82ac:	48 c7 04 24 b3 8a b5 	movq   $0x41b58ab3,(%rsp)
    82b3:	41 
    82b4:	48 8d bc 24 80 00 00 	lea    0x80(%rsp),%rdi
    82bb:	00 
    82bc:	48 c7 44 24 08 00 00 	movq   $0x0,0x8(%rsp)
    82c3:	00 00 
    82c5:	48 c1 e8 03          	shr    $0x3,%rax
    82c9:	48 c7 44 24 10 00 00 	movq   $0x0,0x10(%rsp)
    82d0:	00 00 
    82d2:	48 89 c3             	mov    %rax,%rbx
    82d5:	48 b8 00 00 00 00 00 	movabs $0xdffffc0000000000,%rax
    82dc:	fc ff df 
    82df:	48 01 d8             	add    %rbx,%rax
    82e2:	c7 00 f1 f1 f1 f1    	movl   $0xf1f1f1f1,(%rax)
    82e8:	c7 40 04 00 f2 f2 f2 	movl   $0xf2f2f200,0x4(%rax)
    82ef:	c7 40 08 00 f2 f2 f2 	movl   $0xf2f2f200,0x8(%rax)
    82f6:	c7 40 0c 00 f2 f2 f2 	movl   $0xf2f2f200,0xc(%rax)
    82fd:	c7 40 1c f3 f3 f3 f3 	movl   $0xf3f3f3f3,0x1c(%rax)
    8304:	65 48 8b 04 25 28 00 	mov    %gs:0x28,%rax
    830b:	00 00 
    830d:	48 89 84 24 18 01 00 	mov    %rax,0x118(%rsp)
    8314:	00 
    8315:	31 c0                	xor    %eax,%eax
    8317:	48 c7 44 24 20 00 00 	movq   $0x0,0x20(%rsp)
    831e:	00 00 
    8320:	48 c7 44 24 40 00 00 	movq   $0x0,0x40(%rsp)
    8327:	00 00 
    8329:	48 c7 44 24 60 00 00 	movq   $0x0,0x60(%rsp)
    8330:	00 00 
    8332:	e8 00 00 00 00       	call   8337 <test_find_free_position_empty_double+0xa7>
    8337:	48 8d 7c 24 20       	lea    0x20(%rsp),%rdi
    833c:	e8 00 00 00 00       	call   8341 <test_find_free_position_empty_double+0xb1>
    8341:	48 8d 7c 24 40       	lea    0x40(%rsp),%rdi
    8346:	e8 00 00 00 00       	call   834b <test_find_free_position_empty_double+0xbb>
    834b:	48 8b 74 24 20       	mov    0x20(%rsp),%rsi
    8350:	48 8d bc 24 80 00 00 	lea    0x80(%rsp),%rdi
    8357:	00 
    8358:	e8 00 00 00 00       	call   835d <test_find_free_position_empty_double+0xcd>
    835d:	48 8b 74 24 40       	mov    0x40(%rsp),%rsi
    8362:	48 8d bc 24 80 00 00 	lea    0x80(%rsp),%rdi
    8369:	00 
    836a:	e8 00 00 00 00       	call   836f <test_find_free_position_empty_double+0xdf>
    836f:	48 8b 74 24 20       	mov    0x20(%rsp),%rsi
    8374:	48 8d bc 24 80 00 00 	lea    0x80(%rsp),%rdi
    837b:	00 
    837c:	e8 00 00 00 00       	call   8381 <test_find_free_position_empty_double+0xf1>
    8381:	48 8b 74 24 40       	mov    0x40(%rsp),%rsi
    8386:	48 8d bc 24 80 00 00 	lea    0x80(%rsp),%rdi
    838d:	00 
    838e:	e8 00 00 00 00       	call   8393 <test_find_free_position_empty_double+0x103>
    8393:	48 8d 74 24 60       	lea    0x60(%rsp),%rsi
    8398:	48 8d bc 24 80 00 00 	lea    0x80(%rsp),%rdi
    839f:	00 
    83a0:	e8 00 00 00 00       	call   83a5 <test_find_free_position_empty_double+0x115>
    83a5:	4c 8b 4c 24 60       	mov    0x60(%rsp),%r9
    83aa:	85 c0                	test   %eax,%eax
    83ac:	74 4b                	je     83f9 <test_find_free_position_empty_double+0x169>
    83ae:	45 31 c0             	xor    %r8d,%r8d
    83b1:	4d 85 c9             	test   %r9,%r9
    83b4:	75 43                	jne    83f9 <test_find_free_position_empty_double+0x169>
    83b6:	48 b8 00 00 00 00 00 	movabs $0xdffffc0000000000,%rax
    83bd:	fc ff df 
    83c0:	48 01 d8             	add    %rbx,%rax
    83c3:	48 c7 00 00 00 00 00 	movq   $0x0,(%rax)
    83ca:	48 c7 40 08 00 00 00 	movq   $0x0,0x8(%rax)
    83d1:	00 
    83d2:	c7 40 1c 00 00 00 00 	movl   $0x0,0x1c(%rax)
    83d9:	48 8b 84 24 18 01 00 	mov    0x118(%rsp),%rax
    83e0:	00 
    83e1:	65 48 2b 04 25 28 00 	sub    %gs:0x28,%rax
    83e8:	00 00 
    83ea:	75 34                	jne    8420 <test_find_free_position_empty_double+0x190>
    83ec:	48 8b 5d f8          	mov    -0x8(%rbp),%rbx
    83f0:	44 89 c0             	mov    %r8d,%eax
    83f3:	c9                   	leave
    83f4:	e9 00 00 00 00       	jmp    83f9 <test_find_free_position_empty_double+0x169>
    83f9:	4c 8b 44 24 40       	mov    0x40(%rsp),%r8
    83fe:	48 8b 4c 24 20       	mov    0x20(%rsp),%rcx
    8403:	89 c2                	mov    %eax,%edx
    8405:	48 8b 35 00 00 00 00 	mov    0x0(%rip),%rsi        # 840c <test_find_free_position_empty_double+0x17c>
    840c:	48 8d 3d 00 00 00 00 	lea    0x0(%rip),%rdi        # 8413 <test_find_free_position_empty_double+0x183>
    8413:	e8 00 00 00 00       	call   8418 <test_find_free_position_empty_double+0x188>
    8418:	41 b8 fe ff ff ff    	mov    $0xfffffffe,%r8d
    841e:	eb 96                	jmp    83b6 <test_find_free_position_empty_double+0x126>
    8420:	e8 00 00 00 00       	call   8425 <test_find_free_position_empty_double+0x195>
    8425:	66 66 2e 0f 1f 84 00 	data16 cs nopw 0x0(%rax,%rax,1)
    842c:	00 00 00 00 

0000000000008430 <__pfx_test_find_msg_num_position_empty>:
    8430:	90                   	nop
    8431:	90                   	nop
    8432:	90                   	nop
    8433:	90                   	nop
    8434:	90                   	nop
    8435:	90                   	nop
    8436:	90                   	nop
    8437:	90                   	nop
    8438:	90                   	nop
    8439:	90                   	nop
    843a:	90                   	nop
    843b:	90                   	nop
    843c:	90                   	nop
    843d:	90                   	nop
    843e:	90                   	nop
    843f:	90                   	nop

0000000000008440 <test_find_msg_num_position_empty>:
    8440:	f3 0f 1e fa          	endbr64
    8444:	e8 00 00 00 00       	call   8449 <test_find_msg_num_position_empty+0x9>
    8449:	48 b8 00 00 00 00 00 	movabs $0xdffffc0000000000,%rax
    8450:	fc ff df 
    8453:	55                   	push   %rbp
    8454:	48 89 e5             	mov    %rsp,%rbp
    8457:	53                   	push   %rbx
    8458:	48 83 e4 f0          	and    $0xfffffffffffffff0,%rsp
    845c:	48 81 ec e0 00 00 00 	sub    $0xe0,%rsp
    8463:	48 89 e3             	mov    %rsp,%rbx
    8466:	48 8d 7c 24 40       	lea    0x40(%rsp),%rdi
    846b:	48 c7 04 24 b3 8a b5 	movq   $0x41b58ab3,(%rsp)
    8472:	41 
    8473:	48 c7 44 24 08 00 00 	movq   $0x0,0x8(%rsp)
    847a:	00 00 
    847c:	48 c1 eb 03          	shr    $0x3,%rbx
    8480:	48 c7 44 24 10 00 00 	movq   $0x0,0x10(%rsp)
    8487:	00 00 
    8489:	48 01 d8             	add    %rbx,%rax
    848c:	c7 00 f1 f1 f1 f1    	movl   $0xf1f1f1f1,(%rax)
    8492:	c7 40 04 00 f2 f2 f2 	movl   $0xf2f2f200,0x4(%rax)
    8499:	c7 40 14 f3 f3 f3 f3 	movl   $0xf3f3f3f3,0x14(%rax)
    84a0:	65 48 8b 04 25 28 00 	mov    %gs:0x28,%rax
    84a7:	00 00 
    84a9:	48 89 84 24 d8 00 00 	mov    %rax,0xd8(%rsp)
    84b0:	00 
    84b1:	31 c0                	xor    %eax,%eax
    84b3:	48 c7 44 24 20 00 00 	movq   $0x0,0x20(%rsp)
    84ba:	00 00 
    84bc:	e8 00 00 00 00       	call   84c1 <test_find_msg_num_position_empty+0x81>
    84c1:	be 0a 00 00 00       	mov    $0xa,%esi
    84c6:	48 8d 54 24 20       	lea    0x20(%rsp),%rdx
    84cb:	48 8d 7c 24 40       	lea    0x40(%rsp),%rdi
    84d0:	e8 00 00 00 00       	call   84d5 <test_find_msg_num_position_empty+0x95>
    84d5:	48 8b 4c 24 20       	mov    0x20(%rsp),%rcx
    84da:	85 c0                	test   %eax,%eax
    84dc:	74 43                	je     8521 <test_find_msg_num_position_empty+0xe1>
    84de:	45 31 c0             	xor    %r8d,%r8d
    84e1:	48 85 c9             	test   %rcx,%rcx
    84e4:	75 3b                	jne    8521 <test_find_msg_num_position_empty+0xe1>
    84e6:	48 b8 00 00 00 00 00 	movabs $0xdffffc0000000000,%rax
    84ed:	fc ff df 
    84f0:	48 01 c3             	add    %rax,%rbx
    84f3:	48 c7 03 00 00 00 00 	movq   $0x0,(%rbx)
    84fa:	c7 43 14 00 00 00 00 	movl   $0x0,0x14(%rbx)
    8501:	48 8b 84 24 d8 00 00 	mov    0xd8(%rsp),%rax
    8508:	00 
    8509:	65 48 2b 04 25 28 00 	sub    %gs:0x28,%rax
    8510:	00 00 
    8512:	75 2a                	jne    853e <test_find_msg_num_position_empty+0xfe>
    8514:	48 8b 5d f8          	mov    -0x8(%rbp),%rbx
    8518:	44 89 c0             	mov    %r8d,%eax
    851b:	c9                   	leave
    851c:	e9 00 00 00 00       	jmp    8521 <test_find_msg_num_position_empty+0xe1>
    8521:	48 8b 35 00 00 00 00 	mov    0x0(%rip),%rsi        # 8528 <test_find_msg_num_position_empty+0xe8>
    8528:	89 c2                	mov    %eax,%edx
    852a:	48 8d 3d 00 00 00 00 	lea    0x0(%rip),%rdi        # 8531 <test_find_msg_num_position_empty+0xf1>
    8531:	e8 00 00 00 00       	call   8536 <test_find_msg_num_position_empty+0xf6>
    8536:	41 b8 fe ff ff ff    	mov    $0xfffffffe,%r8d
    853c:	eb a8                	jmp    84e6 <test_find_msg_num_position_empty+0xa6>
    853e:	e8 00 00 00 00       	call   8543 <test_find_msg_num_position_empty+0x103>
    8543:	66 66 2e 0f 1f 84 00 	data16 cs nopw 0x0(%rax,%rax,1)
    854a:	00 00 00 00 
    854e:	66 90                	xchg   %ax,%ax

0000000000008550 <__pfx_test_find_msg_num_position>:
    8550:	90                   	nop
    8551:	90                   	nop
    8552:	90                   	nop
    8553:	90                   	nop
    8554:	90                   	nop
    8555:	90                   	nop
    8556:	90                   	nop
    8557:	90                   	nop
    8558:	90                   	nop
    8559:	90                   	nop
    855a:	90                   	nop
    855b:	90                   	nop
    855c:	90                   	nop
    855d:	90                   	nop
    855e:	90                   	nop
    855f:	90                   	nop

0000000000008560 <test_find_msg_num_position>:
    8560:	f3 0f 1e fa          	endbr64
    8564:	e8 00 00 00 00       	call   8569 <test_find_msg_num_position+0x9>
    8569:	48 b8 00 00 00 00 00 	movabs $0xdffffc0000000000,%rax
    8570:	fc ff df 
    8573:	55                   	push   %rbp
    8574:	48 89 e5             	mov    %rsp,%rbp
    8577:	53                   	push   %rbx
    8578:	48 83 e4 f0          	and    $0xfffffffffffffff0,%rsp
    857c:	48 81 ec 00 01 00 00 	sub    $0x100,%rsp
    8583:	48 89 e2             	mov    %rsp,%rdx
    8586:	48 8d 7c 24 60       	lea    0x60(%rsp),%rdi
    858b:	48 c7 04 24 b3 8a b5 	movq   $0x41b58ab3,(%rsp)
    8592:	41 
    8593:	48 c7 44 24 08 00 00 	movq   $0x0,0x8(%rsp)
    859a:	00 00 
    859c:	48 89 d3             	mov    %rdx,%rbx
    859f:	48 c7 44 24 10 00 00 	movq   $0x0,0x10(%rsp)
    85a6:	00 00 
    85a8:	48 c1 eb 03          	shr    $0x3,%rbx
    85ac:	48 01 d8             	add    %rbx,%rax
    85af:	c7 00 f1 f1 f1 f1    	movl   $0xf1f1f1f1,(%rax)
    85b5:	c7 40 04 00 f2 f2 f2 	movl   $0xf2f2f200,0x4(%rax)
    85bc:	c7 40 08 00 f2 f2 f2 	movl   $0xf2f2f200,0x8(%rax)
    85c3:	c7 40 18 f3 f3 f3 f3 	movl   $0xf3f3f3f3,0x18(%rax)
    85ca:	65 48 8b 04 25 28 00 	mov    %gs:0x28,%rax
    85d1:	00 00 
    85d3:	48 89 84 24 f8 00 00 	mov    %rax,0xf8(%rsp)
    85da:	00 
    85db:	31 c0                	xor    %eax,%eax
    85dd:	48 c7 44 24 20 00 00 	movq   $0x0,0x20(%rsp)
    85e4:	00 00 
    85e6:	48 c7 44 24 40 00 00 	movq   $0x0,0x40(%rsp)
    85ed:	00 00 
    85ef:	e8 00 00 00 00       	call   85f4 <test_find_msg_num_position+0x94>
    85f4:	48 8d 7c 24 20       	lea    0x20(%rsp),%rdi
    85f9:	e8 00 00 00 00       	call   85fe <test_find_msg_num_position+0x9e>
    85fe:	48 8b 7c 24 20       	mov    0x20(%rsp),%rdi
    8603:	be 0a 00 00 00       	mov    $0xa,%esi
    8608:	e8 00 00 00 00       	call   860d <test_find_msg_num_position+0xad>
    860d:	48 8b 74 24 20       	mov    0x20(%rsp),%rsi
    8612:	48 8d 7c 24 60       	lea    0x60(%rsp),%rdi
    8617:	e8 00 00 00 00       	call   861c <test_find_msg_num_position+0xbc>
    861c:	be 0a 00 00 00       	mov    $0xa,%esi
    8621:	48 8d 54 24 40       	lea    0x40(%rsp),%rdx
    8626:	48 8d 7c 24 60       	lea    0x60(%rsp),%rdi
    862b:	e8 00 00 00 00       	call   8630 <test_find_msg_num_position+0xd0>
    8630:	48 8b 4c 24 40       	mov    0x40(%rsp),%rcx
    8635:	4c 8b 44 24 20       	mov    0x20(%rsp),%r8
    863a:	85 c0                	test   %eax,%eax
    863c:	75 49                	jne    8687 <test_find_msg_num_position+0x127>
    863e:	48 85 c9             	test   %rcx,%rcx
    8641:	74 44                	je     8687 <test_find_msg_num_position+0x127>
    8643:	4c 39 c1             	cmp    %r8,%rcx
    8646:	75 3f                	jne    8687 <test_find_msg_num_position+0x127>
    8648:	48 ba 00 00 00 00 00 	movabs $0xdffffc0000000000,%rdx
    864f:	fc ff df 
    8652:	48 01 da             	add    %rbx,%rdx
    8655:	48 c7 02 00 00 00 00 	movq   $0x0,(%rdx)
    865c:	c7 42 08 00 00 00 00 	movl   $0x0,0x8(%rdx)
    8663:	c7 42 18 00 00 00 00 	movl   $0x0,0x18(%rdx)
    866a:	48 8b 94 24 f8 00 00 	mov    0xf8(%rsp),%rdx
    8671:	00 
    8672:	65 48 2b 14 25 28 00 	sub    %gs:0x28,%rdx
    8679:	00 00 
    867b:	75 26                	jne    86a3 <test_find_msg_num_position+0x143>
    867d:	48 8b 5d f8          	mov    -0x8(%rbp),%rbx
    8681:	c9                   	leave
    8682:	e9 00 00 00 00       	jmp    8687 <test_find_msg_num_position+0x127>
    8687:	48 8b 35 00 00 00 00 	mov    0x0(%rip),%rsi        # 868e <test_find_msg_num_position+0x12e>
    868e:	89 c2                	mov    %eax,%edx
    8690:	48 8d 3d 00 00 00 00 	lea    0x0(%rip),%rdi        # 8697 <test_find_msg_num_position+0x137>
    8697:	e8 00 00 00 00       	call   869c <test_find_msg_num_position+0x13c>
    869c:	b8 fe ff ff ff       	mov    $0xfffffffe,%eax
    86a1:	eb a5                	jmp    8648 <test_find_msg_num_position+0xe8>
    86a3:	e8 00 00 00 00       	call   86a8 <test_find_msg_num_position+0x148>
    86a8:	0f 1f 84 00 00 00 00 	nopl   0x0(%rax,%rax,1)
    86af:	00 

00000000000086b0 <__pfx_test_find_msg_num_position2>:
    86b0:	90                   	nop
    86b1:	90                   	nop
    86b2:	90                   	nop
    86b3:	90                   	nop
    86b4:	90                   	nop
    86b5:	90                   	nop
    86b6:	90                   	nop
    86b7:	90                   	nop
    86b8:	90                   	nop
    86b9:	90                   	nop
    86ba:	90                   	nop
    86bb:	90                   	nop
    86bc:	90                   	nop
    86bd:	90                   	nop
    86be:	90                   	nop
    86bf:	90                   	nop

00000000000086c0 <test_find_msg_num_position2>:
    86c0:	f3 0f 1e fa          	endbr64
    86c4:	e8 00 00 00 00       	call   86c9 <test_find_msg_num_position2+0x9>
    86c9:	4c 8d 54 24 08       	lea    0x8(%rsp),%r10
    86ce:	48 83 e4 f0          	and    $0xfffffffffffffff0,%rsp
    86d2:	41 ff 72 f8          	push   -0x8(%r10)
    86d6:	55                   	push   %rbp
    86d7:	48 89 e5             	mov    %rsp,%rbp
    86da:	41 55                	push   %r13
    86dc:	48 8d 85 80 fe ff ff 	lea    -0x180(%rbp),%rax
    86e3:	41 54                	push   %r12
    86e5:	48 8d bd 40 ff ff ff 	lea    -0xc0(%rbp),%rdi
    86ec:	41 52                	push   %r10
    86ee:	48 c1 e8 03          	shr    $0x3,%rax
    86f2:	53                   	push   %rbx
    86f3:	48 89 c3             	mov    %rax,%rbx
    86f6:	48 b8 00 00 00 00 00 	movabs $0xdffffc0000000000,%rax
    86fd:	fc ff df 
    8700:	48 01 d8             	add    %rbx,%rax
    8703:	48 81 ec 60 01 00 00 	sub    $0x160,%rsp
    870a:	48 c7 85 80 fe ff ff 	movq   $0x41b58ab3,-0x180(%rbp)
    8711:	b3 8a b5 41 
    8715:	48 c7 85 88 fe ff ff 	movq   $0x0,-0x178(%rbp)
    871c:	00 00 00 00 
    8720:	48 c7 85 90 fe ff ff 	movq   $0x0,-0x170(%rbp)
    8727:	00 00 00 00 
    872b:	c7 00 f1 f1 f1 f1    	movl   $0xf1f1f1f1,(%rax)
    8731:	c7 40 04 00 f2 f2 f2 	movl   $0xf2f2f200,0x4(%rax)
    8738:	c7 40 08 00 f2 f2 f2 	movl   $0xf2f2f200,0x8(%rax)
    873f:	c7 40 0c 00 f2 f2 f2 	movl   $0xf2f2f200,0xc(%rax)
    8746:	c7 40 10 00 f2 f2 f2 	movl   $0xf2f2f200,0x10(%rax)
    874d:	c7 40 14 00 f2 f2 f2 	movl   $0xf2f2f200,0x14(%rax)
    8754:	c7 40 24 f3 f3 f3 f3 	movl   $0xf3f3f3f3,0x24(%rax)
    875b:	65 48 8b 04 25 28 00 	mov    %gs:0x28,%rax
    8762:	00 00 
    8764:	48 89 45 d8          	mov    %rax,-0x28(%rbp)
    8768:	31 c0                	xor    %eax,%eax
    876a:	48 c7 85 a0 fe ff ff 	movq   $0x0,-0x160(%rbp)
    8771:	00 00 00 00 
    8775:	48 c7 85 c0 fe ff ff 	movq   $0x0,-0x140(%rbp)
    877c:	00 00 00 00 
    8780:	48 c7 85 e0 fe ff ff 	movq   $0x0,-0x120(%rbp)
    8787:	00 00 00 00 
    878b:	48 c7 85 00 ff ff ff 	movq   $0x0,-0x100(%rbp)
    8792:	00 00 00 00 
    8796:	48 c7 85 20 ff ff ff 	movq   $0x0,-0xe0(%rbp)
    879d:	00 00 00 00 
    87a1:	e8 00 00 00 00       	call   87a6 <test_find_msg_num_position2+0xe6>
    87a6:	48 8d bd a0 fe ff ff 	lea    -0x160(%rbp),%rdi
    87ad:	e8 00 00 00 00       	call   87b2 <test_find_msg_num_position2+0xf2>
    87b2:	48 8d bd c0 fe ff ff 	lea    -0x140(%rbp),%rdi
    87b9:	e8 00 00 00 00       	call   87be <test_find_msg_num_position2+0xfe>
    87be:	48 8b bd a0 fe ff ff 	mov    -0x160(%rbp),%rdi
    87c5:	be 0a 00 00 00       	mov    $0xa,%esi
    87ca:	e8 00 00 00 00       	call   87cf <test_find_msg_num_position2+0x10f>
    87cf:	48 8b bd c0 fe ff ff 	mov    -0x140(%rbp),%rdi
    87d6:	be 0b 00 00 00       	mov    $0xb,%esi
    87db:	e8 00 00 00 00       	call   87e0 <test_find_msg_num_position2+0x120>
    87e0:	48 8b b5 a0 fe ff ff 	mov    -0x160(%rbp),%rsi
    87e7:	48 8d bd 40 ff ff ff 	lea    -0xc0(%rbp),%rdi
    87ee:	e8 00 00 00 00       	call   87f3 <test_find_msg_num_position2+0x133>
    87f3:	48 8b b5 c0 fe ff ff 	mov    -0x140(%rbp),%rsi
    87fa:	48 8d bd 40 ff ff ff 	lea    -0xc0(%rbp),%rdi
    8801:	e8 00 00 00 00       	call   8806 <test_find_msg_num_position2+0x146>
    8806:	48 8d 95 e0 fe ff ff 	lea    -0x120(%rbp),%rdx
    880d:	be 0a 00 00 00       	mov    $0xa,%esi
    8812:	48 8d bd 40 ff ff ff 	lea    -0xc0(%rbp),%rdi
    8819:	e8 00 00 00 00       	call   881e <test_find_msg_num_position2+0x15e>
    881e:	48 8d 95 00 ff ff ff 	lea    -0x100(%rbp),%rdx
    8825:	be 0b 00 00 00       	mov    $0xb,%esi
    882a:	48 8d bd 40 ff ff ff 	lea    -0xc0(%rbp),%rdi
    8831:	41 89 c4             	mov    %eax,%r12d
    8834:	e8 00 00 00 00       	call   8839 <test_find_msg_num_position2+0x179>
    8839:	48 8d 95 20 ff ff ff 	lea    -0xe0(%rbp),%rdx
    8840:	be 0c 00 00 00       	mov    $0xc,%esi
    8845:	48 8d bd 40 ff ff ff 	lea    -0xc0(%rbp),%rdi
    884c:	41 89 c5             	mov    %eax,%r13d
    884f:	e8 00 00 00 00       	call   8854 <test_find_msg_num_position2+0x194>
    8854:	44 89 e1             	mov    %r12d,%ecx
    8857:	44 09 e9             	or     %r13d,%ecx
    885a:	0f 85 a5 00 00 00    	jne    8905 <test_find_msg_num_position2+0x245>
    8860:	85 c0                	test   %eax,%eax
    8862:	0f 84 9d 00 00 00    	je     8905 <test_find_msg_num_position2+0x245>
    8868:	4c 8b 85 e0 fe ff ff 	mov    -0x120(%rbp),%r8
    886f:	48 8b 95 00 ff ff ff 	mov    -0x100(%rbp),%rdx
    8876:	48 8b 8d 20 ff ff ff 	mov    -0xe0(%rbp),%rcx
    887d:	4c 8b 95 a0 fe ff ff 	mov    -0x160(%rbp),%r10
    8884:	48 8b b5 c0 fe ff ff 	mov    -0x140(%rbp),%rsi
    888b:	4d 85 c0             	test   %r8,%r8
    888e:	0f 84 94 00 00 00    	je     8928 <test_find_msg_num_position2+0x268>
    8894:	48 85 d2             	test   %rdx,%rdx
    8897:	0f 84 8b 00 00 00    	je     8928 <test_find_msg_num_position2+0x268>
    889d:	48 85 c9             	test   %rcx,%rcx
    88a0:	0f 85 82 00 00 00    	jne    8928 <test_find_msg_num_position2+0x268>
    88a6:	4d 39 d0             	cmp    %r10,%r8
    88a9:	75 7d                	jne    8928 <test_find_msg_num_position2+0x268>
    88ab:	45 31 c9             	xor    %r9d,%r9d
    88ae:	48 39 f2             	cmp    %rsi,%rdx
    88b1:	75 75                	jne    8928 <test_find_msg_num_position2+0x268>
    88b3:	48 b8 00 00 00 00 00 	movabs $0xdffffc0000000000,%rax
    88ba:	fc ff df 
    88bd:	48 01 d8             	add    %rbx,%rax
    88c0:	48 c7 00 00 00 00 00 	movq   $0x0,(%rax)
    88c7:	48 c7 40 08 00 00 00 	movq   $0x0,0x8(%rax)
    88ce:	00 
    88cf:	48 c7 40 10 00 00 00 	movq   $0x0,0x10(%rax)
    88d6:	00 
    88d7:	c7 40 24 00 00 00 00 	movl   $0x0,0x24(%rax)
    88de:	48 8b 45 d8          	mov    -0x28(%rbp),%rax
    88e2:	65 48 2b 04 25 28 00 	sub    %gs:0x28,%rax
    88e9:	00 00 
    88eb:	75 6a                	jne    8957 <test_find_msg_num_position2+0x297>
    88ed:	48 8d 65 e0          	lea    -0x20(%rbp),%rsp
    88f1:	44 89 c8             	mov    %r9d,%eax
    88f4:	5b                   	pop    %rbx
    88f5:	41 5a                	pop    %r10
    88f7:	41 5c                	pop    %r12
    88f9:	41 5d                	pop    %r13
    88fb:	5d                   	pop    %rbp
    88fc:	49 8d 62 f8          	lea    -0x8(%r10),%rsp
    8900:	e9 00 00 00 00       	jmp    8905 <test_find_msg_num_position2+0x245>
    8905:	4c 8b 85 e0 fe ff ff 	mov    -0x120(%rbp),%r8
    890c:	48 8b 95 00 ff ff ff 	mov    -0x100(%rbp),%rdx
    8913:	48 8b 8d 20 ff ff ff 	mov    -0xe0(%rbp),%rcx
    891a:	4c 8b 95 a0 fe ff ff 	mov    -0x160(%rbp),%r10
    8921:	48 8b b5 c0 fe ff ff 	mov    -0x140(%rbp),%rsi
    8928:	51                   	push   %rcx
    8929:	45 89 e9             	mov    %r13d,%r9d
    892c:	4c 89 d1             	mov    %r10,%rcx
    892f:	50                   	push   %rax
    8930:	52                   	push   %rdx
    8931:	44 89 e2             	mov    %r12d,%edx
    8934:	56                   	push   %rsi
    8935:	48 8b 35 00 00 00 00 	mov    0x0(%rip),%rsi        # 893c <test_find_msg_num_position2+0x27c>
    893c:	48 8d 3d 00 00 00 00 	lea    0x0(%rip),%rdi        # 8943 <test_find_msg_num_position2+0x283>
    8943:	e8 00 00 00 00       	call   8948 <test_find_msg_num_position2+0x288>
    8948:	41 b9 fe ff ff ff    	mov    $0xfffffffe,%r9d
    894e:	48 83 c4 20          	add    $0x20,%rsp
    8952:	e9 5c ff ff ff       	jmp    88b3 <test_find_msg_num_position2+0x1f3>
    8957:	e8 00 00 00 00       	call   895c <test_find_msg_num_position2+0x29c>
    895c:	0f 1f 40 00          	nopl   0x0(%rax)

0000000000008960 <__pfx_test_find_msg_num_position_after_pop>:
    8960:	90                   	nop
    8961:	90                   	nop
    8962:	90                   	nop
    8963:	90                   	nop
    8964:	90                   	nop
    8965:	90                   	nop
    8966:	90                   	nop
    8967:	90                   	nop
    8968:	90                   	nop
    8969:	90                   	nop
    896a:	90                   	nop
    896b:	90                   	nop
    896c:	90                   	nop
    896d:	90                   	nop
    896e:	90                   	nop
    896f:	90                   	nop

0000000000008970 <test_find_msg_num_position_after_pop>:
    8970:	f3 0f 1e fa          	endbr64
    8974:	e8 00 00 00 00       	call   8979 <test_find_msg_num_position_after_pop+0x9>
    8979:	55                   	push   %rbp
    897a:	48 89 e5             	mov    %rsp,%rbp
    897d:	53                   	push   %rbx
    897e:	48 83 e4 f0          	and    $0xfffffffffffffff0,%rsp
    8982:	48 81 ec 00 01 00 00 	sub    $0x100,%rsp
    8989:	48 89 e0             	mov    %rsp,%rax
    898c:	48 8d 7c 24 60       	lea    0x60(%rsp),%rdi
    8991:	48 c7 04 24 b3 8a b5 	movq   $0x41b58ab3,(%rsp)
    8998:	41 
    8999:	48 c7 44 24 08 00 00 	movq   $0x0,0x8(%rsp)
    89a0:	00 00 
    89a2:	48 c1 e8 03          	shr    $0x3,%rax
    89a6:	48 c7 44 24 10 00 00 	movq   $0x0,0x10(%rsp)
    89ad:	00 00 
    89af:	48 89 c3             	mov    %rax,%rbx
    89b2:	48 b8 00 00 00 00 00 	movabs $0xdffffc0000000000,%rax
    89b9:	fc ff df 
    89bc:	48 01 d8             	add    %rbx,%rax
    89bf:	c7 00 f1 f1 f1 f1    	movl   $0xf1f1f1f1,(%rax)
    89c5:	c7 40 04 00 f2 f2 f2 	movl   $0xf2f2f200,0x4(%rax)
    89cc:	c7 40 08 00 f2 f2 f2 	movl   $0xf2f2f200,0x8(%rax)
    89d3:	c7 40 18 f3 f3 f3 f3 	movl   $0xf3f3f3f3,0x18(%rax)
    89da:	65 48 8b 04 25 28 00 	mov    %gs:0x28,%rax
    89e1:	00 00 
    89e3:	48 89 84 24 f8 00 00 	mov    %rax,0xf8(%rsp)
    89ea:	00 
    89eb:	31 c0                	xor    %eax,%eax
    89ed:	48 c7 44 24 20 00 00 	movq   $0x0,0x20(%rsp)
    89f4:	00 00 
    89f6:	48 c7 44 24 40 00 00 	movq   $0x0,0x40(%rsp)
    89fd:	00 00 
    89ff:	e8 00 00 00 00       	call   8a04 <test_find_msg_num_position_after_pop+0x94>
    8a04:	48 8d 7c 24 20       	lea    0x20(%rsp),%rdi
    8a09:	e8 00 00 00 00       	call   8a0e <test_find_msg_num_position_after_pop+0x9e>
    8a0e:	48 8b 7c 24 20       	mov    0x20(%rsp),%rdi
    8a13:	be 0a 00 00 00       	mov    $0xa,%esi
    8a18:	e8 00 00 00 00       	call   8a1d <test_find_msg_num_position_after_pop+0xad>
    8a1d:	48 8b 74 24 20       	mov    0x20(%rsp),%rsi
    8a22:	48 8d 7c 24 60       	lea    0x60(%rsp),%rdi
    8a27:	e8 00 00 00 00       	call   8a2c <test_find_msg_num_position_after_pop+0xbc>
    8a2c:	48 8b 74 24 20       	mov    0x20(%rsp),%rsi
    8a31:	48 8d 7c 24 60       	lea    0x60(%rsp),%rdi
    8a36:	e8 00 00 00 00       	call   8a3b <test_find_msg_num_position_after_pop+0xcb>
    8a3b:	be 0a 00 00 00       	mov    $0xa,%esi
    8a40:	48 8d 54 24 40       	lea    0x40(%rsp),%rdx
    8a45:	48 8d 7c 24 60       	lea    0x60(%rsp),%rdi
    8a4a:	e8 00 00 00 00       	call   8a4f <test_find_msg_num_position_after_pop+0xdf>
    8a4f:	48 8b 4c 24 40       	mov    0x40(%rsp),%rcx
    8a54:	4c 8b 44 24 20       	mov    0x20(%rsp),%r8
    8a59:	85 c0                	test   %eax,%eax
    8a5b:	74 4f                	je     8aac <test_find_msg_num_position_after_pop+0x13c>
    8a5d:	48 85 c9             	test   %rcx,%rcx
    8a60:	75 4a                	jne    8aac <test_find_msg_num_position_after_pop+0x13c>
    8a62:	4d 85 c0             	test   %r8,%r8
    8a65:	74 45                	je     8aac <test_find_msg_num_position_after_pop+0x13c>
    8a67:	45 31 c0             	xor    %r8d,%r8d
    8a6a:	48 b8 00 00 00 00 00 	movabs $0xdffffc0000000000,%rax
    8a71:	fc ff df 
    8a74:	48 01 d8             	add    %rbx,%rax
    8a77:	48 c7 00 00 00 00 00 	movq   $0x0,(%rax)
    8a7e:	c7 40 08 00 00 00 00 	movl   $0x0,0x8(%rax)
    8a85:	c7 40 18 00 00 00 00 	movl   $0x0,0x18(%rax)
    8a8c:	48 8b 84 24 f8 00 00 	mov    0xf8(%rsp),%rax
    8a93:	00 
    8a94:	65 48 2b 04 25 28 00 	sub    %gs:0x28,%rax
    8a9b:	00 00 
    8a9d:	75 2a                	jne    8ac9 <test_find_msg_num_position_after_pop+0x159>
    8a9f:	48 8b 5d f8          	mov    -0x8(%rbp),%rbx
    8aa3:	44 89 c0             	mov    %r8d,%eax
    8aa6:	c9                   	leave
    8aa7:	e9 00 00 00 00       	jmp    8aac <test_find_msg_num_position_after_pop+0x13c>
    8aac:	48 8b 35 00 00 00 00 	mov    0x0(%rip),%rsi        # 8ab3 <test_find_msg_num_position_after_pop+0x143>
    8ab3:	89 c2                	mov    %eax,%edx
    8ab5:	48 8d 3d 00 00 00 00 	lea    0x0(%rip),%rdi        # 8abc <test_find_msg_num_position_after_pop+0x14c>
    8abc:	e8 00 00 00 00       	call   8ac1 <test_find_msg_num_position_after_pop+0x151>
    8ac1:	41 b8 fe ff ff ff    	mov    $0xfffffffe,%r8d
    8ac7:	eb a1                	jmp    8a6a <test_find_msg_num_position_after_pop+0xfa>
    8ac9:	e8 00 00 00 00       	call   8ace <test_find_msg_num_position_after_pop+0x15e>
    8ace:	66 90                	xchg   %ax,%ax

0000000000008ad0 <__pfx_test_find_next_position_empty>:
    8ad0:	90                   	nop
    8ad1:	90                   	nop
    8ad2:	90                   	nop
    8ad3:	90                   	nop
    8ad4:	90                   	nop
    8ad5:	90                   	nop
    8ad6:	90                   	nop
    8ad7:	90                   	nop
    8ad8:	90                   	nop
    8ad9:	90                   	nop
    8ada:	90                   	nop
    8adb:	90                   	nop
    8adc:	90                   	nop
    8add:	90                   	nop
    8ade:	90                   	nop
    8adf:	90                   	nop

0000000000008ae0 <test_find_next_position_empty>:
    8ae0:	f3 0f 1e fa          	endbr64
    8ae4:	e8 00 00 00 00       	call   8ae9 <test_find_next_position_empty+0x9>
    8ae9:	55                   	push   %rbp
    8aea:	48 89 e5             	mov    %rsp,%rbp
    8aed:	53                   	push   %rbx
    8aee:	48 83 e4 f0          	and    $0xfffffffffffffff0,%rsp
    8af2:	48 81 ec 00 01 00 00 	sub    $0x100,%rsp
    8af9:	48 89 e0             	mov    %rsp,%rax
    8afc:	48 8d 7c 24 20       	lea    0x20(%rsp),%rdi
    8b01:	48 c7 04 24 b3 8a b5 	movq   $0x41b58ab3,(%rsp)
    8b08:	41 
    8b09:	48 c7 44 24 08 00 00 	movq   $0x0,0x8(%rsp)
    8b10:	00 00 
    8b12:	48 c1 e8 03          	shr    $0x3,%rax
    8b16:	48 c7 44 24 10 00 00 	movq   $0x0,0x10(%rsp)
    8b1d:	00 00 
    8b1f:	48 89 c3             	mov    %rax,%rbx
    8b22:	48 b8 00 00 00 00 00 	movabs $0xdffffc0000000000,%rax
    8b29:	fc ff df 
    8b2c:	48 01 d8             	add    %rbx,%rax
    8b2f:	c7 00 f1 f1 f1 f1    	movl   $0xf1f1f1f1,(%rax)
    8b35:	c7 40 04 00 f2 f2 f2 	movl   $0xf2f2f200,0x4(%rax)
    8b3c:	c7 40 08 00 f2 f2 f2 	movl   $0xf2f2f200,0x8(%rax)
    8b43:	c7 40 18 f3 f3 f3 f3 	movl   $0xf3f3f3f3,0x18(%rax)
    8b4a:	65 48 8b 04 25 28 00 	mov    %gs:0x28,%rax
    8b51:	00 00 
    8b53:	48 89 84 24 f8 00 00 	mov    %rax,0xf8(%rsp)
    8b5a:	00 
    8b5b:	31 c0                	xor    %eax,%eax
    8b5d:	48 c7 44 24 20 00 00 	movq   $0x0,0x20(%rsp)
    8b64:	00 00 
    8b66:	48 c7 44 24 40 00 00 	movq   $0x0,0x40(%rsp)
    8b6d:	00 00 
    8b6f:	e8 00 00 00 00       	call   8b74 <test_find_next_position_empty+0x94>
    8b74:	48 8d 7c 24 60       	lea    0x60(%rsp),%rdi
    8b79:	e8 00 00 00 00       	call   8b7e <test_find_next_position_empty+0x9e>
    8b7e:	48 8b 7c 24 20       	mov    0x20(%rsp),%rdi
    8b83:	be 0a 00 00 00       	mov    $0xa,%esi
    8b88:	e8 00 00 00 00       	call   8b8d <test_find_next_position_empty+0xad>
    8b8d:	48 8b 74 24 20       	mov    0x20(%rsp),%rsi
    8b92:	48 8d 7c 24 60       	lea    0x60(%rsp),%rdi
    8b97:	e8 00 00 00 00       	call   8b9c <test_find_next_position_empty+0xbc>
    8b9c:	48 8b 74 24 20       	mov    0x20(%rsp),%rsi
    8ba1:	48 8d 54 24 40       	lea    0x40(%rsp),%rdx
    8ba6:	48 8d 7c 24 60       	lea    0x60(%rsp),%rdi
    8bab:	e8 00 00 00 00       	call   8bb0 <test_find_next_position_empty+0xd0>
    8bb0:	48 8b 4c 24 40       	mov    0x40(%rsp),%rcx
    8bb5:	85 c0                	test   %eax,%eax
    8bb7:	74 4a                	je     8c03 <test_find_next_position_empty+0x123>
    8bb9:	45 31 c0             	xor    %r8d,%r8d
    8bbc:	48 85 c9             	test   %rcx,%rcx
    8bbf:	75 42                	jne    8c03 <test_find_next_position_empty+0x123>
    8bc1:	48 b8 00 00 00 00 00 	movabs $0xdffffc0000000000,%rax
    8bc8:	fc ff df 
    8bcb:	48 01 d8             	add    %rbx,%rax
    8bce:	48 c7 00 00 00 00 00 	movq   $0x0,(%rax)
    8bd5:	c7 40 08 00 00 00 00 	movl   $0x0,0x8(%rax)
    8bdc:	c7 40 18 00 00 00 00 	movl   $0x0,0x18(%rax)
    8be3:	48 8b 84 24 f8 00 00 	mov    0xf8(%rsp),%rax
    8bea:	00 
    8beb:	65 48 2b 04 25 28 00 	sub    %gs:0x28,%rax
    8bf2:	00 00 
    8bf4:	75 2f                	jne    8c25 <test_find_next_position_empty+0x145>
    8bf6:	48 8b 5d f8          	mov    -0x8(%rbp),%rbx
    8bfa:	44 89 c0             	mov    %r8d,%eax
    8bfd:	c9                   	leave
    8bfe:	e9 00 00 00 00       	jmp    8c03 <test_find_next_position_empty+0x123>
    8c03:	4c 8b 44 24 20       	mov    0x20(%rsp),%r8
    8c08:	48 8b 35 00 00 00 00 	mov    0x0(%rip),%rsi        # 8c0f <test_find_next_position_empty+0x12f>
    8c0f:	89 c2                	mov    %eax,%edx
    8c11:	48 8d 3d 00 00 00 00 	lea    0x0(%rip),%rdi        # 8c18 <test_find_next_position_empty+0x138>
    8c18:	e8 00 00 00 00       	call   8c1d <test_find_next_position_empty+0x13d>
    8c1d:	41 b8 fe ff ff ff    	mov    $0xfffffffe,%r8d
    8c23:	eb 9c                	jmp    8bc1 <test_find_next_position_empty+0xe1>
    8c25:	e8 00 00 00 00       	call   8c2a <test_find_next_position_empty+0x14a>
    8c2a:	66 0f 1f 44 00 00    	nopw   0x0(%rax,%rax,1)

0000000000008c30 <__pfx_test_find_next_position>:
    8c30:	90                   	nop
    8c31:	90                   	nop
    8c32:	90                   	nop
    8c33:	90                   	nop
    8c34:	90                   	nop
    8c35:	90                   	nop
    8c36:	90                   	nop
    8c37:	90                   	nop
    8c38:	90                   	nop
    8c39:	90                   	nop
    8c3a:	90                   	nop
    8c3b:	90                   	nop
    8c3c:	90                   	nop
    8c3d:	90                   	nop
    8c3e:	90                   	nop
    8c3f:	90                   	nop

0000000000008c40 <test_find_next_position>:
    8c40:	f3 0f 1e fa          	endbr64
    8c44:	e8 00 00 00 00       	call   8c49 <test_find_next_position+0x9>
    8c49:	4c 8d 54 24 08       	lea    0x8(%rsp),%r10
    8c4e:	48 83 e4 f0          	and    $0xfffffffffffffff0,%rsp
    8c52:	41 ff 72 f8          	push   -0x8(%r10)
    8c56:	55                   	push   %rbp
    8c57:	48 89 e5             	mov    %rsp,%rbp
    8c5a:	41 54                	push   %r12
    8c5c:	48 8d 85 a0 fe ff ff 	lea    -0x160(%rbp),%rax
    8c63:	41 52                	push   %r10
    8c65:	48 8d bd c0 fe ff ff 	lea    -0x140(%rbp),%rdi
    8c6c:	53                   	push   %rbx
    8c6d:	48 c1 e8 03          	shr    $0x3,%rax
    8c71:	48 89 c3             	mov    %rax,%rbx
    8c74:	48 b8 00 00 00 00 00 	movabs $0xdffffc0000000000,%rax
    8c7b:	fc ff df 
    8c7e:	48 01 d8             	add    %rbx,%rax
    8c81:	48 81 ec 48 01 00 00 	sub    $0x148,%rsp
    8c88:	48 c7 85 a0 fe ff ff 	movq   $0x41b58ab3,-0x160(%rbp)
    8c8f:	b3 8a b5 41 
    8c93:	48 c7 85 a8 fe ff ff 	movq   $0x0,-0x158(%rbp)
    8c9a:	00 00 00 00 
    8c9e:	48 c7 85 b0 fe ff ff 	movq   $0x0,-0x150(%rbp)
    8ca5:	00 00 00 00 
    8ca9:	c7 00 f1 f1 f1 f1    	movl   $0xf1f1f1f1,(%rax)
    8caf:	c7 40 04 00 f2 f2 f2 	movl   $0xf2f2f200,0x4(%rax)
    8cb6:	c7 40 08 00 f2 f2 f2 	movl   $0xf2f2f200,0x8(%rax)
    8cbd:	c7 40 0c 00 f2 f2 f2 	movl   $0xf2f2f200,0xc(%rax)
    8cc4:	c7 40 10 00 f2 f2 f2 	movl   $0xf2f2f200,0x10(%rax)
    8ccb:	c7 40 20 f3 f3 f3 f3 	movl   $0xf3f3f3f3,0x20(%rax)
    8cd2:	65 48 8b 04 25 28 00 	mov    %gs:0x28,%rax
    8cd9:	00 00 
    8cdb:	48 89 45 d8          	mov    %rax,-0x28(%rbp)
    8cdf:	31 c0                	xor    %eax,%eax
    8ce1:	48 c7 85 c0 fe ff ff 	movq   $0x0,-0x140(%rbp)
    8ce8:	00 00 00 00 
    8cec:	48 c7 85 e0 fe ff ff 	movq   $0x0,-0x120(%rbp)
    8cf3:	00 00 00 00 
    8cf7:	48 c7 85 00 ff ff ff 	movq   $0x0,-0x100(%rbp)
    8cfe:	00 00 00 00 
    8d02:	48 c7 85 20 ff ff ff 	movq   $0x0,-0xe0(%rbp)
    8d09:	00 00 00 00 
    8d0d:	e8 00 00 00 00       	call   8d12 <test_find_next_position+0xd2>
    8d12:	48 8d bd e0 fe ff ff 	lea    -0x120(%rbp),%rdi
    8d19:	e8 00 00 00 00       	call   8d1e <test_find_next_position+0xde>
    8d1e:	48 8d bd 40 ff ff ff 	lea    -0xc0(%rbp),%rdi
    8d25:	e8 00 00 00 00       	call   8d2a <test_find_next_position+0xea>
    8d2a:	48 8b bd c0 fe ff ff 	mov    -0x140(%rbp),%rdi
    8d31:	be 0a 00 00 00       	mov    $0xa,%esi
    8d36:	e8 00 00 00 00       	call   8d3b <test_find_next_position+0xfb>
    8d3b:	48 8b bd e0 fe ff ff 	mov    -0x120(%rbp),%rdi
    8d42:	be 0c 00 00 00       	mov    $0xc,%esi
    8d47:	e8 00 00 00 00       	call   8d4c <test_find_next_position+0x10c>
    8d4c:	48 8b b5 c0 fe ff ff 	mov    -0x140(%rbp),%rsi
    8d53:	48 8d bd 40 ff ff ff 	lea    -0xc0(%rbp),%rdi
    8d5a:	e8 00 00 00 00       	call   8d5f <test_find_next_position+0x11f>
    8d5f:	48 8b b5 e0 fe ff ff 	mov    -0x120(%rbp),%rsi
    8d66:	48 8d bd 40 ff ff ff 	lea    -0xc0(%rbp),%rdi
    8d6d:	e8 00 00 00 00       	call   8d72 <test_find_next_position+0x132>
    8d72:	48 8b b5 c0 fe ff ff 	mov    -0x140(%rbp),%rsi
    8d79:	48 8d 95 00 ff ff ff 	lea    -0x100(%rbp),%rdx
    8d80:	48 8d bd 40 ff ff ff 	lea    -0xc0(%rbp),%rdi
    8d87:	e8 00 00 00 00       	call   8d8c <test_find_next_position+0x14c>
    8d8c:	48 8b b5 e0 fe ff ff 	mov    -0x120(%rbp),%rsi
    8d93:	48 8d 95 20 ff ff ff 	lea    -0xe0(%rbp),%rdx
    8d9a:	48 8d bd 40 ff ff ff 	lea    -0xc0(%rbp),%rdi
    8da1:	41 89 c4             	mov    %eax,%r12d
    8da4:	e8 00 00 00 00       	call   8da9 <test_find_next_position+0x169>
    8da9:	48 8b 95 e0 fe ff ff 	mov    -0x120(%rbp),%rdx
    8db0:	4c 8b 85 00 ff ff ff 	mov    -0x100(%rbp),%r8
    8db7:	48 8b 8d 20 ff ff ff 	mov    -0xe0(%rbp),%rcx
    8dbe:	45 85 e4             	test   %r12d,%r12d
    8dc1:	75 60                	jne    8e23 <test_find_next_position+0x1e3>
    8dc3:	85 c0                	test   %eax,%eax
    8dc5:	74 5c                	je     8e23 <test_find_next_position+0x1e3>
    8dc7:	4c 39 c2             	cmp    %r8,%rdx
    8dca:	75 57                	jne    8e23 <test_find_next_position+0x1e3>
    8dcc:	45 31 c9             	xor    %r9d,%r9d
    8dcf:	48 85 c9             	test   %rcx,%rcx
    8dd2:	75 4f                	jne    8e23 <test_find_next_position+0x1e3>
    8dd4:	48 b8 00 00 00 00 00 	movabs $0xdffffc0000000000,%rax
    8ddb:	fc ff df 
    8dde:	48 01 d8             	add    %rbx,%rax
    8de1:	48 c7 00 00 00 00 00 	movq   $0x0,(%rax)
    8de8:	48 c7 40 08 00 00 00 	movq   $0x0,0x8(%rax)
    8def:	00 
    8df0:	c7 40 10 00 00 00 00 	movl   $0x0,0x10(%rax)
    8df7:	c7 40 20 00 00 00 00 	movl   $0x0,0x20(%rax)
    8dfe:	48 8b 45 d8          	mov    -0x28(%rbp),%rax
    8e02:	65 48 2b 04 25 28 00 	sub    %gs:0x28,%rax
    8e09:	00 00 
    8e0b:	75 45                	jne    8e52 <test_find_next_position+0x212>
    8e0d:	48 8d 65 e8          	lea    -0x18(%rbp),%rsp
    8e11:	44 89 c8             	mov    %r9d,%eax
    8e14:	5b                   	pop    %rbx
    8e15:	41 5a                	pop    %r10
    8e17:	41 5c                	pop    %r12
    8e19:	5d                   	pop    %rbp
    8e1a:	49 8d 62 f8          	lea    -0x8(%r10),%rsp
    8e1e:	e9 00 00 00 00       	jmp    8e23 <test_find_next_position+0x1e3>
    8e23:	51                   	push   %rcx
    8e24:	4c 8b 95 c0 fe ff ff 	mov    -0x140(%rbp),%r10
    8e2b:	41 89 c1             	mov    %eax,%r9d
    8e2e:	52                   	push   %rdx
    8e2f:	48 8b 35 00 00 00 00 	mov    0x0(%rip),%rsi        # 8e36 <test_find_next_position+0x1f6>
    8e36:	44 89 e2             	mov    %r12d,%edx
    8e39:	4c 89 d1             	mov    %r10,%rcx
    8e3c:	48 8d 3d 00 00 00 00 	lea    0x0(%rip),%rdi        # 8e43 <test_find_next_position+0x203>
    8e43:	e8 00 00 00 00       	call   8e48 <test_find_next_position+0x208>
    8e48:	41 b9 fe ff ff ff    	mov    $0xfffffffe,%r9d
    8e4e:	58                   	pop    %rax
    8e4f:	5a                   	pop    %rdx
    8e50:	eb 82                	jmp    8dd4 <test_find_next_position+0x194>
    8e52:	e8 00 00 00 00       	call   8e57 <test_find_next_position+0x217>
    8e57:	66 0f 1f 84 00 00 00 	nopw   0x0(%rax,%rax,1)
    8e5e:	00 00 

0000000000008e60 <__pfx_test_get_buffer_address>:
    8e60:	90                   	nop
    8e61:	90                   	nop
    8e62:	90                   	nop
    8e63:	90                   	nop
    8e64:	90                   	nop
    8e65:	90                   	nop
    8e66:	90                   	nop
    8e67:	90                   	nop
    8e68:	90                   	nop
    8e69:	90                   	nop
    8e6a:	90                   	nop
    8e6b:	90                   	nop
    8e6c:	90                   	nop
    8e6d:	90                   	nop
    8e6e:	90                   	nop
    8e6f:	90                   	nop

0000000000008e70 <test_get_buffer_address>:
    8e70:	f3 0f 1e fa          	endbr64
    8e74:	e8 00 00 00 00       	call   8e79 <test_get_buffer_address+0x9>
    8e79:	55                   	push   %rbp
    8e7a:	ba 14 00 00 00       	mov    $0x14,%edx
    8e7f:	be 0a 00 00 00       	mov    $0xa,%esi
    8e84:	48 b8 00 00 00 00 00 	movabs $0xdffffc0000000000,%rax
    8e8b:	fc ff df 
    8e8e:	48 89 e5             	mov    %rsp,%rbp
    8e91:	53                   	push   %rbx
    8e92:	48 83 e4 f0          	and    $0xfffffffffffffff0,%rsp
    8e96:	48 81 ec c0 00 00 00 	sub    $0xc0,%rsp
    8e9d:	48 89 e3             	mov    %rsp,%rbx
    8ea0:	48 8d 7c 24 30       	lea    0x30(%rsp),%rdi
    8ea5:	48 c7 04 24 b3 8a b5 	movq   $0x41b58ab3,(%rsp)
    8eac:	41 
    8ead:	48 c7 44 24 08 00 00 	movq   $0x0,0x8(%rsp)
    8eb4:	00 00 
    8eb6:	48 c1 eb 03          	shr    $0x3,%rbx
    8eba:	48 c7 44 24 10 00 00 	movq   $0x0,0x10(%rsp)
    8ec1:	00 00 
    8ec3:	48 01 c3             	add    %rax,%rbx
    8ec6:	c7 03 f1 f1 f1 f1    	movl   $0xf1f1f1f1,(%rbx)
    8ecc:	c7 43 04 f1 f1 00 00 	movl   $0xf1f1,0x4(%rbx)
    8ed3:	c7 43 10 f3 f3 f3 f3 	movl   $0xf3f3f3f3,0x10(%rbx)
    8eda:	65 48 8b 04 25 28 00 	mov    %gs:0x28,%rax
    8ee1:	00 00 
    8ee3:	48 89 84 24 b8 00 00 	mov    %rax,0xb8(%rsp)
    8eea:	00 
    8eeb:	31 c0                	xor    %eax,%eax
    8eed:	e8 00 00 00 00       	call   8ef2 <test_get_buffer_address+0x82>
    8ef2:	48 c7 03 00 00 00 00 	movq   $0x0,(%rbx)
    8ef9:	c7 43 10 00 00 00 00 	movl   $0x0,0x10(%rbx)
    8f00:	48 8b 84 24 b8 00 00 	mov    0xb8(%rsp),%rax
    8f07:	00 
    8f08:	65 48 2b 04 25 28 00 	sub    %gs:0x28,%rax
    8f0f:	00 00 
    8f11:	75 0c                	jne    8f1f <test_get_buffer_address+0xaf>
    8f13:	48 8b 5d f8          	mov    -0x8(%rbp),%rbx
    8f17:	31 c0                	xor    %eax,%eax
    8f19:	c9                   	leave
    8f1a:	e9 00 00 00 00       	jmp    8f1f <test_get_buffer_address+0xaf>
    8f1f:	e8 00 00 00 00       	call   8f24 <test_get_buffer_address+0xb4>
    8f24:	66 66 2e 0f 1f 84 00 	data16 cs nopw 0x0(%rax,%rax,1)
    8f2b:	00 00 00 00 
    8f2f:	90                   	nop

0000000000008f30 <__pfx_stest_create_acquire_node>:
    8f30:	90                   	nop
    8f31:	90                   	nop
    8f32:	90                   	nop
    8f33:	90                   	nop
    8f34:	90                   	nop
    8f35:	90                   	nop
    8f36:	90                   	nop
    8f37:	90                   	nop
    8f38:	90                   	nop
    8f39:	90                   	nop
    8f3a:	90                   	nop
    8f3b:	90                   	nop
    8f3c:	90                   	nop
    8f3d:	90                   	nop
    8f3e:	90                   	nop
    8f3f:	90                   	nop

0000000000008f40 <stest_create_acquire_node>:
    8f40:	f3 0f 1e fa          	endbr64
    8f44:	e8 00 00 00 00       	call   8f49 <stest_create_acquire_node+0x9>
    8f49:	55                   	push   %rbp
    8f4a:	be 14 00 00 00       	mov    $0x14,%esi
    8f4f:	bf 1e 00 00 00       	mov    $0x1e,%edi
    8f54:	48 b8 00 00 00 00 00 	movabs $0xdffffc0000000000,%rax
    8f5b:	fc ff df 
    8f5e:	48 89 e5             	mov    %rsp,%rbp
    8f61:	41 57                	push   %r15
    8f63:	41 56                	push   %r14
    8f65:	48 8d 95 58 ff ff ff 	lea    -0xa8(%rbp),%rdx
    8f6c:	41 55                	push   %r13
    8f6e:	41 54                	push   %r12
    8f70:	53                   	push   %rbx
    8f71:	48 8d 9d 38 ff ff ff 	lea    -0xc8(%rbp),%rbx
    8f78:	48 c1 eb 03          	shr    $0x3,%rbx
    8f7c:	48 01 d8             	add    %rbx,%rax
    8f7f:	48 81 ec a8 00 00 00 	sub    $0xa8,%rsp
    8f86:	48 c7 85 38 ff ff ff 	movq   $0x41b58ab3,-0xc8(%rbp)
    8f8d:	b3 8a b5 41 
    8f91:	48 c7 85 40 ff ff ff 	movq   $0x0,-0xc0(%rbp)
    8f98:	00 00 00 00 
    8f9c:	48 c7 85 48 ff ff ff 	movq   $0x0,-0xb8(%rbp)
    8fa3:	00 00 00 00 
    8fa7:	c7 00 f1 f1 f1 f1    	movl   $0xf1f1f1f1,(%rax)
    8fad:	c7 40 04 00 f2 f2 f2 	movl   $0xf2f2f200,0x4(%rax)
    8fb4:	c7 40 08 00 f2 f2 f2 	movl   $0xf2f2f200,0x8(%rax)
    8fbb:	c7 40 0c 00 f3 f3 f3 	movl   $0xf3f3f300,0xc(%rax)
    8fc2:	65 48 8b 04 25 28 00 	mov    %gs:0x28,%rax
    8fc9:	00 00 
    8fcb:	48 89 45 d0          	mov    %rax,-0x30(%rbp)
    8fcf:	31 c0                	xor    %eax,%eax
    8fd1:	48 c7 45 98 00 00 00 	movq   $0x0,-0x68(%rbp)
    8fd8:	00 
    8fd9:	48 c7 85 58 ff ff ff 	movq   $0x0,-0xa8(%rbp)
    8fe0:	00 00 00 00 
    8fe4:	48 c7 85 78 ff ff ff 	movq   $0x0,-0x88(%rbp)
    8feb:	00 00 00 00 
    8fef:	e8 00 00 00 00       	call   8ff4 <stest_create_acquire_node+0xb4>
    8ff4:	48 8b bd 58 ff ff ff 	mov    -0xa8(%rbp),%rdi
    8ffb:	48 8d 75 98          	lea    -0x68(%rbp),%rsi
    8fff:	89 85 34 ff ff ff    	mov    %eax,-0xcc(%rbp)
    9005:	e8 00 00 00 00       	call   900a <stest_create_acquire_node+0xca>
    900a:	48 8b bd 58 ff ff ff 	mov    -0xa8(%rbp),%rdi
    9011:	89 85 30 ff ff ff    	mov    %eax,-0xd0(%rbp)
    9017:	e8 00 00 00 00       	call   901c <stest_create_acquire_node+0xdc>
    901c:	48 8b 7d 98          	mov    -0x68(%rbp),%rdi
    9020:	48 8d b5 78 ff ff ff 	lea    -0x88(%rbp),%rsi
    9027:	41 89 c6             	mov    %eax,%r14d
    902a:	e8 00 00 00 00       	call   902f <stest_create_acquire_node+0xef>
    902f:	48 8b bd 78 ff ff ff 	mov    -0x88(%rbp),%rdi
    9036:	41 89 c7             	mov    %eax,%r15d
    9039:	e8 00 00 00 00       	call   903e <stest_create_acquire_node+0xfe>
    903e:	48 8b bd 78 ff ff ff 	mov    -0x88(%rbp),%rdi
    9045:	41 89 c4             	mov    %eax,%r12d
    9048:	e8 00 00 00 00       	call   904d <stest_create_acquire_node+0x10d>
    904d:	48 8b bd 58 ff ff ff 	mov    -0xa8(%rbp),%rdi
    9054:	41 89 c5             	mov    %eax,%r13d
    9057:	e8 00 00 00 00       	call   905c <stest_create_acquire_node+0x11c>
    905c:	4c 8b 55 98          	mov    -0x68(%rbp),%r10
    9060:	4c 8b 85 58 ff ff ff 	mov    -0xa8(%rbp),%r8
    9067:	89 c6                	mov    %eax,%esi
    9069:	8b 85 34 ff ff ff    	mov    -0xcc(%rbp),%eax
    906f:	0b 85 30 ff ff ff    	or     -0xd0(%rbp),%eax
    9075:	44 09 f0             	or     %r14d,%eax
    9078:	4c 8b 8d 78 ff ff ff 	mov    -0x88(%rbp),%r9
    907f:	44 09 f8             	or     %r15d,%eax
    9082:	44 09 e0             	or     %r12d,%eax
    9085:	44 09 e8             	or     %r13d,%eax
    9088:	09 f0                	or     %esi,%eax
    908a:	75 52                	jne    90de <stest_create_acquire_node+0x19e>
    908c:	4d 85 d2             	test   %r10,%r10
    908f:	74 4d                	je     90de <stest_create_acquire_node+0x19e>
    9091:	4d 85 c0             	test   %r8,%r8
    9094:	74 48                	je     90de <stest_create_acquire_node+0x19e>
    9096:	4d 85 c9             	test   %r9,%r9
    9099:	74 43                	je     90de <stest_create_acquire_node+0x19e>
    909b:	4d 39 c8             	cmp    %r9,%r8
    909e:	75 3e                	jne    90de <stest_create_acquire_node+0x19e>
    90a0:	48 ba 00 00 00 00 00 	movabs $0xdffffc0000000000,%rdx
    90a7:	fc ff df 
    90aa:	48 01 d3             	add    %rdx,%rbx
    90ad:	48 c7 03 00 00 00 00 	movq   $0x0,(%rbx)
    90b4:	48 c7 43 08 00 00 00 	movq   $0x0,0x8(%rbx)
    90bb:	00 
    90bc:	48 8b 55 d0          	mov    -0x30(%rbp),%rdx
    90c0:	65 48 2b 14 25 28 00 	sub    %gs:0x28,%rdx
    90c7:	00 00 
    90c9:	75 4e                	jne    9119 <stest_create_acquire_node+0x1d9>
    90cb:	48 8d 65 d8          	lea    -0x28(%rbp),%rsp
    90cf:	5b                   	pop    %rbx
    90d0:	41 5c                	pop    %r12
    90d2:	41 5d                	pop    %r13
    90d4:	41 5e                	pop    %r14
    90d6:	41 5f                	pop    %r15
    90d8:	5d                   	pop    %rbp
    90d9:	e9 00 00 00 00       	jmp    90de <stest_create_acquire_node+0x19e>
    90de:	8b 8d 30 ff ff ff    	mov    -0xd0(%rbp),%ecx
    90e4:	8b 95 34 ff ff ff    	mov    -0xcc(%rbp),%edx
    90ea:	41 51                	push   %r9
    90ec:	45 89 f9             	mov    %r15d,%r9d
    90ef:	41 50                	push   %r8
    90f1:	45 89 f0             	mov    %r14d,%r8d
    90f4:	41 52                	push   %r10
    90f6:	56                   	push   %rsi
    90f7:	48 8b 35 00 00 00 00 	mov    0x0(%rip),%rsi        # 90fe <stest_create_acquire_node+0x1be>
    90fe:	41 55                	push   %r13
    9100:	41 54                	push   %r12
    9102:	48 8d 3d 00 00 00 00 	lea    0x0(%rip),%rdi        # 9109 <stest_create_acquire_node+0x1c9>
    9109:	e8 00 00 00 00       	call   910e <stest_create_acquire_node+0x1ce>
    910e:	b8 fe ff ff ff       	mov    $0xfffffffe,%eax
    9113:	48 83 c4 30          	add    $0x30,%rsp
    9117:	eb 87                	jmp    90a0 <stest_create_acquire_node+0x160>
    9119:	e8 00 00 00 00       	call   911e <stest_create_acquire_node+0x1de>
    911e:	66 90                	xchg   %ax,%ax

0000000000009120 <__pfx_stest_create_find_publish_node>:
    9120:	90                   	nop
    9121:	90                   	nop
    9122:	90                   	nop
    9123:	90                   	nop
    9124:	90                   	nop
    9125:	90                   	nop
    9126:	90                   	nop
    9127:	90                   	nop
    9128:	90                   	nop
    9129:	90                   	nop
    912a:	90                   	nop
    912b:	90                   	nop
    912c:	90                   	nop
    912d:	90                   	nop
    912e:	90                   	nop
    912f:	90                   	nop

0000000000009130 <stest_create_find_publish_node>:
    9130:	f3 0f 1e fa          	endbr64
    9134:	e8 00 00 00 00       	call   9139 <stest_create_find_publish_node+0x9>
    9139:	55                   	push   %rbp
    913a:	be 14 00 00 00       	mov    $0x14,%esi
    913f:	bf 1e 00 00 00       	mov    $0x1e,%edi
    9144:	48 b8 00 00 00 00 00 	movabs $0xdffffc0000000000,%rax
    914b:	fc ff df 
    914e:	48 89 e5             	mov    %rsp,%rbp
    9151:	41 57                	push   %r15
    9153:	41 56                	push   %r14
    9155:	48 8d 95 58 ff ff ff 	lea    -0xa8(%rbp),%rdx
    915c:	41 55                	push   %r13
    915e:	41 54                	push   %r12
    9160:	53                   	push   %rbx
    9161:	48 8d 9d 38 ff ff ff 	lea    -0xc8(%rbp),%rbx
    9168:	48 c1 eb 03          	shr    $0x3,%rbx
    916c:	48 01 d8             	add    %rbx,%rax
    916f:	48 81 ec a8 00 00 00 	sub    $0xa8,%rsp
    9176:	48 c7 85 38 ff ff ff 	movq   $0x41b58ab3,-0xc8(%rbp)
    917d:	b3 8a b5 41 
    9181:	48 c7 85 40 ff ff ff 	movq   $0x0,-0xc0(%rbp)
    9188:	00 00 00 00 
    918c:	48 c7 85 48 ff ff ff 	movq   $0x0,-0xb8(%rbp)
    9193:	00 00 00 00 
    9197:	c7 00 f1 f1 f1 f1    	movl   $0xf1f1f1f1,(%rax)
    919d:	c7 40 04 00 f2 f2 f2 	movl   $0xf2f2f200,0x4(%rax)
    91a4:	c7 40 08 00 f2 f2 f2 	movl   $0xf2f2f200,0x8(%rax)
    91ab:	c7 40 0c 00 f3 f3 f3 	movl   $0xf3f3f300,0xc(%rax)
    91b2:	65 48 8b 04 25 28 00 	mov    %gs:0x28,%rax
    91b9:	00 00 
    91bb:	48 89 45 d0          	mov    %rax,-0x30(%rbp)
    91bf:	31 c0                	xor    %eax,%eax
    91c1:	48 c7 45 98 00 00 00 	movq   $0x0,-0x68(%rbp)
    91c8:	00 
    91c9:	48 c7 85 58 ff ff ff 	movq   $0x0,-0xa8(%rbp)
    91d0:	00 00 00 00 
    91d4:	48 c7 85 78 ff ff ff 	movq   $0x0,-0x88(%rbp)
    91db:	00 00 00 00 
    91df:	e8 00 00 00 00       	call   91e4 <stest_create_find_publish_node+0xb4>
    91e4:	48 8d b5 78 ff ff ff 	lea    -0x88(%rbp),%rsi
    91eb:	bf 64 00 00 00       	mov    $0x64,%edi
    91f0:	89 85 34 ff ff ff    	mov    %eax,-0xcc(%rbp)
    91f6:	e8 00 00 00 00       	call   91fb <stest_create_find_publish_node+0xcb>
    91fb:	48 8b b5 78 ff ff ff 	mov    -0x88(%rbp),%rsi
    9202:	48 8b bd 58 ff ff ff 	mov    -0xa8(%rbp),%rdi
    9209:	89 85 30 ff ff ff    	mov    %eax,-0xd0(%rbp)
    920f:	e8 00 00 00 00       	call   9214 <stest_create_find_publish_node+0xe4>
    9214:	48 8b bd 58 ff ff ff 	mov    -0xa8(%rbp),%rdi
    921b:	48 8d 55 98          	lea    -0x68(%rbp),%rdx
    921f:	be 64 00 00 00       	mov    $0x64,%esi
    9224:	41 89 c6             	mov    %eax,%r14d
    9227:	e8 00 00 00 00       	call   922c <stest_create_find_publish_node+0xfc>
    922c:	48 8b b5 78 ff ff ff 	mov    -0x88(%rbp),%rsi
    9233:	48 8b bd 58 ff ff ff 	mov    -0xa8(%rbp),%rdi
    923a:	41 89 c7             	mov    %eax,%r15d
    923d:	e8 00 00 00 00       	call   9242 <stest_create_find_publish_node+0x112>
    9242:	48 8b bd 58 ff ff ff 	mov    -0xa8(%rbp),%rdi
    9249:	41 89 c4             	mov    %eax,%r12d
    924c:	e8 00 00 00 00       	call   9251 <stest_create_find_publish_node+0x121>
    9251:	48 8b bd 78 ff ff ff 	mov    -0x88(%rbp),%rdi
    9258:	41 89 c5             	mov    %eax,%r13d
    925b:	e8 00 00 00 00       	call   9260 <stest_create_find_publish_node+0x130>
    9260:	4c 8b 95 58 ff ff ff 	mov    -0xa8(%rbp),%r10
    9267:	4c 8b 85 78 ff ff ff 	mov    -0x88(%rbp),%r8
    926e:	89 c6                	mov    %eax,%esi
    9270:	8b 85 34 ff ff ff    	mov    -0xcc(%rbp),%eax
    9276:	0b 85 30 ff ff ff    	or     -0xd0(%rbp),%eax
    927c:	44 09 f0             	or     %r14d,%eax
    927f:	4c 8b 4d 98          	mov    -0x68(%rbp),%r9
    9283:	44 09 f8             	or     %r15d,%eax
    9286:	44 09 e0             	or     %r12d,%eax
    9289:	44 09 e8             	or     %r13d,%eax
    928c:	09 f0                	or     %esi,%eax
    928e:	75 52                	jne    92e2 <stest_create_find_publish_node+0x1b2>
    9290:	4d 85 d2             	test   %r10,%r10
    9293:	74 4d                	je     92e2 <stest_create_find_publish_node+0x1b2>
    9295:	4d 85 c0             	test   %r8,%r8
    9298:	74 48                	je     92e2 <stest_create_find_publish_node+0x1b2>
    929a:	4d 85 c9             	test   %r9,%r9
    929d:	74 43                	je     92e2 <stest_create_find_publish_node+0x1b2>
    929f:	4d 39 c8             	cmp    %r9,%r8
    92a2:	75 3e                	jne    92e2 <stest_create_find_publish_node+0x1b2>
    92a4:	48 ba 00 00 00 00 00 	movabs $0xdffffc0000000000,%rdx
    92ab:	fc ff df 
    92ae:	48 01 d3             	add    %rdx,%rbx
    92b1:	48 c7 03 00 00 00 00 	movq   $0x0,(%rbx)
    92b8:	48 c7 43 08 00 00 00 	movq   $0x0,0x8(%rbx)
    92bf:	00 
    92c0:	48 8b 55 d0          	mov    -0x30(%rbp),%rdx
    92c4:	65 48 2b 14 25 28 00 	sub    %gs:0x28,%rdx
    92cb:	00 00 
    92cd:	75 4e                	jne    931d <stest_create_find_publish_node+0x1ed>
    92cf:	48 8d 65 d8          	lea    -0x28(%rbp),%rsp
    92d3:	5b                   	pop    %rbx
    92d4:	41 5c                	pop    %r12
    92d6:	41 5d                	pop    %r13
    92d8:	41 5e                	pop    %r14
    92da:	41 5f                	pop    %r15
    92dc:	5d                   	pop    %rbp
    92dd:	e9 00 00 00 00       	jmp    92e2 <stest_create_find_publish_node+0x1b2>
    92e2:	8b 8d 30 ff ff ff    	mov    -0xd0(%rbp),%ecx
    92e8:	8b 95 34 ff ff ff    	mov    -0xcc(%rbp),%edx
    92ee:	41 51                	push   %r9
    92f0:	45 89 f9             	mov    %r15d,%r9d
    92f3:	41 50                	push   %r8
    92f5:	45 89 f0             	mov    %r14d,%r8d
    92f8:	41 52                	push   %r10
    92fa:	56                   	push   %rsi
    92fb:	48 8b 35 00 00 00 00 	mov    0x0(%rip),%rsi        # 9302 <stest_create_find_publish_node+0x1d2>
    9302:	41 55                	push   %r13
    9304:	41 54                	push   %r12
    9306:	48 8d 3d 00 00 00 00 	lea    0x0(%rip),%rdi        # 930d <stest_create_find_publish_node+0x1dd>
    930d:	e8 00 00 00 00       	call   9312 <stest_create_find_publish_node+0x1e2>
    9312:	b8 fe ff ff ff       	mov    $0xfffffffe,%eax
    9317:	48 83 c4 30          	add    $0x30,%rsp
    931b:	eb 87                	jmp    92a4 <stest_create_find_publish_node+0x174>
    931d:	e8 00 00 00 00       	call   9322 <stest_create_find_publish_node+0x1f2>
    9322:	66 66 2e 0f 1f 84 00 	data16 cs nopw 0x0(%rax,%rax,1)
    9329:	00 00 00 00 
    932d:	0f 1f 00             	nopl   (%rax)

0000000000009330 <__pfx_ftest_create_delete_node>:
    9330:	90                   	nop
    9331:	90                   	nop
    9332:	90                   	nop
    9333:	90                   	nop
    9334:	90                   	nop
    9335:	90                   	nop
    9336:	90                   	nop
    9337:	90                   	nop
    9338:	90                   	nop
    9339:	90                   	nop
    933a:	90                   	nop
    933b:	90                   	nop
    933c:	90                   	nop
    933d:	90                   	nop
    933e:	90                   	nop
    933f:	90                   	nop

0000000000009340 <ftest_create_delete_node>:
    9340:	f3 0f 1e fa          	endbr64
    9344:	e8 00 00 00 00       	call   9349 <ftest_create_delete_node+0x9>
    9349:	55                   	push   %rbp
    934a:	be 0a 00 00 00       	mov    $0xa,%esi
    934f:	bf 14 00 00 00       	mov    $0x14,%edi
    9354:	48 b8 00 00 00 00 00 	movabs $0xdffffc0000000000,%rax
    935b:	fc ff df 
    935e:	48 89 e5             	mov    %rsp,%rbp
    9361:	41 55                	push   %r13
    9363:	41 54                	push   %r12
    9365:	4c 8d 6d 88          	lea    -0x78(%rbp),%r13
    9369:	48 8d 55 a8          	lea    -0x58(%rbp),%rdx
    936d:	53                   	push   %rbx
    936e:	49 c1 ed 03          	shr    $0x3,%r13
    9372:	4c 01 e8             	add    %r13,%rax
    9375:	48 83 ec 60          	sub    $0x60,%rsp
    9379:	48 c7 45 88 b3 8a b5 	movq   $0x41b58ab3,-0x78(%rbp)
    9380:	41 
    9381:	48 c7 45 90 00 00 00 	movq   $0x0,-0x70(%rbp)
    9388:	00 
    9389:	48 c7 45 98 00 00 00 	movq   $0x0,-0x68(%rbp)
    9390:	00 
    9391:	c7 00 f1 f1 f1 f1    	movl   $0xf1f1f1f1,(%rax)
    9397:	c7 40 04 00 f3 f3 f3 	movl   $0xf3f3f300,0x4(%rax)
    939e:	65 48 8b 04 25 28 00 	mov    %gs:0x28,%rax
    93a5:	00 00 
    93a7:	48 89 45 e0          	mov    %rax,-0x20(%rbp)
    93ab:	31 c0                	xor    %eax,%eax
    93ad:	48 c7 45 a8 00 00 00 	movq   $0x0,-0x58(%rbp)
    93b4:	00 
    93b5:	e8 00 00 00 00       	call   93ba <ftest_create_delete_node+0x7a>
    93ba:	48 8b 7d a8          	mov    -0x58(%rbp),%rdi
    93be:	48 89 c3             	mov    %rax,%rbx
    93c1:	41 89 c4             	mov    %eax,%r12d
    93c4:	e8 00 00 00 00       	call   93c9 <ftest_create_delete_node+0x89>
    93c9:	4c 8b 45 a8          	mov    -0x58(%rbp),%r8
    93cd:	89 c1                	mov    %eax,%ecx
    93cf:	09 d8                	or     %ebx,%eax
    93d1:	75 36                	jne    9409 <ftest_create_delete_node+0xc9>
    93d3:	4d 85 c0             	test   %r8,%r8
    93d6:	74 31                	je     9409 <ftest_create_delete_node+0xc9>
    93d8:	48 ba 00 00 00 00 00 	movabs $0xdffffc0000000000,%rdx
    93df:	fc ff df 
    93e2:	49 c7 44 15 00 00 00 	movq   $0x0,0x0(%r13,%rdx,1)
    93e9:	00 00 
    93eb:	48 8b 55 e0          	mov    -0x20(%rbp),%rdx
    93ef:	65 48 2b 14 25 28 00 	sub    %gs:0x28,%rdx
    93f6:	00 00 
    93f8:	75 2c                	jne    9426 <ftest_create_delete_node+0xe6>
    93fa:	48 83 c4 60          	add    $0x60,%rsp
    93fe:	5b                   	pop    %rbx
    93ff:	41 5c                	pop    %r12
    9401:	41 5d                	pop    %r13
    9403:	5d                   	pop    %rbp
    9404:	e9 00 00 00 00       	jmp    9409 <ftest_create_delete_node+0xc9>
    9409:	48 8b 35 00 00 00 00 	mov    0x0(%rip),%rsi        # 9410 <ftest_create_delete_node+0xd0>
    9410:	44 89 e2             	mov    %r12d,%edx
    9413:	48 8d 3d 00 00 00 00 	lea    0x0(%rip),%rdi        # 941a <ftest_create_delete_node+0xda>
    941a:	e8 00 00 00 00       	call   941f <ftest_create_delete_node+0xdf>
    941f:	b8 fe ff ff ff       	mov    $0xfffffffe,%eax
    9424:	eb b2                	jmp    93d8 <ftest_create_delete_node+0x98>
    9426:	e8 00 00 00 00       	call   942b <ftest_create_delete_node+0xeb>
    942b:	0f 1f 44 00 00       	nopl   0x0(%rax,%rax,1)

0000000000009430 <__pfx_ftest_delete_empty>:
    9430:	90                   	nop
    9431:	90                   	nop
    9432:	90                   	nop
    9433:	90                   	nop
    9434:	90                   	nop
    9435:	90                   	nop
    9436:	90                   	nop
    9437:	90                   	nop
    9438:	90                   	nop
    9439:	90                   	nop
    943a:	90                   	nop
    943b:	90                   	nop
    943c:	90                   	nop
    943d:	90                   	nop
    943e:	90                   	nop
    943f:	90                   	nop

0000000000009440 <ftest_delete_empty>:
    9440:	f3 0f 1e fa          	endbr64
    9444:	e8 00 00 00 00       	call   9449 <ftest_delete_empty+0x9>
    9449:	55                   	push   %rbp
    944a:	bf fd 90 bd 00       	mov    $0xbd90fd,%edi
    944f:	48 89 e5             	mov    %rsp,%rbp
    9452:	e8 00 00 00 00       	call   9457 <ftest_delete_empty+0x17>
    9457:	85 c0                	test   %eax,%eax
    9459:	74 08                	je     9463 <ftest_delete_empty+0x23>
    945b:	31 c0                	xor    %eax,%eax
    945d:	5d                   	pop    %rbp
    945e:	e9 00 00 00 00       	jmp    9463 <ftest_delete_empty+0x23>
    9463:	48 8b 35 00 00 00 00 	mov    0x0(%rip),%rsi        # 946a <ftest_delete_empty+0x2a>
    946a:	31 d2                	xor    %edx,%edx
    946c:	48 8d 3d 00 00 00 00 	lea    0x0(%rip),%rdi        # 9473 <ftest_delete_empty+0x33>
    9473:	e8 00 00 00 00       	call   9478 <ftest_delete_empty+0x38>
    9478:	b8 fe ff ff ff       	mov    $0xfffffffe,%eax
    947d:	5d                   	pop    %rbp
    947e:	e9 00 00 00 00       	jmp    9483 <ftest_delete_empty+0x43>
    9483:	66 66 2e 0f 1f 84 00 	data16 cs nopw 0x0(%rax,%rax,1)
    948a:	00 00 00 00 
    948e:	66 90                	xchg   %ax,%ax

0000000000009490 <__pfx_ftest_publish_doubled>:
    9490:	90                   	nop
    9491:	90                   	nop
    9492:	90                   	nop
    9493:	90                   	nop
    9494:	90                   	nop
    9495:	90                   	nop
    9496:	90                   	nop
    9497:	90                   	nop
    9498:	90                   	nop
    9499:	90                   	nop
    949a:	90                   	nop
    949b:	90                   	nop
    949c:	90                   	nop
    949d:	90                   	nop
    949e:	90                   	nop
    949f:	90                   	nop

00000000000094a0 <ftest_publish_doubled>:
    94a0:	f3 0f 1e fa          	endbr64
    94a4:	e8 00 00 00 00       	call   94a9 <ftest_publish_doubled+0x9>
    94a9:	55                   	push   %rbp
    94aa:	be 0a 00 00 00       	mov    $0xa,%esi
    94af:	bf 1e 00 00 00       	mov    $0x1e,%edi
    94b4:	48 b8 00 00 00 00 00 	movabs $0xdffffc0000000000,%rax
    94bb:	fc ff df 
    94be:	48 89 e5             	mov    %rsp,%rbp
    94c1:	41 57                	push   %r15
    94c3:	41 56                	push   %r14
    94c5:	4c 8d b5 78 ff ff ff 	lea    -0x88(%rbp),%r14
    94cc:	48 8d 55 98          	lea    -0x68(%rbp),%rdx
    94d0:	41 55                	push   %r13
    94d2:	49 c1 ee 03          	shr    $0x3,%r14
    94d6:	41 54                	push   %r12
    94d8:	4c 01 f0             	add    %r14,%rax
    94db:	53                   	push   %rbx
    94dc:	48 83 ec 68          	sub    $0x68,%rsp
    94e0:	48 c7 45 80 00 00 00 	movq   $0x0,-0x80(%rbp)
    94e7:	00 
    94e8:	48 c7 85 78 ff ff ff 	movq   $0x41b58ab3,-0x88(%rbp)
    94ef:	b3 8a b5 41 
    94f3:	48 c7 45 88 00 00 00 	movq   $0x0,-0x78(%rbp)
    94fa:	00 
    94fb:	c7 00 f1 f1 f1 f1    	movl   $0xf1f1f1f1,(%rax)
    9501:	c7 40 04 00 f3 f3 f3 	movl   $0xf3f3f300,0x4(%rax)
    9508:	65 48 8b 04 25 28 00 	mov    %gs:0x28,%rax
    950f:	00 00 
    9511:	48 89 45 d0          	mov    %rax,-0x30(%rbp)
    9515:	31 c0                	xor    %eax,%eax
    9517:	48 c7 45 98 00 00 00 	movq   $0x0,-0x68(%rbp)
    951e:	00 
    951f:	e8 00 00 00 00       	call   9524 <ftest_publish_doubled+0x84>
    9524:	48 8b 7d 98          	mov    -0x68(%rbp),%rdi
    9528:	49 89 c7             	mov    %rax,%r15
    952b:	89 85 74 ff ff ff    	mov    %eax,-0x8c(%rbp)
    9531:	e8 00 00 00 00       	call   9536 <ftest_publish_doubled+0x96>
    9536:	48 8b 7d 98          	mov    -0x68(%rbp),%rdi
    953a:	48 89 c3             	mov    %rax,%rbx
    953d:	41 89 c5             	mov    %eax,%r13d
    9540:	e8 00 00 00 00       	call   9545 <ftest_publish_doubled+0xa5>
    9545:	48 8b 7d 98          	mov    -0x68(%rbp),%rdi
    9549:	44 09 fb             	or     %r15d,%ebx
    954c:	49 89 c4             	mov    %rax,%r12
    954f:	e8 00 00 00 00       	call   9554 <ftest_publish_doubled+0xb4>
    9554:	48 8b 55 98          	mov    -0x68(%rbp),%rdx
    9558:	49 89 c1             	mov    %rax,%r9
    955b:	89 d8                	mov    %ebx,%eax
    955d:	44 09 c8             	or     %r9d,%eax
    9560:	75 3e                	jne    95a0 <ftest_publish_doubled+0x100>
    9562:	45 85 e4             	test   %r12d,%r12d
    9565:	74 39                	je     95a0 <ftest_publish_doubled+0x100>
    9567:	48 85 d2             	test   %rdx,%rdx
    956a:	74 34                	je     95a0 <ftest_publish_doubled+0x100>
    956c:	48 ba 00 00 00 00 00 	movabs $0xdffffc0000000000,%rdx
    9573:	fc ff df 
    9576:	49 c7 04 16 00 00 00 	movq   $0x0,(%r14,%rdx,1)
    957d:	00 
    957e:	48 8b 55 d0          	mov    -0x30(%rbp),%rdx
    9582:	65 48 2b 14 25 28 00 	sub    %gs:0x28,%rdx
    9589:	00 00 
    958b:	75 3b                	jne    95c8 <ftest_publish_doubled+0x128>
    958d:	48 8d 65 d8          	lea    -0x28(%rbp),%rsp
    9591:	5b                   	pop    %rbx
    9592:	41 5c                	pop    %r12
    9594:	41 5d                	pop    %r13
    9596:	41 5e                	pop    %r14
    9598:	41 5f                	pop    %r15
    959a:	5d                   	pop    %rbp
    959b:	e9 00 00 00 00       	jmp    95a0 <ftest_publish_doubled+0x100>
    95a0:	52                   	push   %rdx
    95a1:	48 8b 35 00 00 00 00 	mov    0x0(%rip),%rsi        # 95a8 <ftest_publish_doubled+0x108>
    95a8:	45 89 e0             	mov    %r12d,%r8d
    95ab:	44 89 e9             	mov    %r13d,%ecx
    95ae:	8b 95 74 ff ff ff    	mov    -0x8c(%rbp),%edx
    95b4:	48 8d 3d 00 00 00 00 	lea    0x0(%rip),%rdi        # 95bb <ftest_publish_doubled+0x11b>
    95bb:	e8 00 00 00 00       	call   95c0 <ftest_publish_doubled+0x120>
    95c0:	58                   	pop    %rax
    95c1:	b8 fe ff ff ff       	mov    $0xfffffffe,%eax
    95c6:	eb a4                	jmp    956c <ftest_publish_doubled+0xcc>
    95c8:	e8 00 00 00 00       	call   95cd <ftest_publish_doubled+0x12d>
    95cd:	0f 1f 00             	nopl   (%rax)

00000000000095d0 <__pfx_ftest_publish_unpublish>:
    95d0:	90                   	nop
    95d1:	90                   	nop
    95d2:	90                   	nop
    95d3:	90                   	nop
    95d4:	90                   	nop
    95d5:	90                   	nop
    95d6:	90                   	nop
    95d7:	90                   	nop
    95d8:	90                   	nop
    95d9:	90                   	nop
    95da:	90                   	nop
    95db:	90                   	nop
    95dc:	90                   	nop
    95dd:	90                   	nop
    95de:	90                   	nop
    95df:	90                   	nop

00000000000095e0 <ftest_publish_unpublish>:
    95e0:	f3 0f 1e fa          	endbr64
    95e4:	e8 00 00 00 00       	call   95e9 <ftest_publish_unpublish+0x9>
    95e9:	55                   	push   %rbp
    95ea:	be 0a 00 00 00       	mov    $0xa,%esi
    95ef:	bf 1e 00 00 00       	mov    $0x1e,%edi
    95f4:	48 b8 00 00 00 00 00 	movabs $0xdffffc0000000000,%rax
    95fb:	fc ff df 
    95fe:	48 89 e5             	mov    %rsp,%rbp
    9601:	41 57                	push   %r15
    9603:	41 56                	push   %r14
    9605:	4c 8d b5 78 ff ff ff 	lea    -0x88(%rbp),%r14
    960c:	48 8d 55 98          	lea    -0x68(%rbp),%rdx
    9610:	41 55                	push   %r13
    9612:	49 c1 ee 03          	shr    $0x3,%r14
    9616:	41 54                	push   %r12
    9618:	4c 01 f0             	add    %r14,%rax
    961b:	53                   	push   %rbx
    961c:	48 83 ec 68          	sub    $0x68,%rsp
    9620:	48 c7 45 80 00 00 00 	movq   $0x0,-0x80(%rbp)
    9627:	00 
    9628:	48 c7 85 78 ff ff ff 	movq   $0x41b58ab3,-0x88(%rbp)
    962f:	b3 8a b5 41 
    9633:	48 c7 45 88 00 00 00 	movq   $0x0,-0x78(%rbp)
    963a:	00 
    963b:	c7 00 f1 f1 f1 f1    	movl   $0xf1f1f1f1,(%rax)
    9641:	c7 40 04 00 f3 f3 f3 	movl   $0xf3f3f300,0x4(%rax)
    9648:	65 48 8b 04 25 28 00 	mov    %gs:0x28,%rax
    964f:	00 00 
    9651:	48 89 45 d0          	mov    %rax,-0x30(%rbp)
    9655:	31 c0                	xor    %eax,%eax
    9657:	48 c7 45 98 00 00 00 	movq   $0x0,-0x68(%rbp)
    965e:	00 
    965f:	e8 00 00 00 00       	call   9664 <ftest_publish_unpublish+0x84>
    9664:	48 8b 7d 98          	mov    -0x68(%rbp),%rdi
    9668:	49 89 c7             	mov    %rax,%r15
    966b:	89 85 74 ff ff ff    	mov    %eax,-0x8c(%rbp)
    9671:	e8 00 00 00 00       	call   9676 <ftest_publish_unpublish+0x96>
    9676:	48 8b 7d 98          	mov    -0x68(%rbp),%rdi
    967a:	48 89 c3             	mov    %rax,%rbx
    967d:	41 89 c5             	mov    %eax,%r13d
    9680:	e8 00 00 00 00       	call   9685 <ftest_publish_unpublish+0xa5>
    9685:	48 8b 7d 98          	mov    -0x68(%rbp),%rdi
    9689:	44 09 fb             	or     %r15d,%ebx
    968c:	49 89 c4             	mov    %rax,%r12
    968f:	e8 00 00 00 00       	call   9694 <ftest_publish_unpublish+0xb4>
    9694:	44 09 e3             	or     %r12d,%ebx
    9697:	48 8b 55 98          	mov    -0x68(%rbp),%rdx
    969b:	49 89 c1             	mov    %rax,%r9
    969e:	89 d8                	mov    %ebx,%eax
    96a0:	44 09 c8             	or     %r9d,%eax
    96a3:	75 39                	jne    96de <ftest_publish_unpublish+0xfe>
    96a5:	48 85 d2             	test   %rdx,%rdx
    96a8:	74 34                	je     96de <ftest_publish_unpublish+0xfe>
    96aa:	48 ba 00 00 00 00 00 	movabs $0xdffffc0000000000,%rdx
    96b1:	fc ff df 
    96b4:	49 c7 04 16 00 00 00 	movq   $0x0,(%r14,%rdx,1)
    96bb:	00 
    96bc:	48 8b 55 d0          	mov    -0x30(%rbp),%rdx
    96c0:	65 48 2b 14 25 28 00 	sub    %gs:0x28,%rdx
    96c7:	00 00 
    96c9:	75 3b                	jne    9706 <ftest_publish_unpublish+0x126>
    96cb:	48 8d 65 d8          	lea    -0x28(%rbp),%rsp
    96cf:	5b                   	pop    %rbx
    96d0:	41 5c                	pop    %r12
    96d2:	41 5d                	pop    %r13
    96d4:	41 5e                	pop    %r14
    96d6:	41 5f                	pop    %r15
    96d8:	5d                   	pop    %rbp
    96d9:	e9 00 00 00 00       	jmp    96de <ftest_publish_unpublish+0xfe>
    96de:	52                   	push   %rdx
    96df:	48 8b 35 00 00 00 00 	mov    0x0(%rip),%rsi        # 96e6 <ftest_publish_unpublish+0x106>
    96e6:	45 89 e0             	mov    %r12d,%r8d
    96e9:	44 89 e9             	mov    %r13d,%ecx
    96ec:	8b 95 74 ff ff ff    	mov    -0x8c(%rbp),%edx
    96f2:	48 8d 3d 00 00 00 00 	lea    0x0(%rip),%rdi        # 96f9 <ftest_publish_unpublish+0x119>
    96f9:	e8 00 00 00 00       	call   96fe <ftest_publish_unpublish+0x11e>
    96fe:	58                   	pop    %rax
    96ff:	b8 fe ff ff ff       	mov    $0xfffffffe,%eax
    9704:	eb a4                	jmp    96aa <ftest_publish_unpublish+0xca>
    9706:	e8 00 00 00 00       	call   970b <ftest_publish_unpublish+0x12b>
    970b:	0f 1f 44 00 00       	nopl   0x0(%rax,%rax,1)

0000000000009710 <__pfx_ftest_publish_unpublished_deleted>:
    9710:	90                   	nop
    9711:	90                   	nop
    9712:	90                   	nop
    9713:	90                   	nop
    9714:	90                   	nop
    9715:	90                   	nop
    9716:	90                   	nop
    9717:	90                   	nop
    9718:	90                   	nop
    9719:	90                   	nop
    971a:	90                   	nop
    971b:	90                   	nop
    971c:	90                   	nop
    971d:	90                   	nop
    971e:	90                   	nop
    971f:	90                   	nop

0000000000009720 <ftest_publish_unpublished_deleted>:
    9720:	f3 0f 1e fa          	endbr64
    9724:	e8 00 00 00 00       	call   9729 <ftest_publish_unpublished_deleted+0x9>
    9729:	55                   	push   %rbp
    972a:	be 0a 00 00 00       	mov    $0xa,%esi
    972f:	bf 1e 00 00 00       	mov    $0x1e,%edi
    9734:	48 b8 00 00 00 00 00 	movabs $0xdffffc0000000000,%rax
    973b:	fc ff df 
    973e:	48 89 e5             	mov    %rsp,%rbp
    9741:	41 57                	push   %r15
    9743:	41 56                	push   %r14
    9745:	4c 8d bd 78 ff ff ff 	lea    -0x88(%rbp),%r15
    974c:	48 8d 55 98          	lea    -0x68(%rbp),%rdx
    9750:	41 55                	push   %r13
    9752:	49 c1 ef 03          	shr    $0x3,%r15
    9756:	41 54                	push   %r12
    9758:	4c 01 f8             	add    %r15,%rax
    975b:	53                   	push   %rbx
    975c:	48 83 ec 68          	sub    $0x68,%rsp
    9760:	48 c7 45 80 00 00 00 	movq   $0x0,-0x80(%rbp)
    9767:	00 
    9768:	48 c7 85 78 ff ff ff 	movq   $0x41b58ab3,-0x88(%rbp)
    976f:	b3 8a b5 41 
    9773:	48 c7 45 88 00 00 00 	movq   $0x0,-0x78(%rbp)
    977a:	00 
    977b:	c7 00 f1 f1 f1 f1    	movl   $0xf1f1f1f1,(%rax)
    9781:	c7 40 04 00 f3 f3 f3 	movl   $0xf3f3f300,0x4(%rax)
    9788:	65 48 8b 04 25 28 00 	mov    %gs:0x28,%rax
    978f:	00 00 
    9791:	48 89 45 d0          	mov    %rax,-0x30(%rbp)
    9795:	31 c0                	xor    %eax,%eax
    9797:	48 c7 45 98 00 00 00 	movq   $0x0,-0x68(%rbp)
    979e:	00 
    979f:	e8 00 00 00 00       	call   97a4 <ftest_publish_unpublished_deleted+0x84>
    97a4:	48 8b 7d 98          	mov    -0x68(%rbp),%rdi
    97a8:	89 85 74 ff ff ff    	mov    %eax,-0x8c(%rbp)
    97ae:	49 89 c4             	mov    %rax,%r12
    97b1:	e8 00 00 00 00       	call   97b6 <ftest_publish_unpublished_deleted+0x96>
    97b6:	48 8b 7d 98          	mov    -0x68(%rbp),%rdi
    97ba:	48 89 c3             	mov    %rax,%rbx
    97bd:	41 89 c6             	mov    %eax,%r14d
    97c0:	e8 00 00 00 00       	call   97c5 <ftest_publish_unpublished_deleted+0xa5>
    97c5:	48 8b 7d 98          	mov    -0x68(%rbp),%rdi
    97c9:	49 89 c5             	mov    %rax,%r13
    97cc:	e8 00 00 00 00       	call   97d1 <ftest_publish_unpublished_deleted+0xb1>
    97d1:	48 8b 55 98          	mov    -0x68(%rbp),%rdx
    97d5:	49 89 c1             	mov    %rax,%r9
    97d8:	89 d8                	mov    %ebx,%eax
    97da:	44 09 e0             	or     %r12d,%eax
    97dd:	75 43                	jne    9822 <ftest_publish_unpublished_deleted+0x102>
    97df:	45 85 ed             	test   %r13d,%r13d
    97e2:	74 3e                	je     9822 <ftest_publish_unpublished_deleted+0x102>
    97e4:	45 85 c9             	test   %r9d,%r9d
    97e7:	74 39                	je     9822 <ftest_publish_unpublished_deleted+0x102>
    97e9:	48 85 d2             	test   %rdx,%rdx
    97ec:	74 34                	je     9822 <ftest_publish_unpublished_deleted+0x102>
    97ee:	48 ba 00 00 00 00 00 	movabs $0xdffffc0000000000,%rdx
    97f5:	fc ff df 
    97f8:	49 c7 04 17 00 00 00 	movq   $0x0,(%r15,%rdx,1)
    97ff:	00 
    9800:	48 8b 55 d0          	mov    -0x30(%rbp),%rdx
    9804:	65 48 2b 14 25 28 00 	sub    %gs:0x28,%rdx
    980b:	00 00 
    980d:	75 3b                	jne    984a <ftest_publish_unpublished_deleted+0x12a>
    980f:	48 8d 65 d8          	lea    -0x28(%rbp),%rsp
    9813:	5b                   	pop    %rbx
    9814:	41 5c                	pop    %r12
    9816:	41 5d                	pop    %r13
    9818:	41 5e                	pop    %r14
    981a:	41 5f                	pop    %r15
    981c:	5d                   	pop    %rbp
    981d:	e9 00 00 00 00       	jmp    9822 <ftest_publish_unpublished_deleted+0x102>
    9822:	52                   	push   %rdx
    9823:	48 8b 35 00 00 00 00 	mov    0x0(%rip),%rsi        # 982a <ftest_publish_unpublished_deleted+0x10a>
    982a:	45 89 e8             	mov    %r13d,%r8d
    982d:	44 89 f1             	mov    %r14d,%ecx
    9830:	8b 95 74 ff ff ff    	mov    -0x8c(%rbp),%edx
    9836:	48 8d 3d 00 00 00 00 	lea    0x0(%rip),%rdi        # 983d <ftest_publish_unpublished_deleted+0x11d>
    983d:	e8 00 00 00 00       	call   9842 <ftest_publish_unpublished_deleted+0x122>
    9842:	58                   	pop    %rax
    9843:	b8 fe ff ff ff       	mov    $0xfffffffe,%eax
    9848:	eb a4                	jmp    97ee <ftest_publish_unpublished_deleted+0xce>
    984a:	e8 00 00 00 00       	call   984f <ftest_publish_unpublished_deleted+0x12f>
    984f:	90                   	nop

0000000000009850 <__pfx_ftest_unpublish_after_delete>:
    9850:	90                   	nop
    9851:	90                   	nop
    9852:	90                   	nop
    9853:	90                   	nop
    9854:	90                   	nop
    9855:	90                   	nop
    9856:	90                   	nop
    9857:	90                   	nop
    9858:	90                   	nop
    9859:	90                   	nop
    985a:	90                   	nop
    985b:	90                   	nop
    985c:	90                   	nop
    985d:	90                   	nop
    985e:	90                   	nop
    985f:	90                   	nop

0000000000009860 <ftest_unpublish_after_delete>:
    9860:	f3 0f 1e fa          	endbr64
    9864:	e8 00 00 00 00       	call   9869 <ftest_unpublish_after_delete+0x9>
    9869:	55                   	push   %rbp
    986a:	be 0a 00 00 00       	mov    $0xa,%esi
    986f:	bf 02 00 00 00       	mov    $0x2,%edi
    9874:	48 b8 00 00 00 00 00 	movabs $0xdffffc0000000000,%rax
    987b:	fc ff df 
    987e:	48 89 e5             	mov    %rsp,%rbp
    9881:	41 57                	push   %r15
    9883:	41 56                	push   %r14
    9885:	4c 8d bd 78 ff ff ff 	lea    -0x88(%rbp),%r15
    988c:	48 8d 55 98          	lea    -0x68(%rbp),%rdx
    9890:	41 55                	push   %r13
    9892:	49 c1 ef 03          	shr    $0x3,%r15
    9896:	41 54                	push   %r12
    9898:	4c 01 f8             	add    %r15,%rax
    989b:	53                   	push   %rbx
    989c:	48 83 ec 68          	sub    $0x68,%rsp
    98a0:	48 c7 45 80 00 00 00 	movq   $0x0,-0x80(%rbp)
    98a7:	00 
    98a8:	48 c7 85 78 ff ff ff 	movq   $0x41b58ab3,-0x88(%rbp)
    98af:	b3 8a b5 41 
    98b3:	48 c7 45 88 00 00 00 	movq   $0x0,-0x78(%rbp)
    98ba:	00 
    98bb:	c7 00 f1 f1 f1 f1    	movl   $0xf1f1f1f1,(%rax)
    98c1:	c7 40 04 00 f3 f3 f3 	movl   $0xf3f3f300,0x4(%rax)
    98c8:	65 48 8b 04 25 28 00 	mov    %gs:0x28,%rax
    98cf:	00 00 
    98d1:	48 89 45 d0          	mov    %rax,-0x30(%rbp)
    98d5:	31 c0                	xor    %eax,%eax
    98d7:	48 c7 45 98 00 00 00 	movq   $0x0,-0x68(%rbp)
    98de:	00 
    98df:	e8 00 00 00 00       	call   98e4 <ftest_unpublish_after_delete+0x84>
    98e4:	48 8b 7d 98          	mov    -0x68(%rbp),%rdi
    98e8:	49 89 c5             	mov    %rax,%r13
    98eb:	89 85 74 ff ff ff    	mov    %eax,-0x8c(%rbp)
    98f1:	e8 00 00 00 00       	call   98f6 <ftest_unpublish_after_delete+0x96>
    98f6:	48 8b 7d 98          	mov    -0x68(%rbp),%rdi
    98fa:	48 89 c3             	mov    %rax,%rbx
    98fd:	41 89 c6             	mov    %eax,%r14d
    9900:	e8 00 00 00 00       	call   9905 <ftest_unpublish_after_delete+0xa5>
    9905:	48 8b 7d 98          	mov    -0x68(%rbp),%rdi
    9909:	44 09 eb             	or     %r13d,%ebx
    990c:	49 89 c4             	mov    %rax,%r12
    990f:	e8 00 00 00 00       	call   9914 <ftest_unpublish_after_delete+0xb4>
    9914:	44 09 e3             	or     %r12d,%ebx
    9917:	48 8b 55 98          	mov    -0x68(%rbp),%rdx
    991b:	75 43                	jne    9960 <ftest_unpublish_after_delete+0x100>
    991d:	85 c0                	test   %eax,%eax
    991f:	74 3f                	je     9960 <ftest_unpublish_after_delete+0x100>
    9921:	48 85 d2             	test   %rdx,%rdx
    9924:	74 3a                	je     9960 <ftest_unpublish_after_delete+0x100>
    9926:	45 31 c0             	xor    %r8d,%r8d
    9929:	48 b8 00 00 00 00 00 	movabs $0xdffffc0000000000,%rax
    9930:	fc ff df 
    9933:	49 c7 04 07 00 00 00 	movq   $0x0,(%r15,%rax,1)
    993a:	00 
    993b:	48 8b 45 d0          	mov    -0x30(%rbp),%rax
    993f:	65 48 2b 04 25 28 00 	sub    %gs:0x28,%rax
    9946:	00 00 
    9948:	75 42                	jne    998c <ftest_unpublish_after_delete+0x12c>
    994a:	48 8d 65 d8          	lea    -0x28(%rbp),%rsp
    994e:	44 89 c0             	mov    %r8d,%eax
    9951:	5b                   	pop    %rbx
    9952:	41 5c                	pop    %r12
    9954:	41 5d                	pop    %r13
    9956:	41 5e                	pop    %r14
    9958:	41 5f                	pop    %r15
    995a:	5d                   	pop    %rbp
    995b:	e9 00 00 00 00       	jmp    9960 <ftest_unpublish_after_delete+0x100>
    9960:	52                   	push   %rdx
    9961:	48 8b 35 00 00 00 00 	mov    0x0(%rip),%rsi        # 9968 <ftest_unpublish_after_delete+0x108>
    9968:	45 89 e0             	mov    %r12d,%r8d
    996b:	41 89 c1             	mov    %eax,%r9d
    996e:	8b 95 74 ff ff ff    	mov    -0x8c(%rbp),%edx
    9974:	44 89 f1             	mov    %r14d,%ecx
    9977:	48 8d 3d 00 00 00 00 	lea    0x0(%rip),%rdi        # 997e <ftest_unpublish_after_delete+0x11e>
    997e:	e8 00 00 00 00       	call   9983 <ftest_unpublish_after_delete+0x123>
    9983:	41 b8 fe ff ff ff    	mov    $0xfffffffe,%r8d
    9989:	58                   	pop    %rax
    998a:	eb 9d                	jmp    9929 <ftest_unpublish_after_delete+0xc9>
    998c:	e8 00 00 00 00       	call   9991 <ftest_unpublish_after_delete+0x131>
    9991:	66 66 2e 0f 1f 84 00 	data16 cs nopw 0x0(%rax,%rax,1)
    9998:	00 00 00 00 
    999c:	0f 1f 40 00          	nopl   0x0(%rax)

00000000000099a0 <__pfx_ftest_subscribe_unsubscribe>:
    99a0:	90                   	nop
    99a1:	90                   	nop
    99a2:	90                   	nop
    99a3:	90                   	nop
    99a4:	90                   	nop
    99a5:	90                   	nop
    99a6:	90                   	nop
    99a7:	90                   	nop
    99a8:	90                   	nop
    99a9:	90                   	nop
    99aa:	90                   	nop
    99ab:	90                   	nop
    99ac:	90                   	nop
    99ad:	90                   	nop
    99ae:	90                   	nop
    99af:	90                   	nop

00000000000099b0 <ftest_subscribe_unsubscribe>:
    99b0:	f3 0f 1e fa          	endbr64
    99b4:	e8 00 00 00 00       	call   99b9 <ftest_subscribe_unsubscribe+0x9>
    99b9:	55                   	push   %rbp
    99ba:	be 0a 00 00 00       	mov    $0xa,%esi
    99bf:	bf 1e 00 00 00       	mov    $0x1e,%edi
    99c4:	48 b8 00 00 00 00 00 	movabs $0xdffffc0000000000,%rax
    99cb:	fc ff df 
    99ce:	48 89 e5             	mov    %rsp,%rbp
    99d1:	41 57                	push   %r15
    99d3:	41 56                	push   %r14
    99d5:	4c 8d b5 78 ff ff ff 	lea    -0x88(%rbp),%r14
    99dc:	48 8d 55 98          	lea    -0x68(%rbp),%rdx
    99e0:	41 55                	push   %r13
    99e2:	49 c1 ee 03          	shr    $0x3,%r14
    99e6:	41 54                	push   %r12
    99e8:	4c 01 f0             	add    %r14,%rax
    99eb:	53                   	push   %rbx
    99ec:	48 83 ec 68          	sub    $0x68,%rsp
    99f0:	48 c7 45 80 00 00 00 	movq   $0x0,-0x80(%rbp)
    99f7:	00 
    99f8:	48 c7 85 78 ff ff ff 	movq   $0x41b58ab3,-0x88(%rbp)
    99ff:	b3 8a b5 41 
    9a03:	48 c7 45 88 00 00 00 	movq   $0x0,-0x78(%rbp)
    9a0a:	00 
    9a0b:	c7 00 f1 f1 f1 f1    	movl   $0xf1f1f1f1,(%rax)
    9a11:	c7 40 04 00 f3 f3 f3 	movl   $0xf3f3f300,0x4(%rax)
    9a18:	65 48 8b 04 25 28 00 	mov    %gs:0x28,%rax
    9a1f:	00 00 
    9a21:	48 89 45 d0          	mov    %rax,-0x30(%rbp)
    9a25:	31 c0                	xor    %eax,%eax
    9a27:	48 c7 45 98 00 00 00 	movq   $0x0,-0x68(%rbp)
    9a2e:	00 
    9a2f:	e8 00 00 00 00       	call   9a34 <ftest_subscribe_unsubscribe+0x84>
    9a34:	48 8b 7d 98          	mov    -0x68(%rbp),%rdi
    9a38:	49 89 c7             	mov    %rax,%r15
    9a3b:	89 85 74 ff ff ff    	mov    %eax,-0x8c(%rbp)
    9a41:	e8 00 00 00 00       	call   9a46 <ftest_subscribe_unsubscribe+0x96>
    9a46:	48 8b 7d 98          	mov    -0x68(%rbp),%rdi
    9a4a:	48 89 c3             	mov    %rax,%rbx
    9a4d:	41 89 c5             	mov    %eax,%r13d
    9a50:	e8 00 00 00 00       	call   9a55 <ftest_subscribe_unsubscribe+0xa5>
    9a55:	48 8b 7d 98          	mov    -0x68(%rbp),%rdi
    9a59:	44 09 fb             	or     %r15d,%ebx
    9a5c:	49 89 c4             	mov    %rax,%r12
    9a5f:	e8 00 00 00 00       	call   9a64 <ftest_subscribe_unsubscribe+0xb4>
    9a64:	44 09 e3             	or     %r12d,%ebx
    9a67:	48 8b 55 98          	mov    -0x68(%rbp),%rdx
    9a6b:	49 89 c1             	mov    %rax,%r9
    9a6e:	89 d8                	mov    %ebx,%eax
    9a70:	44 09 c8             	or     %r9d,%eax
    9a73:	75 39                	jne    9aae <ftest_subscribe_unsubscribe+0xfe>
    9a75:	48 85 d2             	test   %rdx,%rdx
    9a78:	74 34                	je     9aae <ftest_subscribe_unsubscribe+0xfe>
    9a7a:	48 ba 00 00 00 00 00 	movabs $0xdffffc0000000000,%rdx
    9a81:	fc ff df 
    9a84:	49 c7 04 16 00 00 00 	movq   $0x0,(%r14,%rdx,1)
    9a8b:	00 
    9a8c:	48 8b 55 d0          	mov    -0x30(%rbp),%rdx
    9a90:	65 48 2b 14 25 28 00 	sub    %gs:0x28,%rdx
    9a97:	00 00 
    9a99:	75 3b                	jne    9ad6 <ftest_subscribe_unsubscribe+0x126>
    9a9b:	48 8d 65 d8          	lea    -0x28(%rbp),%rsp
    9a9f:	5b                   	pop    %rbx
    9aa0:	41 5c                	pop    %r12
    9aa2:	41 5d                	pop    %r13
    9aa4:	41 5e                	pop    %r14
    9aa6:	41 5f                	pop    %r15
    9aa8:	5d                   	pop    %rbp
    9aa9:	e9 00 00 00 00       	jmp    9aae <ftest_subscribe_unsubscribe+0xfe>
    9aae:	52                   	push   %rdx
    9aaf:	48 8b 35 00 00 00 00 	mov    0x0(%rip),%rsi        # 9ab6 <ftest_subscribe_unsubscribe+0x106>
    9ab6:	45 89 e0             	mov    %r12d,%r8d
    9ab9:	44 89 e9             	mov    %r13d,%ecx
    9abc:	8b 95 74 ff ff ff    	mov    -0x8c(%rbp),%edx
    9ac2:	48 8d 3d 00 00 00 00 	lea    0x0(%rip),%rdi        # 9ac9 <ftest_subscribe_unsubscribe+0x119>
    9ac9:	e8 00 00 00 00       	call   9ace <ftest_subscribe_unsubscribe+0x11e>
    9ace:	58                   	pop    %rax
    9acf:	b8 fe ff ff ff       	mov    $0xfffffffe,%eax
    9ad4:	eb a4                	jmp    9a7a <ftest_subscribe_unsubscribe+0xca>
    9ad6:	e8 00 00 00 00       	call   9adb <ftest_subscribe_unsubscribe+0x12b>
    9adb:	0f 1f 44 00 00       	nopl   0x0(%rax,%rax,1)

0000000000009ae0 <__pfx_ftest_subscribe_unsubscribe_deleted>:
    9ae0:	90                   	nop
    9ae1:	90                   	nop
    9ae2:	90                   	nop
    9ae3:	90                   	nop
    9ae4:	90                   	nop
    9ae5:	90                   	nop
    9ae6:	90                   	nop
    9ae7:	90                   	nop
    9ae8:	90                   	nop
    9ae9:	90                   	nop
    9aea:	90                   	nop
    9aeb:	90                   	nop
    9aec:	90                   	nop
    9aed:	90                   	nop
    9aee:	90                   	nop
    9aef:	90                   	nop

0000000000009af0 <ftest_subscribe_unsubscribe_deleted>:
    9af0:	f3 0f 1e fa          	endbr64
    9af4:	e8 00 00 00 00       	call   9af9 <ftest_subscribe_unsubscribe_deleted+0x9>
    9af9:	55                   	push   %rbp
    9afa:	be 0a 00 00 00       	mov    $0xa,%esi
    9aff:	bf 1e 00 00 00       	mov    $0x1e,%edi
    9b04:	48 b8 00 00 00 00 00 	movabs $0xdffffc0000000000,%rax
    9b0b:	fc ff df 
    9b0e:	48 89 e5             	mov    %rsp,%rbp
    9b11:	41 57                	push   %r15
    9b13:	41 56                	push   %r14
    9b15:	4c 8d b5 78 ff ff ff 	lea    -0x88(%rbp),%r14
    9b1c:	48 8d 55 98          	lea    -0x68(%rbp),%rdx
    9b20:	41 55                	push   %r13
    9b22:	49 c1 ee 03          	shr    $0x3,%r14
    9b26:	41 54                	push   %r12
    9b28:	4c 01 f0             	add    %r14,%rax
    9b2b:	53                   	push   %rbx
    9b2c:	48 83 ec 68          	sub    $0x68,%rsp
    9b30:	48 c7 45 80 00 00 00 	movq   $0x0,-0x80(%rbp)
    9b37:	00 
    9b38:	48 c7 85 78 ff ff ff 	movq   $0x41b58ab3,-0x88(%rbp)
    9b3f:	b3 8a b5 41 
    9b43:	48 c7 45 88 00 00 00 	movq   $0x0,-0x78(%rbp)
    9b4a:	00 
    9b4b:	c7 00 f1 f1 f1 f1    	movl   $0xf1f1f1f1,(%rax)
    9b51:	c7 40 04 00 f3 f3 f3 	movl   $0xf3f3f300,0x4(%rax)
    9b58:	65 48 8b 04 25 28 00 	mov    %gs:0x28,%rax
    9b5f:	00 00 
    9b61:	48 89 45 d0          	mov    %rax,-0x30(%rbp)
    9b65:	31 c0                	xor    %eax,%eax
    9b67:	48 c7 45 98 00 00 00 	movq   $0x0,-0x68(%rbp)
    9b6e:	00 
    9b6f:	e8 00 00 00 00       	call   9b74 <ftest_subscribe_unsubscribe_deleted+0x84>
    9b74:	48 8b 7d 98          	mov    -0x68(%rbp),%rdi
    9b78:	49 89 c5             	mov    %rax,%r13
    9b7b:	89 85 74 ff ff ff    	mov    %eax,-0x8c(%rbp)
    9b81:	e8 00 00 00 00       	call   9b86 <ftest_subscribe_unsubscribe_deleted+0x96>
    9b86:	48 8b 7d 98          	mov    -0x68(%rbp),%rdi
    9b8a:	48 89 c3             	mov    %rax,%rbx
    9b8d:	89 85 70 ff ff ff    	mov    %eax,-0x90(%rbp)
    9b93:	e8 00 00 00 00       	call   9b98 <ftest_subscribe_unsubscribe_deleted+0xa8>
    9b98:	48 8b 7d 98          	mov    -0x68(%rbp),%rdi
    9b9c:	44 09 eb             	or     %r13d,%ebx
    9b9f:	49 89 c7             	mov    %rax,%r15
    9ba2:	e8 00 00 00 00       	call   9ba7 <ftest_subscribe_unsubscribe_deleted+0xb7>
    9ba7:	48 8b 7d 98          	mov    -0x68(%rbp),%rdi
    9bab:	44 09 fb             	or     %r15d,%ebx
    9bae:	49 89 c4             	mov    %rax,%r12
    9bb1:	e8 00 00 00 00       	call   9bb6 <ftest_subscribe_unsubscribe_deleted+0xc6>
    9bb6:	44 09 e3             	or     %r12d,%ebx
    9bb9:	48 8b 4d 98          	mov    -0x68(%rbp),%rcx
    9bbd:	48 89 c2             	mov    %rax,%rdx
    9bc0:	89 d8                	mov    %ebx,%eax
    9bc2:	09 d0                	or     %edx,%eax
    9bc4:	75 39                	jne    9bff <ftest_subscribe_unsubscribe_deleted+0x10f>
    9bc6:	48 85 c9             	test   %rcx,%rcx
    9bc9:	74 34                	je     9bff <ftest_subscribe_unsubscribe_deleted+0x10f>
    9bcb:	48 ba 00 00 00 00 00 	movabs $0xdffffc0000000000,%rdx
    9bd2:	fc ff df 
    9bd5:	49 c7 04 16 00 00 00 	movq   $0x0,(%r14,%rdx,1)
    9bdc:	00 
    9bdd:	48 8b 55 d0          	mov    -0x30(%rbp),%rdx
    9be1:	65 48 2b 14 25 28 00 	sub    %gs:0x28,%rdx
    9be8:	00 00 
    9bea:	75 43                	jne    9c2f <ftest_subscribe_unsubscribe_deleted+0x13f>
    9bec:	48 8d 65 d8          	lea    -0x28(%rbp),%rsp
    9bf0:	5b                   	pop    %rbx
    9bf1:	41 5c                	pop    %r12
    9bf3:	41 5d                	pop    %r13
    9bf5:	41 5e                	pop    %r14
    9bf7:	41 5f                	pop    %r15
    9bf9:	5d                   	pop    %rbp
    9bfa:	e9 00 00 00 00       	jmp    9bff <ftest_subscribe_unsubscribe_deleted+0x10f>
    9bff:	51                   	push   %rcx
    9c00:	48 8b 35 00 00 00 00 	mov    0x0(%rip),%rsi        # 9c07 <ftest_subscribe_unsubscribe_deleted+0x117>
    9c07:	45 89 e1             	mov    %r12d,%r9d
    9c0a:	45 89 f8             	mov    %r15d,%r8d
    9c0d:	52                   	push   %rdx
    9c0e:	8b 8d 70 ff ff ff    	mov    -0x90(%rbp),%ecx
    9c14:	8b 95 74 ff ff ff    	mov    -0x8c(%rbp),%edx
    9c1a:	48 8d 3d 00 00 00 00 	lea    0x0(%rip),%rdi        # 9c21 <ftest_subscribe_unsubscribe_deleted+0x131>
    9c21:	e8 00 00 00 00       	call   9c26 <ftest_subscribe_unsubscribe_deleted+0x136>
    9c26:	58                   	pop    %rax
    9c27:	b8 fe ff ff ff       	mov    $0xfffffffe,%eax
    9c2c:	5a                   	pop    %rdx
    9c2d:	eb 9c                	jmp    9bcb <ftest_subscribe_unsubscribe_deleted+0xdb>
    9c2f:	e8 00 00 00 00       	call   9c34 <ftest_subscribe_unsubscribe_deleted+0x144>
    9c34:	66 66 2e 0f 1f 84 00 	data16 cs nopw 0x0(%rax,%rax,1)
    9c3b:	00 00 00 00 
    9c3f:	90                   	nop

0000000000009c40 <__pfx_ftest_send_without_publish>:
    9c40:	90                   	nop
    9c41:	90                   	nop
    9c42:	90                   	nop
    9c43:	90                   	nop
    9c44:	90                   	nop
    9c45:	90                   	nop
    9c46:	90                   	nop
    9c47:	90                   	nop
    9c48:	90                   	nop
    9c49:	90                   	nop
    9c4a:	90                   	nop
    9c4b:	90                   	nop
    9c4c:	90                   	nop
    9c4d:	90                   	nop
    9c4e:	90                   	nop
    9c4f:	90                   	nop

0000000000009c50 <ftest_send_without_publish>:
    9c50:	f3 0f 1e fa          	endbr64
    9c54:	e8 00 00 00 00       	call   9c59 <ftest_send_without_publish+0x9>
    9c59:	55                   	push   %rbp
    9c5a:	be 0a 00 00 00       	mov    $0xa,%esi
    9c5f:	bf 02 00 00 00       	mov    $0x2,%edi
    9c64:	48 b8 00 00 00 00 00 	movabs $0xdffffc0000000000,%rax
    9c6b:	fc ff df 
    9c6e:	48 89 e5             	mov    %rsp,%rbp
    9c71:	41 57                	push   %r15
    9c73:	41 56                	push   %r14
    9c75:	48 8d 95 78 ff ff ff 	lea    -0x88(%rbp),%rdx
    9c7c:	41 55                	push   %r13
    9c7e:	41 54                	push   %r12
    9c80:	53                   	push   %rbx
    9c81:	48 8d 9d 58 ff ff ff 	lea    -0xa8(%rbp),%rbx
    9c88:	48 c1 eb 03          	shr    $0x3,%rbx
    9c8c:	48 01 d8             	add    %rbx,%rax
    9c8f:	48 83 c4 80          	add    $0xffffffffffffff80,%rsp
    9c93:	48 c7 85 58 ff ff ff 	movq   $0x41b58ab3,-0xa8(%rbp)
    9c9a:	b3 8a b5 41 
    9c9e:	48 c7 85 60 ff ff ff 	movq   $0x0,-0xa0(%rbp)
    9ca5:	00 00 00 00 
    9ca9:	48 c7 85 68 ff ff ff 	movq   $0x0,-0x98(%rbp)
    9cb0:	00 00 00 00 
    9cb4:	c7 00 f1 f1 f1 f1    	movl   $0xf1f1f1f1,(%rax)
    9cba:	c7 40 04 00 f2 f2 f2 	movl   $0xf2f2f200,0x4(%rax)
    9cc1:	c7 40 08 00 02 f3 f3 	movl   $0xf3f30200,0x8(%rax)
    9cc8:	65 48 8b 04 25 28 00 	mov    %gs:0x28,%rax
    9ccf:	00 00 
    9cd1:	48 89 45 d0          	mov    %rax,-0x30(%rbp)
    9cd5:	31 c0                	xor    %eax,%eax
    9cd7:	48 b8 30 39 31 32 33 	movabs $0x3635343332313930,%rax
    9cde:	34 35 36 
    9ce1:	48 c7 85 78 ff ff ff 	movq   $0x0,-0x88(%rbp)
    9ce8:	00 00 00 00 
    9cec:	48 89 45 98          	mov    %rax,-0x68(%rbp)
    9cf0:	b8 37 00 00 00       	mov    $0x37,%eax
    9cf5:	66 89 45 a0          	mov    %ax,-0x60(%rbp)
    9cf9:	e8 00 00 00 00       	call   9cfe <ftest_send_without_publish+0xae>
    9cfe:	48 8b bd 78 ff ff ff 	mov    -0x88(%rbp),%rdi
    9d05:	48 8d 75 98          	lea    -0x68(%rbp),%rsi
    9d09:	49 89 c4             	mov    %rax,%r12
    9d0c:	41 89 c5             	mov    %eax,%r13d
    9d0f:	e8 00 00 00 00       	call   9d14 <ftest_send_without_publish+0xc4>
    9d14:	48 8b bd 78 ff ff ff 	mov    -0x88(%rbp),%rdi
    9d1b:	49 89 c7             	mov    %rax,%r15
    9d1e:	41 89 c6             	mov    %eax,%r14d
    9d21:	e8 00 00 00 00       	call   9d26 <ftest_send_without_publish+0xd6>
    9d26:	4c 8b 8d 78 ff ff ff 	mov    -0x88(%rbp),%r9
    9d2d:	41 09 c4             	or     %eax,%r12d
    9d30:	75 4d                	jne    9d7f <ftest_send_without_publish+0x12f>
    9d32:	45 85 ff             	test   %r15d,%r15d
    9d35:	74 48                	je     9d7f <ftest_send_without_publish+0x12f>
    9d37:	4d 85 c9             	test   %r9,%r9
    9d3a:	74 43                	je     9d7f <ftest_send_without_publish+0x12f>
    9d3c:	45 31 c0             	xor    %r8d,%r8d
    9d3f:	48 b8 00 00 00 00 00 	movabs $0xdffffc0000000000,%rax
    9d46:	fc ff df 
    9d49:	48 01 c3             	add    %rax,%rbx
    9d4c:	48 c7 03 00 00 00 00 	movq   $0x0,(%rbx)
    9d53:	c7 43 08 00 00 00 00 	movl   $0x0,0x8(%rbx)
    9d5a:	48 8b 45 d0          	mov    -0x30(%rbp),%rax
    9d5e:	65 48 2b 04 25 28 00 	sub    %gs:0x28,%rax
    9d65:	00 00 
    9d67:	75 3a                	jne    9da3 <ftest_send_without_publish+0x153>
    9d69:	48 83 ec 80          	sub    $0xffffffffffffff80,%rsp
    9d6d:	44 89 c0             	mov    %r8d,%eax
    9d70:	5b                   	pop    %rbx
    9d71:	41 5c                	pop    %r12
    9d73:	41 5d                	pop    %r13
    9d75:	41 5e                	pop    %r14
    9d77:	41 5f                	pop    %r15
    9d79:	5d                   	pop    %rbp
    9d7a:	e9 00 00 00 00       	jmp    9d7f <ftest_send_without_publish+0x12f>
    9d7f:	48 8b 35 00 00 00 00 	mov    0x0(%rip),%rsi        # 9d86 <ftest_send_without_publish+0x136>
    9d86:	41 89 c0             	mov    %eax,%r8d
    9d89:	44 89 f1             	mov    %r14d,%ecx
    9d8c:	44 89 ea             	mov    %r13d,%edx
    9d8f:	48 8d 3d 00 00 00 00 	lea    0x0(%rip),%rdi        # 9d96 <ftest_send_without_publish+0x146>
    9d96:	e8 00 00 00 00       	call   9d9b <ftest_send_without_publish+0x14b>
    9d9b:	41 b8 fe ff ff ff    	mov    $0xfffffffe,%r8d
    9da1:	eb 9c                	jmp    9d3f <ftest_send_without_publish+0xef>
    9da3:	e8 00 00 00 00       	call   9da8 <ftest_send_without_publish+0x158>
    9da8:	0f 1f 84 00 00 00 00 	nopl   0x0(%rax,%rax,1)
    9daf:	00 

0000000000009db0 <__pfx_ftest_send_with_publish>:
    9db0:	90                   	nop
    9db1:	90                   	nop
    9db2:	90                   	nop
    9db3:	90                   	nop
    9db4:	90                   	nop
    9db5:	90                   	nop
    9db6:	90                   	nop
    9db7:	90                   	nop
    9db8:	90                   	nop
    9db9:	90                   	nop
    9dba:	90                   	nop
    9dbb:	90                   	nop
    9dbc:	90                   	nop
    9dbd:	90                   	nop
    9dbe:	90                   	nop
    9dbf:	90                   	nop

0000000000009dc0 <ftest_send_with_publish>:
    9dc0:	f3 0f 1e fa          	endbr64
    9dc4:	e8 00 00 00 00       	call   9dc9 <ftest_send_with_publish+0x9>
    9dc9:	55                   	push   %rbp
    9dca:	ba 37 00 00 00       	mov    $0x37,%edx
    9dcf:	be 0a 00 00 00       	mov    $0xa,%esi
    9dd4:	bf 02 00 00 00       	mov    $0x2,%edi
    9dd9:	48 b8 00 00 00 00 00 	movabs $0xdffffc0000000000,%rax
    9de0:	fc ff df 
    9de3:	48 89 e5             	mov    %rsp,%rbp
    9de6:	41 57                	push   %r15
    9de8:	41 56                	push   %r14
    9dea:	4c 8d b5 58 ff ff ff 	lea    -0xa8(%rbp),%r14
    9df1:	41 55                	push   %r13
    9df3:	49 c1 ee 03          	shr    $0x3,%r14
    9df7:	41 54                	push   %r12
    9df9:	4c 01 f0             	add    %r14,%rax
    9dfc:	53                   	push   %rbx
    9dfd:	48 81 ec 88 00 00 00 	sub    $0x88,%rsp
    9e04:	48 c7 85 58 ff ff ff 	movq   $0x41b58ab3,-0xa8(%rbp)
    9e0b:	b3 8a b5 41 
    9e0f:	48 c7 85 60 ff ff ff 	movq   $0x0,-0xa0(%rbp)
    9e16:	00 00 00 00 
    9e1a:	48 c7 85 68 ff ff ff 	movq   $0x0,-0x98(%rbp)
    9e21:	00 00 00 00 
    9e25:	c7 00 f1 f1 f1 f1    	movl   $0xf1f1f1f1,(%rax)
    9e2b:	c7 40 04 00 f2 f2 f2 	movl   $0xf2f2f200,0x4(%rax)
    9e32:	c7 40 08 00 02 f3 f3 	movl   $0xf3f30200,0x8(%rax)
    9e39:	65 48 8b 04 25 28 00 	mov    %gs:0x28,%rax
    9e40:	00 00 
    9e42:	48 89 45 d0          	mov    %rax,-0x30(%rbp)
    9e46:	31 c0                	xor    %eax,%eax
    9e48:	66 89 55 a0          	mov    %dx,-0x60(%rbp)
    9e4c:	48 8d 95 78 ff ff ff 	lea    -0x88(%rbp),%rdx
    9e53:	48 b8 30 39 31 32 33 	movabs $0x3635343332313930,%rax
    9e5a:	34 35 36 
    9e5d:	48 c7 85 78 ff ff ff 	movq   $0x0,-0x88(%rbp)
    9e64:	00 00 00 00 
    9e68:	48 89 45 98          	mov    %rax,-0x68(%rbp)
    9e6c:	e8 00 00 00 00       	call   9e71 <ftest_send_with_publish+0xb1>
    9e71:	48 8b bd 78 ff ff ff 	mov    -0x88(%rbp),%rdi
    9e78:	49 89 c7             	mov    %rax,%r15
    9e7b:	89 85 54 ff ff ff    	mov    %eax,-0xac(%rbp)
    9e81:	e8 00 00 00 00       	call   9e86 <ftest_send_with_publish+0xc6>
    9e86:	48 8b bd 78 ff ff ff 	mov    -0x88(%rbp),%rdi
    9e8d:	48 8d 75 98          	lea    -0x68(%rbp),%rsi
    9e91:	48 89 c3             	mov    %rax,%rbx
    9e94:	41 89 c5             	mov    %eax,%r13d
    9e97:	e8 00 00 00 00       	call   9e9c <ftest_send_with_publish+0xdc>
    9e9c:	48 8b bd 78 ff ff ff 	mov    -0x88(%rbp),%rdi
    9ea3:	44 09 fb             	or     %r15d,%ebx
    9ea6:	49 89 c4             	mov    %rax,%r12
    9ea9:	e8 00 00 00 00       	call   9eae <ftest_send_with_publish+0xee>
    9eae:	44 09 e3             	or     %r12d,%ebx
    9eb1:	48 8b 95 78 ff ff ff 	mov    -0x88(%rbp),%rdx
    9eb8:	49 89 c1             	mov    %rax,%r9
    9ebb:	89 d8                	mov    %ebx,%eax
    9ebd:	44 09 c8             	or     %r9d,%eax
    9ec0:	75 43                	jne    9f05 <ftest_send_with_publish+0x145>
    9ec2:	48 85 d2             	test   %rdx,%rdx
    9ec5:	74 3e                	je     9f05 <ftest_send_with_publish+0x145>
    9ec7:	48 ba 00 00 00 00 00 	movabs $0xdffffc0000000000,%rdx
    9ece:	fc ff df 
    9ed1:	49 01 d6             	add    %rdx,%r14
    9ed4:	49 c7 06 00 00 00 00 	movq   $0x0,(%r14)
    9edb:	41 c7 46 08 00 00 00 	movl   $0x0,0x8(%r14)
    9ee2:	00 
    9ee3:	48 8b 55 d0          	mov    -0x30(%rbp),%rdx
    9ee7:	65 48 2b 14 25 28 00 	sub    %gs:0x28,%rdx
    9eee:	00 00 
    9ef0:	75 3b                	jne    9f2d <ftest_send_with_publish+0x16d>
    9ef2:	48 8d 65 d8          	lea    -0x28(%rbp),%rsp
    9ef6:	5b                   	pop    %rbx
    9ef7:	41 5c                	pop    %r12
    9ef9:	41 5d                	pop    %r13
    9efb:	41 5e                	pop    %r14
    9efd:	41 5f                	pop    %r15
    9eff:	5d                   	pop    %rbp
    9f00:	e9 00 00 00 00       	jmp    9f05 <ftest_send_with_publish+0x145>
    9f05:	52                   	push   %rdx
    9f06:	48 8b 35 00 00 00 00 	mov    0x0(%rip),%rsi        # 9f0d <ftest_send_with_publish+0x14d>
    9f0d:	45 89 e0             	mov    %r12d,%r8d
    9f10:	44 89 e9             	mov    %r13d,%ecx
    9f13:	8b 95 54 ff ff ff    	mov    -0xac(%rbp),%edx
    9f19:	48 8d 3d 00 00 00 00 	lea    0x0(%rip),%rdi        # 9f20 <ftest_send_with_publish+0x160>
    9f20:	e8 00 00 00 00       	call   9f25 <ftest_send_with_publish+0x165>
    9f25:	58                   	pop    %rax
    9f26:	b8 fe ff ff ff       	mov    $0xfffffffe,%eax
    9f2b:	eb 9a                	jmp    9ec7 <ftest_send_with_publish+0x107>
    9f2d:	e8 00 00 00 00       	call   9f32 <ftest_send_with_publish+0x172>
    9f32:	66 66 2e 0f 1f 84 00 	data16 cs nopw 0x0(%rax,%rax,1)
    9f39:	00 00 00 00 
    9f3d:	0f 1f 00             	nopl   (%rax)

0000000000009f40 <__pfx_ftest_send_receive_without_subscribe>:
    9f40:	90                   	nop
    9f41:	90                   	nop
    9f42:	90                   	nop
    9f43:	90                   	nop
    9f44:	90                   	nop
    9f45:	90                   	nop
    9f46:	90                   	nop
    9f47:	90                   	nop
    9f48:	90                   	nop
    9f49:	90                   	nop
    9f4a:	90                   	nop
    9f4b:	90                   	nop
    9f4c:	90                   	nop
    9f4d:	90                   	nop
    9f4e:	90                   	nop
    9f4f:	90                   	nop

0000000000009f50 <ftest_send_receive_without_subscribe>:
    9f50:	f3 0f 1e fa          	endbr64
    9f54:	e8 00 00 00 00       	call   9f59 <ftest_send_receive_without_subscribe+0x9>
    9f59:	55                   	push   %rbp
    9f5a:	be 37 38 00 00       	mov    $0x3837,%esi
    9f5f:	31 ff                	xor    %edi,%edi
    9f61:	48 b9 00 00 00 00 00 	movabs $0xdffffc0000000000,%rcx
    9f68:	fc ff df 
    9f6b:	48 89 e5             	mov    %rsp,%rbp
    9f6e:	41 57                	push   %r15
    9f70:	41 56                	push   %r14
    9f72:	4c 8d 95 38 ff ff ff 	lea    -0xc8(%rbp),%r10
    9f79:	48 8d 95 58 ff ff ff 	lea    -0xa8(%rbp),%rdx
    9f80:	41 55                	push   %r13
    9f82:	49 c1 ea 03          	shr    $0x3,%r10
    9f86:	4c 8d 75 d8          	lea    -0x28(%rbp),%r14
    9f8a:	45 31 ed             	xor    %r13d,%r13d
    9f8d:	41 54                	push   %r12
    9f8f:	49 8d 04 0a          	lea    (%r10,%rcx,1),%rax
    9f93:	4d 89 d7             	mov    %r10,%r15
    9f96:	4c 8d 65 98          	lea    -0x68(%rbp),%r12
    9f9a:	53                   	push   %rbx
    9f9b:	48 8d 9d 78 ff ff ff 	lea    -0x88(%rbp),%rbx
    9fa2:	48 81 ec d8 00 00 00 	sub    $0xd8,%rsp
    9fa9:	48 c7 85 38 ff ff ff 	movq   $0x41b58ab3,-0xc8(%rbp)
    9fb0:	b3 8a b5 41 
    9fb4:	48 c7 85 40 ff ff ff 	movq   $0x0,-0xc0(%rbp)
    9fbb:	00 00 00 00 
    9fbf:	48 c7 85 48 ff ff ff 	movq   $0x0,-0xb8(%rbp)
    9fc6:	00 00 00 00 
    9fca:	c7 00 f1 f1 f1 f1    	movl   $0xf1f1f1f1,(%rax)
    9fd0:	c7 40 04 00 f2 f2 f2 	movl   $0xf2f2f200,0x4(%rax)
    9fd7:	c7 40 08 00 02 f2 f2 	movl   $0xf2f20200,0x8(%rax)
    9fde:	c7 40 0c 00 02 f3 f3 	movl   $0xf3f30200,0xc(%rax)
    9fe5:	65 48 8b 04 25 28 00 	mov    %gs:0x28,%rax
    9fec:	00 00 
    9fee:	48 89 45 d0          	mov    %rax,-0x30(%rbp)
    9ff2:	31 c0                	xor    %eax,%eax
    9ff4:	66 89 75 80          	mov    %si,-0x80(%rbp)
    9ff8:	be 0a 00 00 00       	mov    $0xa,%esi
    9ffd:	48 b8 30 39 31 32 33 	movabs $0x3635343332313930,%rax
    a004:	34 35 36 
    a007:	66 89 7d a0          	mov    %di,-0x60(%rbp)
    a00b:	bf 02 00 00 00       	mov    $0x2,%edi
    a010:	48 c7 85 58 ff ff ff 	movq   $0x0,-0xa8(%rbp)
    a017:	00 00 00 00 
    a01b:	48 89 85 78 ff ff ff 	mov    %rax,-0x88(%rbp)
    a022:	48 c7 45 98 00 00 00 	movq   $0x0,-0x68(%rbp)
    a029:	00 
    a02a:	e8 00 00 00 00       	call   a02f <ftest_send_receive_without_subscribe+0xdf>
    a02f:	48 8b bd 58 ff ff ff 	mov    -0xa8(%rbp),%rdi
    a036:	89 85 14 ff ff ff    	mov    %eax,-0xec(%rbp)
    a03c:	48 89 85 20 ff ff ff 	mov    %rax,-0xe0(%rbp)
    a043:	e8 00 00 00 00       	call   a048 <ftest_send_receive_without_subscribe+0xf8>
    a048:	48 8b bd 58 ff ff ff 	mov    -0xa8(%rbp),%rdi
    a04f:	48 8d b5 78 ff ff ff 	lea    -0x88(%rbp),%rsi
    a056:	89 85 10 ff ff ff    	mov    %eax,-0xf0(%rbp)
    a05c:	48 89 85 28 ff ff ff 	mov    %rax,-0xd8(%rbp)
    a063:	e8 00 00 00 00       	call   a068 <ftest_send_receive_without_subscribe+0x118>
    a068:	48 8b bd 58 ff ff ff 	mov    -0xa8(%rbp),%rdi
    a06f:	48 8d 75 98          	lea    -0x68(%rbp),%rsi
    a073:	48 89 85 18 ff ff ff 	mov    %rax,-0xe8(%rbp)
    a07a:	e8 00 00 00 00       	call   a07f <ftest_send_receive_without_subscribe+0x12f>
    a07f:	48 8b bd 58 ff ff ff 	mov    -0xa8(%rbp),%rdi
    a086:	48 89 85 30 ff ff ff 	mov    %rax,-0xd0(%rbp)
    a08d:	e8 00 00 00 00       	call   a092 <ftest_send_receive_without_subscribe+0x142>
    a092:	4c 8b 9d 20 ff ff ff 	mov    -0xe0(%rbp),%r11
    a099:	4c 8b 85 28 ff ff ff 	mov    -0xd8(%rbp),%r8
    a0a0:	48 b9 00 00 00 00 00 	movabs $0xdffffc0000000000,%rcx
    a0a7:	fc ff df 
    a0aa:	49 63 f5             	movslq %r13d,%rsi
    a0ad:	48 83 fe 09          	cmp    $0x9,%rsi
    a0b1:	0f 87 0c 02 00 00    	ja     a2c3 <ftest_send_receive_without_subscribe+0x373>
    a0b7:	4c 89 e2             	mov    %r12,%rdx
    a0ba:	4c 89 e7             	mov    %r12,%rdi
    a0bd:	48 c1 ea 03          	shr    $0x3,%rdx
    a0c1:	83 e7 07             	and    $0x7,%edi
    a0c4:	0f b6 14 0a          	movzbl (%rdx,%rcx,1),%edx
    a0c8:	40 38 fa             	cmp    %dil,%dl
    a0cb:	7f 08                	jg     a0d5 <ftest_send_receive_without_subscribe+0x185>
    a0cd:	84 d2                	test   %dl,%dl
    a0cf:	0f 85 9f 01 00 00    	jne    a274 <ftest_send_receive_without_subscribe+0x324>
    a0d5:	45 0f b6 0c 24       	movzbl (%r12),%r9d
    a0da:	48 83 fe 09          	cmp    $0x9,%rsi
    a0de:	0f 87 3c 01 00 00    	ja     a220 <ftest_send_receive_without_subscribe+0x2d0>
    a0e4:	48 89 da             	mov    %rbx,%rdx
    a0e7:	48 89 de             	mov    %rbx,%rsi
    a0ea:	48 c1 ea 03          	shr    $0x3,%rdx
    a0ee:	83 e6 07             	and    $0x7,%esi
    a0f1:	0f b6 14 0a          	movzbl (%rdx,%rcx,1),%edx
    a0f5:	40 38 f2             	cmp    %sil,%dl
    a0f8:	7f 08                	jg     a102 <ftest_send_receive_without_subscribe+0x1b2>
    a0fa:	84 d2                	test   %dl,%dl
    a0fc:	0f 85 ce 00 00 00    	jne    a1d0 <ftest_send_receive_without_subscribe+0x280>
    a102:	44 3a 0b             	cmp    (%rbx),%r9b
    a105:	74 7a                	je     a181 <ftest_send_receive_without_subscribe+0x231>
    a107:	41 83 c5 01          	add    $0x1,%r13d
    a10b:	49 83 c4 01          	add    $0x1,%r12
    a10f:	48 83 c3 01          	add    $0x1,%rbx
    a113:	41 83 fd 0a          	cmp    $0xa,%r13d
    a117:	75 91                	jne    a0aa <ftest_send_receive_without_subscribe+0x15a>
    a119:	45 09 d8             	or     %r11d,%r8d
    a11c:	44 0b 85 18 ff ff ff 	or     -0xe8(%rbp),%r8d
    a123:	49 8b 56 80          	mov    -0x80(%r14),%rdx
    a127:	41 09 c0             	or     %eax,%r8d
    a12a:	75 59                	jne    a185 <ftest_send_receive_without_subscribe+0x235>
    a12c:	8b 8d 30 ff ff ff    	mov    -0xd0(%rbp),%ecx
    a132:	85 c9                	test   %ecx,%ecx
    a134:	74 4f                	je     a185 <ftest_send_receive_without_subscribe+0x235>
    a136:	48 85 d2             	test   %rdx,%rdx
    a139:	74 4a                	je     a185 <ftest_send_receive_without_subscribe+0x235>
    a13b:	48 b8 00 00 00 00 00 	movabs $0xdffffc0000000000,%rax
    a142:	fc ff df 
    a145:	4d 8d 14 07          	lea    (%r15,%rax,1),%r10
    a149:	49 c7 02 00 00 00 00 	movq   $0x0,(%r10)
    a150:	49 c7 42 08 00 00 00 	movq   $0x0,0x8(%r10)
    a157:	00 
    a158:	48 8b 45 d0          	mov    -0x30(%rbp),%rax
    a15c:	65 48 2b 04 25 28 00 	sub    %gs:0x28,%rax
    a163:	00 00 
    a165:	0f 85 ab 01 00 00    	jne    a316 <ftest_send_receive_without_subscribe+0x3c6>
    a16b:	48 8d 65 d8          	lea    -0x28(%rbp),%rsp
    a16f:	44 89 c0             	mov    %r8d,%eax
    a172:	5b                   	pop    %rbx
    a173:	41 5c                	pop    %r12
    a175:	41 5d                	pop    %r13
    a177:	41 5e                	pop    %r14
    a179:	41 5f                	pop    %r15
    a17b:	5d                   	pop    %rbp
    a17c:	e9 00 00 00 00       	jmp    a181 <ftest_send_receive_without_subscribe+0x231>
    a181:	49 8b 56 80          	mov    -0x80(%r14),%rdx
    a185:	48 8d 8d 78 ff ff ff 	lea    -0x88(%rbp),%rcx
    a18c:	44 8b 85 18 ff ff ff 	mov    -0xe8(%rbp),%r8d
    a193:	44 8b 8d 30 ff ff ff 	mov    -0xd0(%rbp),%r9d
    a19a:	51                   	push   %rcx
    a19b:	48 8d 4d 98          	lea    -0x68(%rbp),%rcx
    a19f:	48 8b 35 00 00 00 00 	mov    0x0(%rip),%rsi        # a1a6 <ftest_send_receive_without_subscribe+0x256>
    a1a6:	51                   	push   %rcx
    a1a7:	8b 8d 10 ff ff ff    	mov    -0xf0(%rbp),%ecx
    a1ad:	52                   	push   %rdx
    a1ae:	8b 95 14 ff ff ff    	mov    -0xec(%rbp),%edx
    a1b4:	50                   	push   %rax
    a1b5:	48 8d 3d 00 00 00 00 	lea    0x0(%rip),%rdi        # a1bc <ftest_send_receive_without_subscribe+0x26c>
    a1bc:	e8 00 00 00 00       	call   a1c1 <ftest_send_receive_without_subscribe+0x271>
    a1c1:	41 b8 fe ff ff ff    	mov    $0xfffffffe,%r8d
    a1c7:	48 83 c4 20          	add    $0x20,%rsp
    a1cb:	e9 6b ff ff ff       	jmp    a13b <ftest_send_receive_without_subscribe+0x1eb>
    a1d0:	48 89 df             	mov    %rbx,%rdi
    a1d3:	48 89 85 00 ff ff ff 	mov    %rax,-0x100(%rbp)
    a1da:	4c 89 85 08 ff ff ff 	mov    %r8,-0xf8(%rbp)
    a1e1:	4c 89 9d 20 ff ff ff 	mov    %r11,-0xe0(%rbp)
    a1e8:	44 88 8d 28 ff ff ff 	mov    %r9b,-0xd8(%rbp)
    a1ef:	e8 00 00 00 00       	call   a1f4 <ftest_send_receive_without_subscribe+0x2a4>
    a1f4:	48 8b 85 00 ff ff ff 	mov    -0x100(%rbp),%rax
    a1fb:	4c 8b 85 08 ff ff ff 	mov    -0xf8(%rbp),%r8
    a202:	48 b9 00 00 00 00 00 	movabs $0xdffffc0000000000,%rcx
    a209:	fc ff df 
    a20c:	4c 8b 9d 20 ff ff ff 	mov    -0xe0(%rbp),%r11
    a213:	44 0f b6 8d 28 ff ff 	movzbl -0xd8(%rbp),%r9d
    a21a:	ff 
    a21b:	e9 e2 fe ff ff       	jmp    a102 <ftest_send_receive_without_subscribe+0x1b2>
    a220:	48 c7 c7 00 00 00 00 	mov    $0x0,%rdi
    a227:	48 89 85 00 ff ff ff 	mov    %rax,-0x100(%rbp)
    a22e:	4c 89 85 08 ff ff ff 	mov    %r8,-0xf8(%rbp)
    a235:	4c 89 9d 20 ff ff ff 	mov    %r11,-0xe0(%rbp)
    a23c:	44 88 8d 28 ff ff ff 	mov    %r9b,-0xd8(%rbp)
    a243:	e8 00 00 00 00       	call   a248 <ftest_send_receive_without_subscribe+0x2f8>
    a248:	48 8b 85 00 ff ff ff 	mov    -0x100(%rbp),%rax
    a24f:	4c 8b 85 08 ff ff ff 	mov    -0xf8(%rbp),%r8
    a256:	48 b9 00 00 00 00 00 	movabs $0xdffffc0000000000,%rcx
    a25d:	fc ff df 
    a260:	4c 8b 9d 20 ff ff ff 	mov    -0xe0(%rbp),%r11
    a267:	44 0f b6 8d 28 ff ff 	movzbl -0xd8(%rbp),%r9d
    a26e:	ff 
    a26f:	e9 70 fe ff ff       	jmp    a0e4 <ftest_send_receive_without_subscribe+0x194>
    a274:	4c 89 e7             	mov    %r12,%rdi
    a277:	48 89 85 00 ff ff ff 	mov    %rax,-0x100(%rbp)
    a27e:	4c 89 85 08 ff ff ff 	mov    %r8,-0xf8(%rbp)
    a285:	4c 89 9d 20 ff ff ff 	mov    %r11,-0xe0(%rbp)
    a28c:	48 89 b5 28 ff ff ff 	mov    %rsi,-0xd8(%rbp)
    a293:	e8 00 00 00 00       	call   a298 <ftest_send_receive_without_subscribe+0x348>
    a298:	48 8b 85 00 ff ff ff 	mov    -0x100(%rbp),%rax
    a29f:	4c 8b 85 08 ff ff ff 	mov    -0xf8(%rbp),%r8
    a2a6:	48 b9 00 00 00 00 00 	movabs $0xdffffc0000000000,%rcx
    a2ad:	fc ff df 
    a2b0:	4c 8b 9d 20 ff ff ff 	mov    -0xe0(%rbp),%r11
    a2b7:	48 8b b5 28 ff ff ff 	mov    -0xd8(%rbp),%rsi
    a2be:	e9 12 fe ff ff       	jmp    a0d5 <ftest_send_receive_without_subscribe+0x185>
    a2c3:	48 c7 c7 00 00 00 00 	mov    $0x0,%rdi
    a2ca:	48 89 85 00 ff ff ff 	mov    %rax,-0x100(%rbp)
    a2d1:	4c 89 85 08 ff ff ff 	mov    %r8,-0xf8(%rbp)
    a2d8:	4c 89 9d 20 ff ff ff 	mov    %r11,-0xe0(%rbp)
    a2df:	48 89 b5 28 ff ff ff 	mov    %rsi,-0xd8(%rbp)
    a2e6:	e8 00 00 00 00       	call   a2eb <ftest_send_receive_without_subscribe+0x39b>
    a2eb:	48 8b 85 00 ff ff ff 	mov    -0x100(%rbp),%rax
    a2f2:	4c 8b 85 08 ff ff ff 	mov    -0xf8(%rbp),%r8
    a2f9:	48 b9 00 00 00 00 00 	movabs $0xdffffc0000000000,%rcx
    a300:	fc ff df 
    a303:	4c 8b 9d 20 ff ff ff 	mov    -0xe0(%rbp),%r11
    a30a:	48 8b b5 28 ff ff ff 	mov    -0xd8(%rbp),%rsi
    a311:	e9 a1 fd ff ff       	jmp    a0b7 <ftest_send_receive_without_subscribe+0x167>
    a316:	e8 00 00 00 00       	call   a31b <ftest_send_receive_without_subscribe+0x3cb>
    a31b:	0f 1f 44 00 00       	nopl   0x0(%rax,%rax,1)

000000000000a320 <__pfx_ftest_send_receive_normal>:
    a320:	90                   	nop
    a321:	90                   	nop
    a322:	90                   	nop
    a323:	90                   	nop
    a324:	90                   	nop
    a325:	90                   	nop
    a326:	90                   	nop
    a327:	90                   	nop
    a328:	90                   	nop
    a329:	90                   	nop
    a32a:	90                   	nop
    a32b:	90                   	nop
    a32c:	90                   	nop
    a32d:	90                   	nop
    a32e:	90                   	nop
    a32f:	90                   	nop

000000000000a330 <ftest_send_receive_normal>:
    a330:	f3 0f 1e fa          	endbr64
    a334:	e8 00 00 00 00       	call   a339 <ftest_send_receive_normal+0x9>
    a339:	55                   	push   %rbp
    a33a:	31 d2                	xor    %edx,%edx
    a33c:	be 0a 00 00 00       	mov    $0xa,%esi
    a341:	bf 02 00 00 00       	mov    $0x2,%edi
    a346:	48 89 e5             	mov    %rsp,%rbp
    a349:	41 57                	push   %r15
    a34b:	41 56                	push   %r14
    a34d:	4c 8d 95 38 ff ff ff 	lea    -0xc8(%rbp),%r10
    a354:	49 be 00 00 00 00 00 	movabs $0xdffffc0000000000,%r14
    a35b:	fc ff df 
    a35e:	41 55                	push   %r13
    a360:	49 c1 ea 03          	shr    $0x3,%r10
    a364:	41 54                	push   %r12
    a366:	4b 8d 04 32          	lea    (%r10,%r14,1),%rax
    a36a:	4c 8d 65 98          	lea    -0x68(%rbp),%r12
    a36e:	53                   	push   %rbx
    a36f:	48 8d 9d 78 ff ff ff 	lea    -0x88(%rbp),%rbx
    a376:	48 81 ec e0 00 00 00 	sub    $0xe0,%rsp
    a37d:	4c 89 95 18 ff ff ff 	mov    %r10,-0xe8(%rbp)
    a384:	48 c7 85 38 ff ff ff 	movq   $0x41b58ab3,-0xc8(%rbp)
    a38b:	b3 8a b5 41 
    a38f:	48 c7 85 40 ff ff ff 	movq   $0x0,-0xc0(%rbp)
    a396:	00 00 00 00 
    a39a:	48 c7 85 48 ff ff ff 	movq   $0x0,-0xb8(%rbp)
    a3a1:	00 00 00 00 
    a3a5:	c7 00 f1 f1 f1 f1    	movl   $0xf1f1f1f1,(%rax)
    a3ab:	c7 40 04 00 f2 f2 f2 	movl   $0xf2f2f200,0x4(%rax)
    a3b2:	c7 40 08 00 02 f2 f2 	movl   $0xf2f20200,0x8(%rax)
    a3b9:	c7 40 0c 00 02 f3 f3 	movl   $0xf3f30200,0xc(%rax)
    a3c0:	65 48 8b 04 25 28 00 	mov    %gs:0x28,%rax
    a3c7:	00 00 
    a3c9:	48 89 45 d0          	mov    %rax,-0x30(%rbp)
    a3cd:	31 c0                	xor    %eax,%eax
    a3cf:	66 89 55 a0          	mov    %dx,-0x60(%rbp)
    a3d3:	48 b8 30 39 31 32 33 	movabs $0x3635343332313930,%rax
    a3da:	34 35 36 
    a3dd:	48 8d 95 58 ff ff ff 	lea    -0xa8(%rbp),%rdx
    a3e4:	48 89 85 78 ff ff ff 	mov    %rax,-0x88(%rbp)
    a3eb:	b8 37 38 00 00       	mov    $0x3837,%eax
    a3f0:	48 c7 85 58 ff ff ff 	movq   $0x0,-0xa8(%rbp)
    a3f7:	00 00 00 00 
    a3fb:	66 89 45 80          	mov    %ax,-0x80(%rbp)
    a3ff:	48 c7 45 98 00 00 00 	movq   $0x0,-0x68(%rbp)
    a406:	00 
    a407:	e8 00 00 00 00       	call   a40c <ftest_send_receive_normal+0xdc>
    a40c:	48 8b bd 58 ff ff ff 	mov    -0xa8(%rbp),%rdi
    a413:	89 85 14 ff ff ff    	mov    %eax,-0xec(%rbp)
    a419:	49 89 c5             	mov    %rax,%r13
    a41c:	e8 00 00 00 00       	call   a421 <ftest_send_receive_normal+0xf1>
    a421:	48 8b bd 58 ff ff ff 	mov    -0xa8(%rbp),%rdi
    a428:	48 8d b5 78 ff ff ff 	lea    -0x88(%rbp),%rsi
    a42f:	89 85 10 ff ff ff    	mov    %eax,-0xf0(%rbp)
    a435:	48 89 85 20 ff ff ff 	mov    %rax,-0xe0(%rbp)
    a43c:	e8 00 00 00 00       	call   a441 <ftest_send_receive_normal+0x111>
    a441:	48 8b bd 58 ff ff ff 	mov    -0xa8(%rbp),%rdi
    a448:	48 89 85 30 ff ff ff 	mov    %rax,-0xd0(%rbp)
    a44f:	e8 00 00 00 00       	call   a454 <ftest_send_receive_normal+0x124>
    a454:	48 8b bd 58 ff ff ff 	mov    -0xa8(%rbp),%rdi
    a45b:	48 8d 75 98          	lea    -0x68(%rbp),%rsi
    a45f:	48 89 85 28 ff ff ff 	mov    %rax,-0xd8(%rbp)
    a466:	e8 00 00 00 00       	call   a46b <ftest_send_receive_normal+0x13b>
    a46b:	48 8b bd 58 ff ff ff 	mov    -0xa8(%rbp),%rdi
    a472:	49 89 c7             	mov    %rax,%r15
    a475:	e8 00 00 00 00       	call   a47a <ftest_send_receive_normal+0x14a>
    a47a:	4c 8b 85 20 ff ff ff 	mov    -0xe0(%rbp),%r8
    a481:	4c 8b 95 18 ff ff ff 	mov    -0xe8(%rbp),%r10
    a488:	31 d2                	xor    %edx,%edx
    a48a:	49 89 c1             	mov    %rax,%r9
    a48d:	31 c0                	xor    %eax,%eax
    a48f:	48 63 f0             	movslq %eax,%rsi
    a492:	48 83 fe 09          	cmp    $0x9,%rsi
    a496:	0f 87 4d 02 00 00    	ja     a6e9 <ftest_send_receive_normal+0x3b9>
    a49c:	4c 89 e1             	mov    %r12,%rcx
    a49f:	4c 89 e7             	mov    %r12,%rdi
    a4a2:	48 c1 e9 03          	shr    $0x3,%rcx
    a4a6:	83 e7 07             	and    $0x7,%edi
    a4a9:	42 0f b6 0c 31       	movzbl (%rcx,%r14,1),%ecx
    a4ae:	40 38 f9             	cmp    %dil,%cl
    a4b1:	7f 08                	jg     a4bb <ftest_send_receive_normal+0x18b>
    a4b3:	84 c9                	test   %cl,%cl
    a4b5:	0f 85 d0 01 00 00    	jne    a68b <ftest_send_receive_normal+0x35b>
    a4bb:	41 0f b6 0c 24       	movzbl (%r12),%ecx
    a4c0:	48 83 fe 09          	cmp    $0x9,%rsi
    a4c4:	0f 87 60 01 00 00    	ja     a62a <ftest_send_receive_normal+0x2fa>
    a4ca:	48 89 de             	mov    %rbx,%rsi
    a4cd:	48 89 df             	mov    %rbx,%rdi
    a4d0:	48 c1 ee 03          	shr    $0x3,%rsi
    a4d4:	83 e7 07             	and    $0x7,%edi
    a4d7:	42 0f b6 34 36       	movzbl (%rsi,%r14,1),%esi
    a4dc:	40 38 fe             	cmp    %dil,%sil
    a4df:	7f 09                	jg     a4ea <ftest_send_receive_normal+0x1ba>
    a4e1:	40 84 f6             	test   %sil,%sil
    a4e4:	0f 85 e3 00 00 00    	jne    a5cd <ftest_send_receive_normal+0x29d>
    a4ea:	3a 0b                	cmp    (%rbx),%cl
    a4ec:	b9 01 00 00 00       	mov    $0x1,%ecx
    a4f1:	0f 45 d1             	cmovne %ecx,%edx
    a4f4:	83 c0 01             	add    $0x1,%eax
    a4f7:	49 83 c4 01          	add    $0x1,%r12
    a4fb:	48 83 c3 01          	add    $0x1,%rbx
    a4ff:	83 f8 0a             	cmp    $0xa,%eax
    a502:	75 8b                	jne    a48f <ftest_send_receive_normal+0x15f>
    a504:	45 09 e8             	or     %r13d,%r8d
    a507:	44 0b 85 30 ff ff ff 	or     -0xd0(%rbp),%r8d
    a50e:	44 0b 85 28 ff ff ff 	or     -0xd8(%rbp),%r8d
    a515:	45 09 f8             	or     %r15d,%r8d
    a518:	48 8b 85 58 ff ff ff 	mov    -0xa8(%rbp),%rax
    a51f:	45 09 c8             	or     %r9d,%r8d
    a522:	75 4e                	jne    a572 <ftest_send_receive_normal+0x242>
    a524:	83 e2 01             	and    $0x1,%edx
    a527:	75 49                	jne    a572 <ftest_send_receive_normal+0x242>
    a529:	48 85 c0             	test   %rax,%rax
    a52c:	74 44                	je     a572 <ftest_send_receive_normal+0x242>
    a52e:	31 c0                	xor    %eax,%eax
    a530:	48 ba 00 00 00 00 00 	movabs $0xdffffc0000000000,%rdx
    a537:	fc ff df 
    a53a:	49 01 d2             	add    %rdx,%r10
    a53d:	49 c7 02 00 00 00 00 	movq   $0x0,(%r10)
    a544:	49 c7 42 08 00 00 00 	movq   $0x0,0x8(%r10)
    a54b:	00 
    a54c:	48 8b 55 d0          	mov    -0x30(%rbp),%rdx
    a550:	65 48 2b 14 25 28 00 	sub    %gs:0x28,%rdx
    a557:	00 00 
    a559:	0f 85 ec 01 00 00    	jne    a74b <ftest_send_receive_normal+0x41b>
    a55f:	48 8d 65 d8          	lea    -0x28(%rbp),%rsp
    a563:	5b                   	pop    %rbx
    a564:	41 5c                	pop    %r12
    a566:	41 5d                	pop    %r13
    a568:	41 5e                	pop    %r14
    a56a:	41 5f                	pop    %r15
    a56c:	5d                   	pop    %rbp
    a56d:	e9 00 00 00 00       	jmp    a572 <ftest_send_receive_normal+0x242>
    a572:	48 8d 95 78 ff ff ff 	lea    -0x88(%rbp),%rdx
    a579:	44 8b 85 30 ff ff ff 	mov    -0xd0(%rbp),%r8d
    a580:	8b 8d 10 ff ff ff    	mov    -0xf0(%rbp),%ecx
    a586:	4c 89 95 20 ff ff ff 	mov    %r10,-0xe0(%rbp)
    a58d:	52                   	push   %rdx
    a58e:	48 8d 55 98          	lea    -0x68(%rbp),%rdx
    a592:	48 8b 35 00 00 00 00 	mov    0x0(%rip),%rsi        # a599 <ftest_send_receive_normal+0x269>
    a599:	52                   	push   %rdx
    a59a:	8b 95 14 ff ff ff    	mov    -0xec(%rbp),%edx
    a5a0:	50                   	push   %rax
    a5a1:	41 51                	push   %r9
    a5a3:	44 8b 8d 28 ff ff ff 	mov    -0xd8(%rbp),%r9d
    a5aa:	41 57                	push   %r15
    a5ac:	48 8d 3d 00 00 00 00 	lea    0x0(%rip),%rdi        # a5b3 <ftest_send_receive_normal+0x283>
    a5b3:	e8 00 00 00 00       	call   a5b8 <ftest_send_receive_normal+0x288>
    a5b8:	4c 8b 95 20 ff ff ff 	mov    -0xe0(%rbp),%r10
    a5bf:	b8 fe ff ff ff       	mov    $0xfffffffe,%eax
    a5c4:	48 83 c4 28          	add    $0x28,%rsp
    a5c8:	e9 63 ff ff ff       	jmp    a530 <ftest_send_receive_normal+0x200>
    a5cd:	48 89 df             	mov    %rbx,%rdi
    a5d0:	4c 89 95 f8 fe ff ff 	mov    %r10,-0x108(%rbp)
    a5d7:	89 85 00 ff ff ff    	mov    %eax,-0x100(%rbp)
    a5dd:	88 95 07 ff ff ff    	mov    %dl,-0xf9(%rbp)
    a5e3:	4c 89 8d 08 ff ff ff 	mov    %r9,-0xf8(%rbp)
    a5ea:	4c 89 85 18 ff ff ff 	mov    %r8,-0xe8(%rbp)
    a5f1:	88 8d 20 ff ff ff    	mov    %cl,-0xe0(%rbp)
    a5f7:	e8 00 00 00 00       	call   a5fc <ftest_send_receive_normal+0x2cc>
    a5fc:	4c 8b 95 f8 fe ff ff 	mov    -0x108(%rbp),%r10
    a603:	8b 85 00 ff ff ff    	mov    -0x100(%rbp),%eax
    a609:	0f b6 95 07 ff ff ff 	movzbl -0xf9(%rbp),%edx
    a610:	4c 8b 8d 08 ff ff ff 	mov    -0xf8(%rbp),%r9
    a617:	4c 8b 85 18 ff ff ff 	mov    -0xe8(%rbp),%r8
    a61e:	0f b6 8d 20 ff ff ff 	movzbl -0xe0(%rbp),%ecx
    a625:	e9 c0 fe ff ff       	jmp    a4ea <ftest_send_receive_normal+0x1ba>
    a62a:	48 c7 c7 00 00 00 00 	mov    $0x0,%rdi
    a631:	4c 89 95 f8 fe ff ff 	mov    %r10,-0x108(%rbp)
    a638:	89 85 00 ff ff ff    	mov    %eax,-0x100(%rbp)
    a63e:	88 95 07 ff ff ff    	mov    %dl,-0xf9(%rbp)
    a644:	4c 89 8d 08 ff ff ff 	mov    %r9,-0xf8(%rbp)
    a64b:	4c 89 85 18 ff ff ff 	mov    %r8,-0xe8(%rbp)
    a652:	88 8d 20 ff ff ff    	mov    %cl,-0xe0(%rbp)
    a658:	e8 00 00 00 00       	call   a65d <ftest_send_receive_normal+0x32d>
    a65d:	4c 8b 95 f8 fe ff ff 	mov    -0x108(%rbp),%r10
    a664:	8b 85 00 ff ff ff    	mov    -0x100(%rbp),%eax
    a66a:	0f b6 95 07 ff ff ff 	movzbl -0xf9(%rbp),%edx
    a671:	4c 8b 8d 08 ff ff ff 	mov    -0xf8(%rbp),%r9
    a678:	4c 8b 85 18 ff ff ff 	mov    -0xe8(%rbp),%r8
    a67f:	0f b6 8d 20 ff ff ff 	movzbl -0xe0(%rbp),%ecx
    a686:	e9 3f fe ff ff       	jmp    a4ca <ftest_send_receive_normal+0x19a>
    a68b:	4c 89 e7             	mov    %r12,%rdi
    a68e:	4c 89 95 f8 fe ff ff 	mov    %r10,-0x108(%rbp)
    a695:	89 85 00 ff ff ff    	mov    %eax,-0x100(%rbp)
    a69b:	88 95 07 ff ff ff    	mov    %dl,-0xf9(%rbp)
    a6a1:	4c 89 8d 08 ff ff ff 	mov    %r9,-0xf8(%rbp)
    a6a8:	4c 89 85 18 ff ff ff 	mov    %r8,-0xe8(%rbp)
    a6af:	48 89 b5 20 ff ff ff 	mov    %rsi,-0xe0(%rbp)
    a6b6:	e8 00 00 00 00       	call   a6bb <ftest_send_receive_normal+0x38b>
    a6bb:	4c 8b 95 f8 fe ff ff 	mov    -0x108(%rbp),%r10
    a6c2:	8b 85 00 ff ff ff    	mov    -0x100(%rbp),%eax
    a6c8:	0f b6 95 07 ff ff ff 	movzbl -0xf9(%rbp),%edx
    a6cf:	4c 8b 8d 08 ff ff ff 	mov    -0xf8(%rbp),%r9
    a6d6:	4c 8b 85 18 ff ff ff 	mov    -0xe8(%rbp),%r8
    a6dd:	48 8b b5 20 ff ff ff 	mov    -0xe0(%rbp),%rsi
    a6e4:	e9 d2 fd ff ff       	jmp    a4bb <ftest_send_receive_normal+0x18b>
    a6e9:	48 c7 c7 00 00 00 00 	mov    $0x0,%rdi
    a6f0:	4c 89 95 f8 fe ff ff 	mov    %r10,-0x108(%rbp)
    a6f7:	89 85 00 ff ff ff    	mov    %eax,-0x100(%rbp)
    a6fd:	88 95 07 ff ff ff    	mov    %dl,-0xf9(%rbp)
    a703:	4c 89 8d 08 ff ff ff 	mov    %r9,-0xf8(%rbp)
    a70a:	4c 89 85 18 ff ff ff 	mov    %r8,-0xe8(%rbp)
    a711:	48 89 b5 20 ff ff ff 	mov    %rsi,-0xe0(%rbp)
    a718:	e8 00 00 00 00       	call   a71d <ftest_send_receive_normal+0x3ed>
    a71d:	4c 8b 95 f8 fe ff ff 	mov    -0x108(%rbp),%r10
    a724:	8b 85 00 ff ff ff    	mov    -0x100(%rbp),%eax
    a72a:	0f b6 95 07 ff ff ff 	movzbl -0xf9(%rbp),%edx
    a731:	4c 8b 8d 08 ff ff ff 	mov    -0xf8(%rbp),%r9
    a738:	4c 8b 85 18 ff ff ff 	mov    -0xe8(%rbp),%r8
    a73f:	48 8b b5 20 ff ff ff 	mov    -0xe0(%rbp),%rsi
    a746:	e9 51 fd ff ff       	jmp    a49c <ftest_send_receive_normal+0x16c>
    a74b:	e8 00 00 00 00       	call   a750 <__pfx_ftest_send_receive_doubled>

000000000000a750 <__pfx_ftest_send_receive_doubled>:
    a750:	90                   	nop
    a751:	90                   	nop
    a752:	90                   	nop
    a753:	90                   	nop
    a754:	90                   	nop
    a755:	90                   	nop
    a756:	90                   	nop
    a757:	90                   	nop
    a758:	90                   	nop
    a759:	90                   	nop
    a75a:	90                   	nop
    a75b:	90                   	nop
    a75c:	90                   	nop
    a75d:	90                   	nop
    a75e:	90                   	nop
    a75f:	90                   	nop

000000000000a760 <ftest_send_receive_doubled>:
    a760:	f3 0f 1e fa          	endbr64
    a764:	e8 00 00 00 00       	call   a769 <ftest_send_receive_doubled+0x9>
    a769:	55                   	push   %rbp
    a76a:	be 0a 00 00 00       	mov    $0xa,%esi
    a76f:	bf 02 00 00 00       	mov    $0x2,%edi
    a774:	48 89 e5             	mov    %rsp,%rbp
    a777:	41 57                	push   %r15
    a779:	49 bf 00 00 00 00 00 	movabs $0xdffffc0000000000,%r15
    a780:	fc ff df 
    a783:	41 56                	push   %r14
    a785:	4c 8d 95 f8 fe ff ff 	lea    -0x108(%rbp),%r10
    a78c:	48 8d 95 18 ff ff ff 	lea    -0xe8(%rbp),%rdx
    a793:	41 55                	push   %r13
    a795:	49 c1 ea 03          	shr    $0x3,%r10
    a799:	41 54                	push   %r12
    a79b:	4b 8d 04 3a          	lea    (%r10,%r15,1),%rax
    a79f:	4c 8d a5 78 ff ff ff 	lea    -0x88(%rbp),%r12
    a7a6:	53                   	push   %rbx
    a7a7:	48 8d 9d 38 ff ff ff 	lea    -0xc8(%rbp),%rbx
    a7ae:	48 81 ec 30 01 00 00 	sub    $0x130,%rsp
    a7b5:	4c 89 95 c8 fe ff ff 	mov    %r10,-0x138(%rbp)
    a7bc:	48 c7 85 f8 fe ff ff 	movq   $0x41b58ab3,-0x108(%rbp)
    a7c3:	b3 8a b5 41 
    a7c7:	48 c7 85 00 ff ff ff 	movq   $0x0,-0x100(%rbp)
    a7ce:	00 00 00 00 
    a7d2:	48 c7 85 08 ff ff ff 	movq   $0x0,-0xf8(%rbp)
    a7d9:	00 00 00 00 
    a7dd:	c7 00 f1 f1 f1 f1    	movl   $0xf1f1f1f1,(%rax)
    a7e3:	c7 40 04 00 f2 f2 f2 	movl   $0xf2f2f200,0x4(%rax)
    a7ea:	c7 40 08 00 00 04 f2 	movl   $0xf2040000,0x8(%rax)
    a7f1:	c7 40 0c f2 f2 f2 f2 	movl   $0xf2f2f2f2,0xc(%rax)
    a7f8:	c7 40 10 00 00 04 f3 	movl   $0xf3040000,0x10(%rax)
    a7ff:	c7 40 14 f3 f3 f3 f3 	movl   $0xf3f3f3f3,0x14(%rax)
    a806:	65 48 8b 04 25 28 00 	mov    %gs:0x28,%rax
    a80d:	00 00 
    a80f:	48 89 45 d0          	mov    %rax,-0x30(%rbp)
    a813:	31 c0                	xor    %eax,%eax
    a815:	48 c7 45 80 00 00 00 	movq   $0x0,-0x80(%rbp)
    a81c:	00 
    a81d:	48 b8 30 39 31 32 33 	movabs $0x3635343332313930,%rax
    a824:	34 35 36 
    a827:	48 89 85 38 ff ff ff 	mov    %rax,-0xc8(%rbp)
    a82e:	48 b8 37 38 61 62 63 	movabs $0x6665646362613837,%rax
    a835:	64 65 66 
    a838:	48 c7 85 18 ff ff ff 	movq   $0x0,-0xe8(%rbp)
    a83f:	00 00 00 00 
    a843:	48 89 85 40 ff ff ff 	mov    %rax,-0xc0(%rbp)
    a84a:	c7 85 48 ff ff ff 67 	movl   $0x6a696867,-0xb8(%rbp)
    a851:	68 69 6a 
    a854:	48 c7 85 78 ff ff ff 	movq   $0x0,-0x88(%rbp)
    a85b:	00 00 00 00 
    a85f:	c7 45 88 00 00 00 00 	movl   $0x0,-0x78(%rbp)
    a866:	e8 00 00 00 00       	call   a86b <ftest_send_receive_doubled+0x10b>
    a86b:	48 8b bd 18 ff ff ff 	mov    -0xe8(%rbp),%rdi
    a872:	89 85 c4 fe ff ff    	mov    %eax,-0x13c(%rbp)
    a878:	49 89 c5             	mov    %rax,%r13
    a87b:	e8 00 00 00 00       	call   a880 <ftest_send_receive_doubled+0x120>
    a880:	48 8b bd 18 ff ff ff 	mov    -0xe8(%rbp),%rdi
    a887:	48 8d b5 38 ff ff ff 	lea    -0xc8(%rbp),%rsi
    a88e:	89 85 c0 fe ff ff    	mov    %eax,-0x140(%rbp)
    a894:	49 89 c6             	mov    %rax,%r14
    a897:	e8 00 00 00 00       	call   a89c <ftest_send_receive_doubled+0x13c>
    a89c:	48 8b bd 18 ff ff ff 	mov    -0xe8(%rbp),%rdi
    a8a3:	48 8d b5 42 ff ff ff 	lea    -0xbe(%rbp),%rsi
    a8aa:	48 89 85 f0 fe ff ff 	mov    %rax,-0x110(%rbp)
    a8b1:	e8 00 00 00 00       	call   a8b6 <ftest_send_receive_doubled+0x156>
    a8b6:	48 8b bd 18 ff ff ff 	mov    -0xe8(%rbp),%rdi
    a8bd:	48 89 85 e8 fe ff ff 	mov    %rax,-0x118(%rbp)
    a8c4:	e8 00 00 00 00       	call   a8c9 <ftest_send_receive_doubled+0x169>
    a8c9:	48 8b bd 18 ff ff ff 	mov    -0xe8(%rbp),%rdi
    a8d0:	48 8d b5 78 ff ff ff 	lea    -0x88(%rbp),%rsi
    a8d7:	48 89 85 e0 fe ff ff 	mov    %rax,-0x120(%rbp)
    a8de:	e8 00 00 00 00       	call   a8e3 <ftest_send_receive_doubled+0x183>
    a8e3:	48 8b bd 18 ff ff ff 	mov    -0xe8(%rbp),%rdi
    a8ea:	48 8d 75 82          	lea    -0x7e(%rbp),%rsi
    a8ee:	48 89 85 d8 fe ff ff 	mov    %rax,-0x128(%rbp)
    a8f5:	e8 00 00 00 00       	call   a8fa <ftest_send_receive_doubled+0x19a>
    a8fa:	48 8b bd 18 ff ff ff 	mov    -0xe8(%rbp),%rdi
    a901:	48 89 85 d0 fe ff ff 	mov    %rax,-0x130(%rbp)
    a908:	e8 00 00 00 00       	call   a90d <ftest_send_receive_doubled+0x1ad>
    a90d:	4c 8b 95 c8 fe ff ff 	mov    -0x138(%rbp),%r10
    a914:	31 d2                	xor    %edx,%edx
    a916:	49 89 c0             	mov    %rax,%r8
    a919:	31 c0                	xor    %eax,%eax
    a91b:	48 63 f0             	movslq %eax,%rsi
    a91e:	48 83 fe 13          	cmp    $0x13,%rsi
    a922:	0f 87 55 02 00 00    	ja     ab7d <ftest_send_receive_doubled+0x41d>
    a928:	4c 89 e1             	mov    %r12,%rcx
    a92b:	4c 89 e7             	mov    %r12,%rdi
    a92e:	48 c1 e9 03          	shr    $0x3,%rcx
    a932:	83 e7 07             	and    $0x7,%edi
    a935:	42 0f b6 0c 39       	movzbl (%rcx,%r15,1),%ecx
    a93a:	40 38 f9             	cmp    %dil,%cl
    a93d:	7f 08                	jg     a947 <ftest_send_receive_doubled+0x1e7>
    a93f:	84 c9                	test   %cl,%cl
    a941:	0f 85 e6 01 00 00    	jne    ab2d <ftest_send_receive_doubled+0x3cd>
    a947:	45 0f b6 0c 24       	movzbl (%r12),%r9d
    a94c:	48 83 fe 13          	cmp    $0x13,%rsi
    a950:	0f 87 82 01 00 00    	ja     aad8 <ftest_send_receive_doubled+0x378>
    a956:	48 89 d9             	mov    %rbx,%rcx
    a959:	48 89 de             	mov    %rbx,%rsi
    a95c:	48 c1 e9 03          	shr    $0x3,%rcx
    a960:	83 e6 07             	and    $0x7,%esi
    a963:	42 0f b6 0c 39       	movzbl (%rcx,%r15,1),%ecx
    a968:	40 38 f1             	cmp    %sil,%cl
    a96b:	7f 08                	jg     a975 <ftest_send_receive_doubled+0x215>
    a96d:	84 c9                	test   %cl,%cl
    a96f:	0f 85 12 01 00 00    	jne    aa87 <ftest_send_receive_doubled+0x327>
    a975:	44 3a 0b             	cmp    (%rbx),%r9b
    a978:	b9 01 00 00 00       	mov    $0x1,%ecx
    a97d:	0f 45 d1             	cmovne %ecx,%edx
    a980:	83 c0 01             	add    $0x1,%eax
    a983:	49 83 c4 01          	add    $0x1,%r12
    a987:	48 83 c3 01          	add    $0x1,%rbx
    a98b:	83 f8 14             	cmp    $0x14,%eax
    a98e:	75 8b                	jne    a91b <ftest_send_receive_doubled+0x1bb>
    a990:	44 89 f0             	mov    %r14d,%eax
    a993:	48 8b 8d 18 ff ff ff 	mov    -0xe8(%rbp),%rcx
    a99a:	44 09 e8             	or     %r13d,%eax
    a99d:	0b 85 f0 fe ff ff    	or     -0x110(%rbp),%eax
    a9a3:	0b 85 e8 fe ff ff    	or     -0x118(%rbp),%eax
    a9a9:	0b 85 e0 fe ff ff    	or     -0x120(%rbp),%eax
    a9af:	0b 85 d8 fe ff ff    	or     -0x128(%rbp),%eax
    a9b5:	0b 85 d0 fe ff ff    	or     -0x130(%rbp),%eax
    a9bb:	44 09 c0             	or     %r8d,%eax
    a9be:	75 56                	jne    aa16 <ftest_send_receive_doubled+0x2b6>
    a9c0:	83 e2 01             	and    $0x1,%edx
    a9c3:	75 51                	jne    aa16 <ftest_send_receive_doubled+0x2b6>
    a9c5:	48 85 c9             	test   %rcx,%rcx
    a9c8:	74 4c                	je     aa16 <ftest_send_receive_doubled+0x2b6>
    a9ca:	31 c0                	xor    %eax,%eax
    a9cc:	48 ba 00 00 00 00 00 	movabs $0xdffffc0000000000,%rdx
    a9d3:	fc ff df 
    a9d6:	49 01 d2             	add    %rdx,%r10
    a9d9:	49 c7 02 00 00 00 00 	movq   $0x0,(%r10)
    a9e0:	49 c7 42 08 00 00 00 	movq   $0x0,0x8(%r10)
    a9e7:	00 
    a9e8:	49 c7 42 10 00 00 00 	movq   $0x0,0x10(%r10)
    a9ef:	00 
    a9f0:	48 8b 55 d0          	mov    -0x30(%rbp),%rdx
    a9f4:	65 48 2b 14 25 28 00 	sub    %gs:0x28,%rdx
    a9fb:	00 00 
    a9fd:	0f 85 ce 01 00 00    	jne    abd1 <ftest_send_receive_doubled+0x471>
    aa03:	48 8d 65 d8          	lea    -0x28(%rbp),%rsp
    aa07:	5b                   	pop    %rbx
    aa08:	41 5c                	pop    %r12
    aa0a:	41 5d                	pop    %r13
    aa0c:	41 5e                	pop    %r14
    aa0e:	41 5f                	pop    %r15
    aa10:	5d                   	pop    %rbp
    aa11:	e9 00 00 00 00       	jmp    aa16 <ftest_send_receive_doubled+0x2b6>
    aa16:	48 8d 85 38 ff ff ff 	lea    -0xc8(%rbp),%rax
    aa1d:	44 8b 8d e8 fe ff ff 	mov    -0x118(%rbp),%r9d
    aa24:	8b 95 c4 fe ff ff    	mov    -0x13c(%rbp),%edx
    aa2a:	4c 89 95 c8 fe ff ff 	mov    %r10,-0x138(%rbp)
    aa31:	50                   	push   %rax
    aa32:	48 8d 85 78 ff ff ff 	lea    -0x88(%rbp),%rax
    aa39:	48 8b 35 00 00 00 00 	mov    0x0(%rip),%rsi        # aa40 <ftest_send_receive_doubled+0x2e0>
    aa40:	50                   	push   %rax
    aa41:	8b 85 d0 fe ff ff    	mov    -0x130(%rbp),%eax
    aa47:	51                   	push   %rcx
    aa48:	8b 8d c0 fe ff ff    	mov    -0x140(%rbp),%ecx
    aa4e:	41 50                	push   %r8
    aa50:	44 8b 85 f0 fe ff ff 	mov    -0x110(%rbp),%r8d
    aa57:	50                   	push   %rax
    aa58:	8b 85 d8 fe ff ff    	mov    -0x128(%rbp),%eax
    aa5e:	48 8d 3d 00 00 00 00 	lea    0x0(%rip),%rdi        # aa65 <ftest_send_receive_doubled+0x305>
    aa65:	50                   	push   %rax
    aa66:	8b 85 e0 fe ff ff    	mov    -0x120(%rbp),%eax
    aa6c:	50                   	push   %rax
    aa6d:	e8 00 00 00 00       	call   aa72 <ftest_send_receive_doubled+0x312>
    aa72:	4c 8b 95 c8 fe ff ff 	mov    -0x138(%rbp),%r10
    aa79:	b8 fe ff ff ff       	mov    $0xfffffffe,%eax
    aa7e:	48 83 c4 38          	add    $0x38,%rsp
    aa82:	e9 45 ff ff ff       	jmp    a9cc <ftest_send_receive_doubled+0x26c>
    aa87:	48 89 df             	mov    %rbx,%rdi
    aa8a:	4c 89 95 a8 fe ff ff 	mov    %r10,-0x158(%rbp)
    aa91:	89 85 b0 fe ff ff    	mov    %eax,-0x150(%rbp)
    aa97:	88 95 b7 fe ff ff    	mov    %dl,-0x149(%rbp)
    aa9d:	4c 89 85 b8 fe ff ff 	mov    %r8,-0x148(%rbp)
    aaa4:	44 88 8d c8 fe ff ff 	mov    %r9b,-0x138(%rbp)
    aaab:	e8 00 00 00 00       	call   aab0 <ftest_send_receive_doubled+0x350>
    aab0:	4c 8b 95 a8 fe ff ff 	mov    -0x158(%rbp),%r10
    aab7:	8b 85 b0 fe ff ff    	mov    -0x150(%rbp),%eax
    aabd:	0f b6 95 b7 fe ff ff 	movzbl -0x149(%rbp),%edx
    aac4:	4c 8b 85 b8 fe ff ff 	mov    -0x148(%rbp),%r8
    aacb:	44 0f b6 8d c8 fe ff 	movzbl -0x138(%rbp),%r9d
    aad2:	ff 
    aad3:	e9 9d fe ff ff       	jmp    a975 <ftest_send_receive_doubled+0x215>
    aad8:	48 c7 c7 00 00 00 00 	mov    $0x0,%rdi
    aadf:	4c 89 95 a8 fe ff ff 	mov    %r10,-0x158(%rbp)
    aae6:	89 85 b0 fe ff ff    	mov    %eax,-0x150(%rbp)
    aaec:	88 95 b7 fe ff ff    	mov    %dl,-0x149(%rbp)
    aaf2:	4c 89 85 b8 fe ff ff 	mov    %r8,-0x148(%rbp)
    aaf9:	44 88 8d c8 fe ff ff 	mov    %r9b,-0x138(%rbp)
    ab00:	e8 00 00 00 00       	call   ab05 <ftest_send_receive_doubled+0x3a5>
    ab05:	4c 8b 95 a8 fe ff ff 	mov    -0x158(%rbp),%r10
    ab0c:	8b 85 b0 fe ff ff    	mov    -0x150(%rbp),%eax
    ab12:	0f b6 95 b7 fe ff ff 	movzbl -0x149(%rbp),%edx
    ab19:	4c 8b 85 b8 fe ff ff 	mov    -0x148(%rbp),%r8
    ab20:	44 0f b6 8d c8 fe ff 	movzbl -0x138(%rbp),%r9d
    ab27:	ff 
    ab28:	e9 29 fe ff ff       	jmp    a956 <ftest_send_receive_doubled+0x1f6>
    ab2d:	4c 89 e7             	mov    %r12,%rdi
    ab30:	4c 89 95 a8 fe ff ff 	mov    %r10,-0x158(%rbp)
    ab37:	89 85 b0 fe ff ff    	mov    %eax,-0x150(%rbp)
    ab3d:	88 95 b7 fe ff ff    	mov    %dl,-0x149(%rbp)
    ab43:	4c 89 85 b8 fe ff ff 	mov    %r8,-0x148(%rbp)
    ab4a:	48 89 b5 c8 fe ff ff 	mov    %rsi,-0x138(%rbp)
    ab51:	e8 00 00 00 00       	call   ab56 <ftest_send_receive_doubled+0x3f6>
    ab56:	4c 8b 95 a8 fe ff ff 	mov    -0x158(%rbp),%r10
    ab5d:	8b 85 b0 fe ff ff    	mov    -0x150(%rbp),%eax
    ab63:	0f b6 95 b7 fe ff ff 	movzbl -0x149(%rbp),%edx
    ab6a:	4c 8b 85 b8 fe ff ff 	mov    -0x148(%rbp),%r8
    ab71:	48 8b b5 c8 fe ff ff 	mov    -0x138(%rbp),%rsi
    ab78:	e9 ca fd ff ff       	jmp    a947 <ftest_send_receive_doubled+0x1e7>
    ab7d:	48 c7 c7 00 00 00 00 	mov    $0x0,%rdi
    ab84:	4c 89 95 a8 fe ff ff 	mov    %r10,-0x158(%rbp)
    ab8b:	89 85 b0 fe ff ff    	mov    %eax,-0x150(%rbp)
    ab91:	88 95 b7 fe ff ff    	mov    %dl,-0x149(%rbp)
    ab97:	4c 89 85 b8 fe ff ff 	mov    %r8,-0x148(%rbp)
    ab9e:	48 89 b5 c8 fe ff ff 	mov    %rsi,-0x138(%rbp)
    aba5:	e8 00 00 00 00       	call   abaa <ftest_send_receive_doubled+0x44a>
    abaa:	4c 8b 95 a8 fe ff ff 	mov    -0x158(%rbp),%r10
    abb1:	8b 85 b0 fe ff ff    	mov    -0x150(%rbp),%eax
    abb7:	0f b6 95 b7 fe ff ff 	movzbl -0x149(%rbp),%edx
    abbe:	4c 8b 85 b8 fe ff ff 	mov    -0x148(%rbp),%r8
    abc5:	48 8b b5 c8 fe ff ff 	mov    -0x138(%rbp),%rsi
    abcc:	e9 57 fd ff ff       	jmp    a928 <ftest_send_receive_doubled+0x1c8>
    abd1:	e8 00 00 00 00       	call   abd6 <ftest_send_receive_doubled+0x476>
    abd6:	66 2e 0f 1f 84 00 00 	cs nopw 0x0(%rax,%rax,1)
    abdd:	00 00 00 

000000000000abe0 <__pfx_ftest_send_recevie_tripled_without_subscribe>:
    abe0:	90                   	nop
    abe1:	90                   	nop
    abe2:	90                   	nop
    abe3:	90                   	nop
    abe4:	90                   	nop
    abe5:	90                   	nop
    abe6:	90                   	nop
    abe7:	90                   	nop
    abe8:	90                   	nop
    abe9:	90                   	nop
    abea:	90                   	nop
    abeb:	90                   	nop
    abec:	90                   	nop
    abed:	90                   	nop
    abee:	90                   	nop
    abef:	90                   	nop

000000000000abf0 <ftest_send_recevie_tripled_without_subscribe>:
    abf0:	f3 0f 1e fa          	endbr64
    abf4:	e8 00 00 00 00       	call   abf9 <ftest_send_recevie_tripled_without_subscribe+0x9>
    abf9:	55                   	push   %rbp
    abfa:	bf 73 74 00 00       	mov    $0x7473,%edi
    abff:	45 31 c0             	xor    %r8d,%r8d
    ac02:	be 0a 00 00 00       	mov    $0xa,%esi
    ac07:	48 89 e5             	mov    %rsp,%rbp
    ac0a:	41 57                	push   %r15
    ac0c:	41 56                	push   %r14
    ac0e:	4c 8d 95 f8 fe ff ff 	lea    -0x108(%rbp),%r10
    ac15:	48 8d 95 18 ff ff ff 	lea    -0xe8(%rbp),%rdx
    ac1c:	49 be 00 00 00 00 00 	movabs $0xdffffc0000000000,%r14
    ac23:	fc ff df 
    ac26:	41 55                	push   %r13
    ac28:	49 c1 ea 03          	shr    $0x3,%r10
    ac2c:	45 31 ed             	xor    %r13d,%r13d
    ac2f:	41 54                	push   %r12
    ac31:	4b 8d 04 32          	lea    (%r10,%r14,1),%rax
    ac35:	4c 8d a5 78 ff ff ff 	lea    -0x88(%rbp),%r12
    ac3c:	53                   	push   %rbx
    ac3d:	48 8d 9d 4c ff ff ff 	lea    -0xb4(%rbp),%rbx
    ac44:	48 81 ec 48 01 00 00 	sub    $0x148,%rsp
    ac4b:	4c 89 95 b0 fe ff ff 	mov    %r10,-0x150(%rbp)
    ac52:	48 c7 85 f8 fe ff ff 	movq   $0x41b58ab3,-0x108(%rbp)
    ac59:	b3 8a b5 41 
    ac5d:	48 c7 85 00 ff ff ff 	movq   $0x0,-0x100(%rbp)
    ac64:	00 00 00 00 
    ac68:	48 c7 85 08 ff ff ff 	movq   $0x0,-0xf8(%rbp)
    ac6f:	00 00 00 00 
    ac73:	c7 00 f1 f1 f1 f1    	movl   $0xf1f1f1f1,(%rax)
    ac79:	c7 40 04 00 f2 f2 f2 	movl   $0xf2f2f200,0x4(%rax)
    ac80:	c7 40 08 00 00 00 06 	movl   $0x6000000,0x8(%rax)
    ac87:	c7 40 0c f2 f2 f2 f2 	movl   $0xf2f2f2f2,0xc(%rax)
    ac8e:	c7 40 10 00 00 00 06 	movl   $0x6000000,0x10(%rax)
    ac95:	c7 40 14 f3 f3 f3 f3 	movl   $0xf3f3f3f3,0x14(%rax)
    ac9c:	65 48 8b 04 25 28 00 	mov    %gs:0x28,%rax
    aca3:	00 00 
    aca5:	48 89 45 d0          	mov    %rax,-0x30(%rbp)
    aca9:	31 c0                	xor    %eax,%eax
    acab:	66 89 bd 54 ff ff ff 	mov    %di,-0xac(%rbp)
    acb2:	bf 02 00 00 00       	mov    $0x2,%edi
    acb7:	48 b8 30 39 31 32 33 	movabs $0x3635343332313930,%rax
    acbe:	34 35 36 
    acc1:	48 89 85 38 ff ff ff 	mov    %rax,-0xc8(%rbp)
    acc8:	48 b8 37 38 61 62 63 	movabs $0x6665646362613837,%rax
    accf:	64 65 66 
    acd2:	48 89 85 40 ff ff ff 	mov    %rax,-0xc0(%rbp)
    acd9:	48 b8 67 68 69 6a 6b 	movabs $0x6e6d6c6b6a696867,%rax
    ace0:	6c 6d 6e 
    ace3:	66 44 89 45 94       	mov    %r8w,-0x6c(%rbp)
    ace8:	48 c7 85 18 ff ff ff 	movq   $0x0,-0xe8(%rbp)
    acef:	00 00 00 00 
    acf3:	48 89 85 48 ff ff ff 	mov    %rax,-0xb8(%rbp)
    acfa:	c7 85 50 ff ff ff 6f 	movl   $0x7271706f,-0xb0(%rbp)
    ad01:	70 71 72 
    ad04:	48 c7 85 78 ff ff ff 	movq   $0x0,-0x88(%rbp)
    ad0b:	00 00 00 00 
    ad0f:	48 c7 45 80 00 00 00 	movq   $0x0,-0x80(%rbp)
    ad16:	00 
    ad17:	48 c7 45 88 00 00 00 	movq   $0x0,-0x78(%rbp)
    ad1e:	00 
    ad1f:	c7 45 90 00 00 00 00 	movl   $0x0,-0x70(%rbp)
    ad26:	e8 00 00 00 00       	call   ad2b <ftest_send_recevie_tripled_without_subscribe+0x13b>
    ad2b:	48 8b bd 18 ff ff ff 	mov    -0xe8(%rbp),%rdi
    ad32:	89 85 ac fe ff ff    	mov    %eax,-0x154(%rbp)
    ad38:	49 89 c7             	mov    %rax,%r15
    ad3b:	e8 00 00 00 00       	call   ad40 <ftest_send_recevie_tripled_without_subscribe+0x150>
    ad40:	48 8b bd 18 ff ff ff 	mov    -0xe8(%rbp),%rdi
    ad47:	48 8d b5 38 ff ff ff 	lea    -0xc8(%rbp),%rsi
    ad4e:	89 85 a8 fe ff ff    	mov    %eax,-0x158(%rbp)
    ad54:	48 89 85 b8 fe ff ff 	mov    %rax,-0x148(%rbp)
    ad5b:	e8 00 00 00 00       	call   ad60 <ftest_send_recevie_tripled_without_subscribe+0x170>
    ad60:	48 8b bd 18 ff ff ff 	mov    -0xe8(%rbp),%rdi
    ad67:	48 8d b5 42 ff ff ff 	lea    -0xbe(%rbp),%rsi
    ad6e:	48 89 85 f0 fe ff ff 	mov    %rax,-0x110(%rbp)
    ad75:	e8 00 00 00 00       	call   ad7a <ftest_send_recevie_tripled_without_subscribe+0x18a>
    ad7a:	48 8b bd 18 ff ff ff 	mov    -0xe8(%rbp),%rdi
    ad81:	48 8d b5 4c ff ff ff 	lea    -0xb4(%rbp),%rsi
    ad88:	48 89 85 e8 fe ff ff 	mov    %rax,-0x118(%rbp)
    ad8f:	e8 00 00 00 00       	call   ad94 <ftest_send_recevie_tripled_without_subscribe+0x1a4>
    ad94:	48 8b bd 18 ff ff ff 	mov    -0xe8(%rbp),%rdi
    ad9b:	48 89 85 e0 fe ff ff 	mov    %rax,-0x120(%rbp)
    ada2:	e8 00 00 00 00       	call   ada7 <ftest_send_recevie_tripled_without_subscribe+0x1b7>
    ada7:	48 8b bd 18 ff ff ff 	mov    -0xe8(%rbp),%rdi
    adae:	48 8d b5 78 ff ff ff 	lea    -0x88(%rbp),%rsi
    adb5:	48 89 85 d8 fe ff ff 	mov    %rax,-0x128(%rbp)
    adbc:	e8 00 00 00 00       	call   adc1 <ftest_send_recevie_tripled_without_subscribe+0x1d1>
    adc1:	48 8b bd 18 ff ff ff 	mov    -0xe8(%rbp),%rdi
    adc8:	48 8d 75 82          	lea    -0x7e(%rbp),%rsi
    adcc:	48 89 85 d0 fe ff ff 	mov    %rax,-0x130(%rbp)
    add3:	e8 00 00 00 00       	call   add8 <ftest_send_recevie_tripled_without_subscribe+0x1e8>
    add8:	48 8b bd 18 ff ff ff 	mov    -0xe8(%rbp),%rdi
    addf:	48 8d 75 8c          	lea    -0x74(%rbp),%rsi
    ade3:	48 89 85 c8 fe ff ff 	mov    %rax,-0x138(%rbp)
    adea:	e8 00 00 00 00       	call   adef <ftest_send_recevie_tripled_without_subscribe+0x1ff>
    adef:	48 8b bd 18 ff ff ff 	mov    -0xe8(%rbp),%rdi
    adf6:	48 89 85 c0 fe ff ff 	mov    %rax,-0x140(%rbp)
    adfd:	e8 00 00 00 00       	call   ae02 <ftest_send_recevie_tripled_without_subscribe+0x212>
    ae02:	48 8b 95 b8 fe ff ff 	mov    -0x148(%rbp),%rdx
    ae09:	4c 8b 95 b0 fe ff ff 	mov    -0x150(%rbp),%r10
    ae10:	31 c9                	xor    %ecx,%ecx
    ae12:	49 89 c1             	mov    %rax,%r9
    ae15:	eb 1b                	jmp    ae32 <ftest_send_recevie_tripled_without_subscribe+0x242>
    ae17:	b9 01 00 00 00       	mov    $0x1,%ecx
    ae1c:	41 83 c5 01          	add    $0x1,%r13d
    ae20:	49 83 c4 01          	add    $0x1,%r12
    ae24:	48 83 c3 01          	add    $0x1,%rbx
    ae28:	41 83 fd 0a          	cmp    $0xa,%r13d
    ae2c:	0f 84 e3 00 00 00    	je     af15 <ftest_send_recevie_tripled_without_subscribe+0x325>
    ae32:	49 63 f5             	movslq %r13d,%rsi
    ae35:	48 83 fe 1d          	cmp    $0x1d,%rsi
    ae39:	0f 87 d1 02 00 00    	ja     b110 <ftest_send_recevie_tripled_without_subscribe+0x520>
    ae3f:	4c 89 e0             	mov    %r12,%rax
    ae42:	4c 89 e6             	mov    %r12,%rsi
    ae45:	48 c1 e8 03          	shr    $0x3,%rax
    ae49:	83 e6 07             	and    $0x7,%esi
    ae4c:	42 0f b6 04 30       	movzbl (%rax,%r14,1),%eax
    ae51:	40 38 f0             	cmp    %sil,%al
    ae54:	7f 08                	jg     ae5e <ftest_send_recevie_tripled_without_subscribe+0x26e>
    ae56:	84 c0                	test   %al,%al
    ae58:	0f 85 6e 02 00 00    	jne    b0cc <ftest_send_recevie_tripled_without_subscribe+0x4dc>
    ae5e:	41 8d 75 14          	lea    0x14(%r13),%esi
    ae62:	41 0f b6 04 24       	movzbl (%r12),%eax
    ae67:	48 63 f6             	movslq %esi,%rsi
    ae6a:	48 83 fe 1d          	cmp    $0x1d,%rsi
    ae6e:	0f 87 03 02 00 00    	ja     b077 <ftest_send_recevie_tripled_without_subscribe+0x487>
    ae74:	48 89 de             	mov    %rbx,%rsi
    ae77:	48 89 df             	mov    %rbx,%rdi
    ae7a:	48 c1 ee 03          	shr    $0x3,%rsi
    ae7e:	83 e7 07             	and    $0x7,%edi
    ae81:	42 0f b6 34 36       	movzbl (%rsi,%r14,1),%esi
    ae86:	40 38 fe             	cmp    %dil,%sil
    ae89:	7f 09                	jg     ae94 <ftest_send_recevie_tripled_without_subscribe+0x2a4>
    ae8b:	40 84 f6             	test   %sil,%sil
    ae8e:	0f 85 92 01 00 00    	jne    b026 <ftest_send_recevie_tripled_without_subscribe+0x436>
    ae94:	3a 03                	cmp    (%rbx),%al
    ae96:	0f 85 7b ff ff ff    	jne    ae17 <ftest_send_recevie_tripled_without_subscribe+0x227>
    ae9c:	41 8d 75 0a          	lea    0xa(%r13),%esi
    aea0:	48 63 f6             	movslq %esi,%rsi
    aea3:	48 83 fe 1d          	cmp    $0x1d,%rsi
    aea7:	0f 87 f9 02 00 00    	ja     b1a6 <ftest_send_recevie_tripled_without_subscribe+0x5b6>
    aead:	49 8d 7c 24 0a       	lea    0xa(%r12),%rdi
    aeb2:	48 89 f8             	mov    %rdi,%rax
    aeb5:	49 89 f8             	mov    %rdi,%r8
    aeb8:	48 c1 e8 03          	shr    $0x3,%rax
    aebc:	41 83 e0 07          	and    $0x7,%r8d
    aec0:	42 0f b6 04 30       	movzbl (%rax,%r14,1),%eax
    aec5:	44 38 c0             	cmp    %r8b,%al
    aec8:	7f 08                	jg     aed2 <ftest_send_recevie_tripled_without_subscribe+0x2e2>
    aeca:	84 c0                	test   %al,%al
    aecc:	0f 85 7f 03 00 00    	jne    b251 <ftest_send_recevie_tripled_without_subscribe+0x661>
    aed2:	41 0f b6 44 24 0a    	movzbl 0xa(%r12),%eax
    aed8:	48 83 fe 1d          	cmp    $0x1d,%rsi
    aedc:	0f 87 1a 03 00 00    	ja     b1fc <ftest_send_recevie_tripled_without_subscribe+0x60c>
    aee2:	48 8d 7b f6          	lea    -0xa(%rbx),%rdi
    aee6:	48 89 fe             	mov    %rdi,%rsi
    aee9:	49 89 f8             	mov    %rdi,%r8
    aeec:	48 c1 ee 03          	shr    $0x3,%rsi
    aef0:	41 83 e0 07          	and    $0x7,%r8d
    aef4:	42 0f b6 34 36       	movzbl (%rsi,%r14,1),%esi
    aef9:	44 38 c6             	cmp    %r8b,%sil
    aefc:	7f 09                	jg     af07 <ftest_send_recevie_tripled_without_subscribe+0x317>
    aefe:	40 84 f6             	test   %sil,%sil
    af01:	0f 85 51 02 00 00    	jne    b158 <ftest_send_recevie_tripled_without_subscribe+0x568>
    af07:	3a 43 f6             	cmp    -0xa(%rbx),%al
    af0a:	0f 85 07 ff ff ff    	jne    ae17 <ftest_send_recevie_tripled_without_subscribe+0x227>
    af10:	e9 07 ff ff ff       	jmp    ae1c <ftest_send_recevie_tripled_without_subscribe+0x22c>
    af15:	89 d0                	mov    %edx,%eax
    af17:	48 8b 95 18 ff ff ff 	mov    -0xe8(%rbp),%rdx
    af1e:	44 09 f8             	or     %r15d,%eax
    af21:	0b 85 f0 fe ff ff    	or     -0x110(%rbp),%eax
    af27:	0b 85 e8 fe ff ff    	or     -0x118(%rbp),%eax
    af2d:	0b 85 e0 fe ff ff    	or     -0x120(%rbp),%eax
    af33:	0b 85 d8 fe ff ff    	or     -0x128(%rbp),%eax
    af39:	0b 85 d0 fe ff ff    	or     -0x130(%rbp),%eax
    af3f:	0b 85 c8 fe ff ff    	or     -0x138(%rbp),%eax
    af45:	44 09 c8             	or     %r9d,%eax
    af48:	75 5d                	jne    afa7 <ftest_send_recevie_tripled_without_subscribe+0x3b7>
    af4a:	8b b5 c0 fe ff ff    	mov    -0x140(%rbp),%esi
    af50:	85 f6                	test   %esi,%esi
    af52:	74 53                	je     afa7 <ftest_send_recevie_tripled_without_subscribe+0x3b7>
    af54:	84 c9                	test   %cl,%cl
    af56:	75 4f                	jne    afa7 <ftest_send_recevie_tripled_without_subscribe+0x3b7>
    af58:	48 85 d2             	test   %rdx,%rdx
    af5b:	74 4a                	je     afa7 <ftest_send_recevie_tripled_without_subscribe+0x3b7>
    af5d:	48 ba 00 00 00 00 00 	movabs $0xdffffc0000000000,%rdx
    af64:	fc ff df 
    af67:	49 01 d2             	add    %rdx,%r10
    af6a:	49 c7 02 00 00 00 00 	movq   $0x0,(%r10)
    af71:	49 c7 42 08 00 00 00 	movq   $0x0,0x8(%r10)
    af78:	00 
    af79:	49 c7 42 10 00 00 00 	movq   $0x0,0x10(%r10)
    af80:	00 
    af81:	48 8b 55 d0          	mov    -0x30(%rbp),%rdx
    af85:	65 48 2b 14 25 28 00 	sub    %gs:0x28,%rdx
    af8c:	00 00 
    af8e:	0f 85 0c 03 00 00    	jne    b2a0 <ftest_send_recevie_tripled_without_subscribe+0x6b0>
    af94:	48 8d 65 d8          	lea    -0x28(%rbp),%rsp
    af98:	5b                   	pop    %rbx
    af99:	41 5c                	pop    %r12
    af9b:	41 5d                	pop    %r13
    af9d:	41 5e                	pop    %r14
    af9f:	41 5f                	pop    %r15
    afa1:	5d                   	pop    %rbp
    afa2:	e9 00 00 00 00       	jmp    afa7 <ftest_send_recevie_tripled_without_subscribe+0x3b7>
    afa7:	48 8d 85 38 ff ff ff 	lea    -0xc8(%rbp),%rax
    afae:	44 8b 85 f0 fe ff ff 	mov    -0x110(%rbp),%r8d
    afb5:	8b 8d a8 fe ff ff    	mov    -0x158(%rbp),%ecx
    afbb:	4c 89 95 b8 fe ff ff 	mov    %r10,-0x148(%rbp)
    afc2:	50                   	push   %rax
    afc3:	48 8d 85 78 ff ff ff 	lea    -0x88(%rbp),%rax
    afca:	48 8b 35 00 00 00 00 	mov    0x0(%rip),%rsi        # afd1 <ftest_send_recevie_tripled_without_subscribe+0x3e1>
    afd1:	50                   	push   %rax
    afd2:	8b 85 c0 fe ff ff    	mov    -0x140(%rbp),%eax
    afd8:	52                   	push   %rdx
    afd9:	8b 95 ac fe ff ff    	mov    -0x154(%rbp),%edx
    afdf:	41 51                	push   %r9
    afe1:	44 8b 8d e8 fe ff ff 	mov    -0x118(%rbp),%r9d
    afe8:	50                   	push   %rax
    afe9:	8b 85 c8 fe ff ff    	mov    -0x138(%rbp),%eax
    afef:	48 8d 3d 00 00 00 00 	lea    0x0(%rip),%rdi        # aff6 <ftest_send_recevie_tripled_without_subscribe+0x406>
    aff6:	50                   	push   %rax
    aff7:	8b 85 d0 fe ff ff    	mov    -0x130(%rbp),%eax
    affd:	50                   	push   %rax
    affe:	8b 85 d8 fe ff ff    	mov    -0x128(%rbp),%eax
    b004:	50                   	push   %rax
    b005:	8b 85 e0 fe ff ff    	mov    -0x120(%rbp),%eax
    b00b:	50                   	push   %rax
    b00c:	e8 00 00 00 00       	call   b011 <ftest_send_recevie_tripled_without_subscribe+0x421>
    b011:	4c 8b 95 b8 fe ff ff 	mov    -0x148(%rbp),%r10
    b018:	b8 fe ff ff ff       	mov    $0xfffffffe,%eax
    b01d:	48 83 c4 48          	add    $0x48,%rsp
    b021:	e9 37 ff ff ff       	jmp    af5d <ftest_send_recevie_tripled_without_subscribe+0x36d>
    b026:	48 89 df             	mov    %rbx,%rdi
    b029:	4c 89 95 90 fe ff ff 	mov    %r10,-0x170(%rbp)
    b030:	88 8d 98 fe ff ff    	mov    %cl,-0x168(%rbp)
    b036:	4c 89 8d a0 fe ff ff 	mov    %r9,-0x160(%rbp)
    b03d:	48 89 95 b0 fe ff ff 	mov    %rdx,-0x150(%rbp)
    b044:	88 85 b8 fe ff ff    	mov    %al,-0x148(%rbp)
    b04a:	e8 00 00 00 00       	call   b04f <ftest_send_recevie_tripled_without_subscribe+0x45f>
    b04f:	4c 8b 95 90 fe ff ff 	mov    -0x170(%rbp),%r10
    b056:	0f b6 8d 98 fe ff ff 	movzbl -0x168(%rbp),%ecx
    b05d:	4c 8b 8d a0 fe ff ff 	mov    -0x160(%rbp),%r9
    b064:	48 8b 95 b0 fe ff ff 	mov    -0x150(%rbp),%rdx
    b06b:	0f b6 85 b8 fe ff ff 	movzbl -0x148(%rbp),%eax
    b072:	e9 1d fe ff ff       	jmp    ae94 <ftest_send_recevie_tripled_without_subscribe+0x2a4>
    b077:	48 c7 c7 00 00 00 00 	mov    $0x0,%rdi
    b07e:	4c 89 95 90 fe ff ff 	mov    %r10,-0x170(%rbp)
    b085:	88 8d 98 fe ff ff    	mov    %cl,-0x168(%rbp)
    b08b:	4c 89 8d a0 fe ff ff 	mov    %r9,-0x160(%rbp)
    b092:	48 89 95 b0 fe ff ff 	mov    %rdx,-0x150(%rbp)
    b099:	88 85 b8 fe ff ff    	mov    %al,-0x148(%rbp)
    b09f:	e8 00 00 00 00       	call   b0a4 <ftest_send_recevie_tripled_without_subscribe+0x4b4>
    b0a4:	4c 8b 95 90 fe ff ff 	mov    -0x170(%rbp),%r10
    b0ab:	0f b6 8d 98 fe ff ff 	movzbl -0x168(%rbp),%ecx
    b0b2:	4c 8b 8d a0 fe ff ff 	mov    -0x160(%rbp),%r9
    b0b9:	48 8b 95 b0 fe ff ff 	mov    -0x150(%rbp),%rdx
    b0c0:	0f b6 85 b8 fe ff ff 	movzbl -0x148(%rbp),%eax
    b0c7:	e9 a8 fd ff ff       	jmp    ae74 <ftest_send_recevie_tripled_without_subscribe+0x284>
    b0cc:	4c 89 e7             	mov    %r12,%rdi
    b0cf:	4c 89 95 98 fe ff ff 	mov    %r10,-0x168(%rbp)
    b0d6:	88 8d a0 fe ff ff    	mov    %cl,-0x160(%rbp)
    b0dc:	4c 89 8d b0 fe ff ff 	mov    %r9,-0x150(%rbp)
    b0e3:	48 89 95 b8 fe ff ff 	mov    %rdx,-0x148(%rbp)
    b0ea:	e8 00 00 00 00       	call   b0ef <ftest_send_recevie_tripled_without_subscribe+0x4ff>
    b0ef:	4c 8b 95 98 fe ff ff 	mov    -0x168(%rbp),%r10
    b0f6:	0f b6 8d a0 fe ff ff 	movzbl -0x160(%rbp),%ecx
    b0fd:	4c 8b 8d b0 fe ff ff 	mov    -0x150(%rbp),%r9
    b104:	48 8b 95 b8 fe ff ff 	mov    -0x148(%rbp),%rdx
    b10b:	e9 4e fd ff ff       	jmp    ae5e <ftest_send_recevie_tripled_without_subscribe+0x26e>
    b110:	48 c7 c7 00 00 00 00 	mov    $0x0,%rdi
    b117:	4c 89 95 98 fe ff ff 	mov    %r10,-0x168(%rbp)
    b11e:	88 8d a0 fe ff ff    	mov    %cl,-0x160(%rbp)
    b124:	4c 89 8d b0 fe ff ff 	mov    %r9,-0x150(%rbp)
    b12b:	48 89 95 b8 fe ff ff 	mov    %rdx,-0x148(%rbp)
    b132:	e8 00 00 00 00       	call   b137 <ftest_send_recevie_tripled_without_subscribe+0x547>
    b137:	4c 8b 95 98 fe ff ff 	mov    -0x168(%rbp),%r10
    b13e:	0f b6 8d a0 fe ff ff 	movzbl -0x160(%rbp),%ecx
    b145:	4c 8b 8d b0 fe ff ff 	mov    -0x150(%rbp),%r9
    b14c:	48 8b 95 b8 fe ff ff 	mov    -0x148(%rbp),%rdx
    b153:	e9 e7 fc ff ff       	jmp    ae3f <ftest_send_recevie_tripled_without_subscribe+0x24f>
    b158:	4c 89 95 90 fe ff ff 	mov    %r10,-0x170(%rbp)
    b15f:	88 8d 98 fe ff ff    	mov    %cl,-0x168(%rbp)
    b165:	4c 89 8d a0 fe ff ff 	mov    %r9,-0x160(%rbp)
    b16c:	48 89 95 b0 fe ff ff 	mov    %rdx,-0x150(%rbp)
    b173:	88 85 b8 fe ff ff    	mov    %al,-0x148(%rbp)
    b179:	e8 00 00 00 00       	call   b17e <ftest_send_recevie_tripled_without_subscribe+0x58e>
    b17e:	4c 8b 95 90 fe ff ff 	mov    -0x170(%rbp),%r10
    b185:	0f b6 8d 98 fe ff ff 	movzbl -0x168(%rbp),%ecx
    b18c:	4c 8b 8d a0 fe ff ff 	mov    -0x160(%rbp),%r9
    b193:	48 8b 95 b0 fe ff ff 	mov    -0x150(%rbp),%rdx
    b19a:	0f b6 85 b8 fe ff ff 	movzbl -0x148(%rbp),%eax
    b1a1:	e9 61 fd ff ff       	jmp    af07 <ftest_send_recevie_tripled_without_subscribe+0x317>
    b1a6:	48 c7 c7 00 00 00 00 	mov    $0x0,%rdi
    b1ad:	4c 89 95 90 fe ff ff 	mov    %r10,-0x170(%rbp)
    b1b4:	88 8d 98 fe ff ff    	mov    %cl,-0x168(%rbp)
    b1ba:	4c 89 8d a0 fe ff ff 	mov    %r9,-0x160(%rbp)
    b1c1:	48 89 95 b0 fe ff ff 	mov    %rdx,-0x150(%rbp)
    b1c8:	48 89 b5 b8 fe ff ff 	mov    %rsi,-0x148(%rbp)
    b1cf:	e8 00 00 00 00       	call   b1d4 <ftest_send_recevie_tripled_without_subscribe+0x5e4>
    b1d4:	4c 8b 95 90 fe ff ff 	mov    -0x170(%rbp),%r10
    b1db:	0f b6 8d 98 fe ff ff 	movzbl -0x168(%rbp),%ecx
    b1e2:	4c 8b 8d a0 fe ff ff 	mov    -0x160(%rbp),%r9
    b1e9:	48 8b 95 b0 fe ff ff 	mov    -0x150(%rbp),%rdx
    b1f0:	48 8b b5 b8 fe ff ff 	mov    -0x148(%rbp),%rsi
    b1f7:	e9 b1 fc ff ff       	jmp    aead <ftest_send_recevie_tripled_without_subscribe+0x2bd>
    b1fc:	48 c7 c7 00 00 00 00 	mov    $0x0,%rdi
    b203:	4c 89 95 90 fe ff ff 	mov    %r10,-0x170(%rbp)
    b20a:	88 8d 98 fe ff ff    	mov    %cl,-0x168(%rbp)
    b210:	4c 89 8d a0 fe ff ff 	mov    %r9,-0x160(%rbp)
    b217:	48 89 95 b0 fe ff ff 	mov    %rdx,-0x150(%rbp)
    b21e:	88 85 b8 fe ff ff    	mov    %al,-0x148(%rbp)
    b224:	e8 00 00 00 00       	call   b229 <ftest_send_recevie_tripled_without_subscribe+0x639>
    b229:	4c 8b 95 90 fe ff ff 	mov    -0x170(%rbp),%r10
    b230:	0f b6 8d 98 fe ff ff 	movzbl -0x168(%rbp),%ecx
    b237:	4c 8b 8d a0 fe ff ff 	mov    -0x160(%rbp),%r9
    b23e:	48 8b 95 b0 fe ff ff 	mov    -0x150(%rbp),%rdx
    b245:	0f b6 85 b8 fe ff ff 	movzbl -0x148(%rbp),%eax
    b24c:	e9 91 fc ff ff       	jmp    aee2 <ftest_send_recevie_tripled_without_subscribe+0x2f2>
    b251:	4c 89 95 90 fe ff ff 	mov    %r10,-0x170(%rbp)
    b258:	88 8d 98 fe ff ff    	mov    %cl,-0x168(%rbp)
    b25e:	4c 89 8d a0 fe ff ff 	mov    %r9,-0x160(%rbp)
    b265:	48 89 95 b0 fe ff ff 	mov    %rdx,-0x150(%rbp)
    b26c:	48 89 b5 b8 fe ff ff 	mov    %rsi,-0x148(%rbp)
    b273:	e8 00 00 00 00       	call   b278 <ftest_send_recevie_tripled_without_subscribe+0x688>
    b278:	4c 8b 95 90 fe ff ff 	mov    -0x170(%rbp),%r10
    b27f:	0f b6 8d 98 fe ff ff 	movzbl -0x168(%rbp),%ecx
    b286:	4c 8b 8d a0 fe ff ff 	mov    -0x160(%rbp),%r9
    b28d:	48 8b 95 b0 fe ff ff 	mov    -0x150(%rbp),%rdx
    b294:	48 8b b5 b8 fe ff ff 	mov    -0x148(%rbp),%rsi
    b29b:	e9 32 fc ff ff       	jmp    aed2 <ftest_send_recevie_tripled_without_subscribe+0x2e2>
    b2a0:	e8 00 00 00 00       	call   b2a5 <ftest_send_recevie_tripled_without_subscribe+0x6b5>
    b2a5:	66 66 2e 0f 1f 84 00 	data16 cs nopw 0x0(%rax,%rax,1)
    b2ac:	00 00 00 00 

000000000000b2b0 <__pfx_ftest_send_receive_tripled_with_subscribe>:
    b2b0:	90                   	nop
    b2b1:	90                   	nop
    b2b2:	90                   	nop
    b2b3:	90                   	nop
    b2b4:	90                   	nop
    b2b5:	90                   	nop
    b2b6:	90                   	nop
    b2b7:	90                   	nop
    b2b8:	90                   	nop
    b2b9:	90                   	nop
    b2ba:	90                   	nop
    b2bb:	90                   	nop
    b2bc:	90                   	nop
    b2bd:	90                   	nop
    b2be:	90                   	nop
    b2bf:	90                   	nop

000000000000b2c0 <ftest_send_receive_tripled_with_subscribe>:
    b2c0:	f3 0f 1e fa          	endbr64
    b2c4:	e8 00 00 00 00       	call   b2c9 <ftest_send_receive_tripled_with_subscribe+0x9>
    b2c9:	55                   	push   %rbp
    b2ca:	41 b8 73 74 00 00    	mov    $0x7473,%r8d
    b2d0:	45 31 c9             	xor    %r9d,%r9d
    b2d3:	be 0a 00 00 00       	mov    $0xa,%esi
    b2d8:	48 b9 00 00 00 00 00 	movabs $0xdffffc0000000000,%rcx
    b2df:	fc ff df 
    b2e2:	bf 02 00 00 00       	mov    $0x2,%edi
    b2e7:	48 89 e5             	mov    %rsp,%rbp
    b2ea:	41 57                	push   %r15
    b2ec:	41 56                	push   %r14
    b2ee:	4c 8d 95 f8 fe ff ff 	lea    -0x108(%rbp),%r10
    b2f5:	48 8d 95 18 ff ff ff 	lea    -0xe8(%rbp),%rdx
    b2fc:	41 55                	push   %r13
    b2fe:	49 c1 ea 03          	shr    $0x3,%r10
    b302:	45 31 ed             	xor    %r13d,%r13d
    b305:	41 54                	push   %r12
    b307:	49 8d 04 0a          	lea    (%r10,%rcx,1),%rax
    b30b:	4c 8d a5 78 ff ff ff 	lea    -0x88(%rbp),%r12
    b312:	53                   	push   %rbx
    b313:	48 8d 9d 38 ff ff ff 	lea    -0xc8(%rbp),%rbx
    b31a:	48 81 ec 40 01 00 00 	sub    $0x140,%rsp
    b321:	4c 89 95 b8 fe ff ff 	mov    %r10,-0x148(%rbp)
    b328:	48 c7 85 f8 fe ff ff 	movq   $0x41b58ab3,-0x108(%rbp)
    b32f:	b3 8a b5 41 
    b333:	48 c7 85 00 ff ff ff 	movq   $0x0,-0x100(%rbp)
    b33a:	00 00 00 00 
    b33e:	48 c7 85 08 ff ff ff 	movq   $0x0,-0xf8(%rbp)
    b345:	00 00 00 00 
    b349:	c7 00 f1 f1 f1 f1    	movl   $0xf1f1f1f1,(%rax)
    b34f:	c7 40 04 00 f2 f2 f2 	movl   $0xf2f2f200,0x4(%rax)
    b356:	c7 40 08 00 00 00 06 	movl   $0x6000000,0x8(%rax)
    b35d:	c7 40 0c f2 f2 f2 f2 	movl   $0xf2f2f2f2,0xc(%rax)
    b364:	c7 40 10 00 00 00 06 	movl   $0x6000000,0x10(%rax)
    b36b:	c7 40 14 f3 f3 f3 f3 	movl   $0xf3f3f3f3,0x14(%rax)
    b372:	65 48 8b 04 25 28 00 	mov    %gs:0x28,%rax
    b379:	00 00 
    b37b:	48 89 45 d0          	mov    %rax,-0x30(%rbp)
    b37f:	31 c0                	xor    %eax,%eax
    b381:	66 44 89 85 54 ff ff 	mov    %r8w,-0xac(%rbp)
    b388:	ff 
    b389:	48 b8 30 39 31 32 33 	movabs $0x3635343332313930,%rax
    b390:	34 35 36 
    b393:	48 89 85 38 ff ff ff 	mov    %rax,-0xc8(%rbp)
    b39a:	48 b8 37 38 61 62 63 	movabs $0x6665646362613837,%rax
    b3a1:	64 65 66 
    b3a4:	48 89 85 40 ff ff ff 	mov    %rax,-0xc0(%rbp)
    b3ab:	48 b8 67 68 69 6a 6b 	movabs $0x6e6d6c6b6a696867,%rax
    b3b2:	6c 6d 6e 
    b3b5:	66 44 89 4d 94       	mov    %r9w,-0x6c(%rbp)
    b3ba:	48 c7 85 18 ff ff ff 	movq   $0x0,-0xe8(%rbp)
    b3c1:	00 00 00 00 
    b3c5:	48 89 85 48 ff ff ff 	mov    %rax,-0xb8(%rbp)
    b3cc:	c7 85 50 ff ff ff 6f 	movl   $0x7271706f,-0xb0(%rbp)
    b3d3:	70 71 72 
    b3d6:	48 c7 85 78 ff ff ff 	movq   $0x0,-0x88(%rbp)
    b3dd:	00 00 00 00 
    b3e1:	48 c7 45 80 00 00 00 	movq   $0x0,-0x80(%rbp)
    b3e8:	00 
    b3e9:	48 c7 45 88 00 00 00 	movq   $0x0,-0x78(%rbp)
    b3f0:	00 
    b3f1:	c7 45 90 00 00 00 00 	movl   $0x0,-0x70(%rbp)
    b3f8:	e8 00 00 00 00       	call   b3fd <ftest_send_receive_tripled_with_subscribe+0x13d>
    b3fd:	48 8b bd 18 ff ff ff 	mov    -0xe8(%rbp),%rdi
    b404:	89 85 b4 fe ff ff    	mov    %eax,-0x14c(%rbp)
    b40a:	49 89 c6             	mov    %rax,%r14
    b40d:	e8 00 00 00 00       	call   b412 <ftest_send_receive_tripled_with_subscribe+0x152>
    b412:	48 8b bd 18 ff ff ff 	mov    -0xe8(%rbp),%rdi
    b419:	89 85 b0 fe ff ff    	mov    %eax,-0x150(%rbp)
    b41f:	49 89 c7             	mov    %rax,%r15
    b422:	e8 00 00 00 00       	call   b427 <ftest_send_receive_tripled_with_subscribe+0x167>
    b427:	48 8b bd 18 ff ff ff 	mov    -0xe8(%rbp),%rdi
    b42e:	48 8d b5 38 ff ff ff 	lea    -0xc8(%rbp),%rsi
    b435:	48 89 85 f0 fe ff ff 	mov    %rax,-0x110(%rbp)
    b43c:	e8 00 00 00 00       	call   b441 <ftest_send_receive_tripled_with_subscribe+0x181>
    b441:	48 8b bd 18 ff ff ff 	mov    -0xe8(%rbp),%rdi
    b448:	48 8d b5 42 ff ff ff 	lea    -0xbe(%rbp),%rsi
    b44f:	48 89 85 e8 fe ff ff 	mov    %rax,-0x118(%rbp)
    b456:	e8 00 00 00 00       	call   b45b <ftest_send_receive_tripled_with_subscribe+0x19b>
    b45b:	48 8b bd 18 ff ff ff 	mov    -0xe8(%rbp),%rdi
    b462:	48 8d b5 4c ff ff ff 	lea    -0xb4(%rbp),%rsi
    b469:	48 89 85 e0 fe ff ff 	mov    %rax,-0x120(%rbp)
    b470:	e8 00 00 00 00       	call   b475 <ftest_send_receive_tripled_with_subscribe+0x1b5>
    b475:	48 8b bd 18 ff ff ff 	mov    -0xe8(%rbp),%rdi
    b47c:	48 8d b5 78 ff ff ff 	lea    -0x88(%rbp),%rsi
    b483:	48 89 85 d8 fe ff ff 	mov    %rax,-0x128(%rbp)
    b48a:	e8 00 00 00 00       	call   b48f <ftest_send_receive_tripled_with_subscribe+0x1cf>
    b48f:	48 8b bd 18 ff ff ff 	mov    -0xe8(%rbp),%rdi
    b496:	48 8d 75 82          	lea    -0x7e(%rbp),%rsi
    b49a:	48 89 85 d0 fe ff ff 	mov    %rax,-0x130(%rbp)
    b4a1:	e8 00 00 00 00       	call   b4a6 <ftest_send_receive_tripled_with_subscribe+0x1e6>
    b4a6:	48 8b bd 18 ff ff ff 	mov    -0xe8(%rbp),%rdi
    b4ad:	48 8d 75 8c          	lea    -0x74(%rbp),%rsi
    b4b1:	48 89 85 c8 fe ff ff 	mov    %rax,-0x138(%rbp)
    b4b8:	e8 00 00 00 00       	call   b4bd <ftest_send_receive_tripled_with_subscribe+0x1fd>
    b4bd:	48 8b bd 18 ff ff ff 	mov    -0xe8(%rbp),%rdi
    b4c4:	48 89 85 c0 fe ff ff 	mov    %rax,-0x140(%rbp)
    b4cb:	e8 00 00 00 00       	call   b4d0 <ftest_send_receive_tripled_with_subscribe+0x210>
    b4d0:	4c 8b 95 b8 fe ff ff 	mov    -0x148(%rbp),%r10
    b4d7:	31 d2                	xor    %edx,%edx
    b4d9:	48 b9 00 00 00 00 00 	movabs $0xdffffc0000000000,%rcx
    b4e0:	fc ff df 
    b4e3:	49 89 c3             	mov    %rax,%r11
    b4e6:	49 63 f5             	movslq %r13d,%rsi
    b4e9:	48 83 fe 1d          	cmp    $0x1d,%rsi
    b4ed:	0f 87 6e 02 00 00    	ja     b761 <ftest_send_receive_tripled_with_subscribe+0x4a1>
    b4f3:	4c 89 e0             	mov    %r12,%rax
    b4f6:	4c 89 e7             	mov    %r12,%rdi
    b4f9:	48 c1 e8 03          	shr    $0x3,%rax
    b4fd:	83 e7 07             	and    $0x7,%edi
    b500:	0f b6 04 08          	movzbl (%rax,%rcx,1),%eax
    b504:	40 38 f8             	cmp    %dil,%al
    b507:	7f 08                	jg     b511 <ftest_send_receive_tripled_with_subscribe+0x251>
    b509:	84 c0                	test   %al,%al
    b50b:	0f 85 02 02 00 00    	jne    b713 <ftest_send_receive_tripled_with_subscribe+0x453>
    b511:	45 0f b6 04 24       	movzbl (%r12),%r8d
    b516:	48 83 fe 1d          	cmp    $0x1d,%rsi
    b51a:	0f 87 a0 01 00 00    	ja     b6c0 <ftest_send_receive_tripled_with_subscribe+0x400>
    b520:	48 89 d8             	mov    %rbx,%rax
    b523:	48 89 de             	mov    %rbx,%rsi
    b526:	48 c1 e8 03          	shr    $0x3,%rax
    b52a:	83 e6 07             	and    $0x7,%esi
    b52d:	0f b6 04 08          	movzbl (%rax,%rcx,1),%eax
    b531:	40 38 f0             	cmp    %sil,%al
    b534:	7f 08                	jg     b53e <ftest_send_receive_tripled_with_subscribe+0x27e>
    b536:	84 c0                	test   %al,%al
    b538:	0f 85 33 01 00 00    	jne    b671 <ftest_send_receive_tripled_with_subscribe+0x3b1>
    b53e:	44 3a 03             	cmp    (%rbx),%r8b
    b541:	b8 01 00 00 00       	mov    $0x1,%eax
    b546:	0f 45 d0             	cmovne %eax,%edx
    b549:	41 83 c5 01          	add    $0x1,%r13d
    b54d:	49 83 c4 01          	add    $0x1,%r12
    b551:	48 83 c3 01          	add    $0x1,%rbx
    b555:	41 83 fd 14          	cmp    $0x14,%r13d
    b559:	75 8b                	jne    b4e6 <ftest_send_receive_tripled_with_subscribe+0x226>
    b55b:	44 89 f8             	mov    %r15d,%eax
    b55e:	48 8b 8d 18 ff ff ff 	mov    -0xe8(%rbp),%rcx
    b565:	44 09 f0             	or     %r14d,%eax
    b568:	0b 85 f0 fe ff ff    	or     -0x110(%rbp),%eax
    b56e:	0b 85 e8 fe ff ff    	or     -0x118(%rbp),%eax
    b574:	0b 85 e0 fe ff ff    	or     -0x120(%rbp),%eax
    b57a:	0b 85 d0 fe ff ff    	or     -0x130(%rbp),%eax
    b580:	0b 85 c8 fe ff ff    	or     -0x138(%rbp),%eax
    b586:	44 09 d8             	or     %r11d,%eax
    b589:	75 67                	jne    b5f2 <ftest_send_receive_tripled_with_subscribe+0x332>
    b58b:	8b bd d8 fe ff ff    	mov    -0x128(%rbp),%edi
    b591:	85 ff                	test   %edi,%edi
    b593:	74 5d                	je     b5f2 <ftest_send_receive_tripled_with_subscribe+0x332>
    b595:	8b b5 c0 fe ff ff    	mov    -0x140(%rbp),%esi
    b59b:	85 f6                	test   %esi,%esi
    b59d:	74 53                	je     b5f2 <ftest_send_receive_tripled_with_subscribe+0x332>
    b59f:	84 d2                	test   %dl,%dl
    b5a1:	75 4f                	jne    b5f2 <ftest_send_receive_tripled_with_subscribe+0x332>
    b5a3:	48 85 c9             	test   %rcx,%rcx
    b5a6:	74 4a                	je     b5f2 <ftest_send_receive_tripled_with_subscribe+0x332>
    b5a8:	48 ba 00 00 00 00 00 	movabs $0xdffffc0000000000,%rdx
    b5af:	fc ff df 
    b5b2:	49 01 d2             	add    %rdx,%r10
    b5b5:	49 c7 02 00 00 00 00 	movq   $0x0,(%r10)
    b5bc:	49 c7 42 08 00 00 00 	movq   $0x0,0x8(%r10)
    b5c3:	00 
    b5c4:	49 c7 42 10 00 00 00 	movq   $0x0,0x10(%r10)
    b5cb:	00 
    b5cc:	48 8b 55 d0          	mov    -0x30(%rbp),%rdx
    b5d0:	65 48 2b 14 25 28 00 	sub    %gs:0x28,%rdx
    b5d7:	00 00 
    b5d9:	0f 85 d4 01 00 00    	jne    b7b3 <ftest_send_receive_tripled_with_subscribe+0x4f3>
    b5df:	48 8d 65 d8          	lea    -0x28(%rbp),%rsp
    b5e3:	5b                   	pop    %rbx
    b5e4:	41 5c                	pop    %r12
    b5e6:	41 5d                	pop    %r13
    b5e8:	41 5e                	pop    %r14
    b5ea:	41 5f                	pop    %r15
    b5ec:	5d                   	pop    %rbp
    b5ed:	e9 00 00 00 00       	jmp    b5f2 <ftest_send_receive_tripled_with_subscribe+0x332>
    b5f2:	48 8d 85 38 ff ff ff 	lea    -0xc8(%rbp),%rax
    b5f9:	44 8b 8d e8 fe ff ff 	mov    -0x118(%rbp),%r9d
    b600:	44 8b 85 f0 fe ff ff 	mov    -0x110(%rbp),%r8d
    b607:	4c 89 95 b8 fe ff ff 	mov    %r10,-0x148(%rbp)
    b60e:	8b 95 b4 fe ff ff    	mov    -0x14c(%rbp),%edx
    b614:	48 8b 35 00 00 00 00 	mov    0x0(%rip),%rsi        # b61b <ftest_send_receive_tripled_with_subscribe+0x35b>
    b61b:	50                   	push   %rax
    b61c:	48 8d 85 78 ff ff ff 	lea    -0x88(%rbp),%rax
    b623:	50                   	push   %rax
    b624:	8b 85 c0 fe ff ff    	mov    -0x140(%rbp),%eax
    b62a:	51                   	push   %rcx
    b62b:	8b 8d b0 fe ff ff    	mov    -0x150(%rbp),%ecx
    b631:	41 53                	push   %r11
    b633:	50                   	push   %rax
    b634:	8b 85 c8 fe ff ff    	mov    -0x138(%rbp),%eax
    b63a:	48 8d 3d 00 00 00 00 	lea    0x0(%rip),%rdi        # b641 <ftest_send_receive_tripled_with_subscribe+0x381>
    b641:	50                   	push   %rax
    b642:	8b 85 d0 fe ff ff    	mov    -0x130(%rbp),%eax
    b648:	50                   	push   %rax
    b649:	8b 85 d8 fe ff ff    	mov    -0x128(%rbp),%eax
    b64f:	50                   	push   %rax
    b650:	8b 85 e0 fe ff ff    	mov    -0x120(%rbp),%eax
    b656:	50                   	push   %rax
    b657:	e8 00 00 00 00       	call   b65c <ftest_send_receive_tripled_with_subscribe+0x39c>
    b65c:	4c 8b 95 b8 fe ff ff 	mov    -0x148(%rbp),%r10
    b663:	b8 fe ff ff ff       	mov    $0xfffffffe,%eax
    b668:	48 83 c4 48          	add    $0x48,%rsp
    b66c:	e9 37 ff ff ff       	jmp    b5a8 <ftest_send_receive_tripled_with_subscribe+0x2e8>
    b671:	48 89 df             	mov    %rbx,%rdi
    b674:	4c 89 95 98 fe ff ff 	mov    %r10,-0x168(%rbp)
    b67b:	88 95 a7 fe ff ff    	mov    %dl,-0x159(%rbp)
    b681:	4c 89 9d a8 fe ff ff 	mov    %r11,-0x158(%rbp)
    b688:	44 88 85 b8 fe ff ff 	mov    %r8b,-0x148(%rbp)
    b68f:	e8 00 00 00 00       	call   b694 <ftest_send_receive_tripled_with_subscribe+0x3d4>
    b694:	4c 8b 95 98 fe ff ff 	mov    -0x168(%rbp),%r10
    b69b:	0f b6 95 a7 fe ff ff 	movzbl -0x159(%rbp),%edx
    b6a2:	48 b9 00 00 00 00 00 	movabs $0xdffffc0000000000,%rcx
    b6a9:	fc ff df 
    b6ac:	4c 8b 9d a8 fe ff ff 	mov    -0x158(%rbp),%r11
    b6b3:	44 0f b6 85 b8 fe ff 	movzbl -0x148(%rbp),%r8d
    b6ba:	ff 
    b6bb:	e9 7e fe ff ff       	jmp    b53e <ftest_send_receive_tripled_with_subscribe+0x27e>
    b6c0:	48 c7 c7 00 00 00 00 	mov    $0x0,%rdi
    b6c7:	4c 89 95 98 fe ff ff 	mov    %r10,-0x168(%rbp)
    b6ce:	88 95 a7 fe ff ff    	mov    %dl,-0x159(%rbp)
    b6d4:	4c 89 9d a8 fe ff ff 	mov    %r11,-0x158(%rbp)
    b6db:	44 88 85 b8 fe ff ff 	mov    %r8b,-0x148(%rbp)
    b6e2:	e8 00 00 00 00       	call   b6e7 <ftest_send_receive_tripled_with_subscribe+0x427>
    b6e7:	4c 8b 95 98 fe ff ff 	mov    -0x168(%rbp),%r10
    b6ee:	0f b6 95 a7 fe ff ff 	movzbl -0x159(%rbp),%edx
    b6f5:	48 b9 00 00 00 00 00 	movabs $0xdffffc0000000000,%rcx
    b6fc:	fc ff df 
    b6ff:	4c 8b 9d a8 fe ff ff 	mov    -0x158(%rbp),%r11
    b706:	44 0f b6 85 b8 fe ff 	movzbl -0x148(%rbp),%r8d
    b70d:	ff 
    b70e:	e9 0d fe ff ff       	jmp    b520 <ftest_send_receive_tripled_with_subscribe+0x260>
    b713:	4c 89 e7             	mov    %r12,%rdi
    b716:	4c 89 95 98 fe ff ff 	mov    %r10,-0x168(%rbp)
    b71d:	88 95 a7 fe ff ff    	mov    %dl,-0x159(%rbp)
    b723:	4c 89 9d a8 fe ff ff 	mov    %r11,-0x158(%rbp)
    b72a:	48 89 b5 b8 fe ff ff 	mov    %rsi,-0x148(%rbp)
    b731:	e8 00 00 00 00       	call   b736 <ftest_send_receive_tripled_with_subscribe+0x476>
    b736:	4c 8b 95 98 fe ff ff 	mov    -0x168(%rbp),%r10
    b73d:	0f b6 95 a7 fe ff ff 	movzbl -0x159(%rbp),%edx
    b744:	48 b9 00 00 00 00 00 	movabs $0xdffffc0000000000,%rcx
    b74b:	fc ff df 
    b74e:	4c 8b 9d a8 fe ff ff 	mov    -0x158(%rbp),%r11
    b755:	48 8b b5 b8 fe ff ff 	mov    -0x148(%rbp),%rsi
    b75c:	e9 b0 fd ff ff       	jmp    b511 <ftest_send_receive_tripled_with_subscribe+0x251>
    b761:	48 c7 c7 00 00 00 00 	mov    $0x0,%rdi
    b768:	4c 89 95 98 fe ff ff 	mov    %r10,-0x168(%rbp)
    b76f:	88 95 a7 fe ff ff    	mov    %dl,-0x159(%rbp)
    b775:	4c 89 9d a8 fe ff ff 	mov    %r11,-0x158(%rbp)
    b77c:	48 89 b5 b8 fe ff ff 	mov    %rsi,-0x148(%rbp)
    b783:	e8 00 00 00 00       	call   b788 <ftest_send_receive_tripled_with_subscribe+0x4c8>
    b788:	4c 8b 95 98 fe ff ff 	mov    -0x168(%rbp),%r10
    b78f:	0f b6 95 a7 fe ff ff 	movzbl -0x159(%rbp),%edx
    b796:	48 b9 00 00 00 00 00 	movabs $0xdffffc0000000000,%rcx
    b79d:	fc ff df 
    b7a0:	4c 8b 9d a8 fe ff ff 	mov    -0x158(%rbp),%r11
    b7a7:	48 8b b5 b8 fe ff ff 	mov    -0x148(%rbp),%rsi
    b7ae:	e9 40 fd ff ff       	jmp    b4f3 <ftest_send_receive_tripled_with_subscribe+0x233>
    b7b3:	e8 00 00 00 00       	call   b7b8 <ftest_send_receive_tripled_with_subscribe+0x4f8>

Дизассемблирование раздела .text.exit:

0000000000000000 <__pfx__sub_D_65535_0>:
   0:	90                   	nop
   1:	90                   	nop
   2:	90                   	nop
   3:	90                   	nop
   4:	90                   	nop
   5:	90                   	nop
   6:	90                   	nop
   7:	90                   	nop
   8:	90                   	nop
   9:	90                   	nop
   a:	90                   	nop
   b:	90                   	nop
   c:	90                   	nop
   d:	90                   	nop
   e:	90                   	nop
   f:	90                   	nop

0000000000000010 <_sub_D_65535_0>:
  10:	f3 0f 1e fa          	endbr64
  14:	55                   	push   %rbp
  15:	be 03 00 00 00       	mov    $0x3,%esi
  1a:	48 c7 c7 00 00 00 00 	mov    $0x0,%rdi
  21:	48 89 e5             	mov    %rsp,%rbp
  24:	e8 00 00 00 00       	call   29 <_sub_D_65535_0+0x19>
  29:	5d                   	pop    %rbp
  2a:	e9 00 00 00 00       	jmp    2f <_sub_D_65535_0+0x1f>
  2f:	90                   	nop

0000000000000030 <__pfx__sub_D_65535_0>:
  30:	90                   	nop
  31:	90                   	nop
  32:	90                   	nop
  33:	90                   	nop
  34:	90                   	nop
  35:	90                   	nop
  36:	90                   	nop
  37:	90                   	nop
  38:	90                   	nop
  39:	90                   	nop
  3a:	90                   	nop
  3b:	90                   	nop
  3c:	90                   	nop
  3d:	90                   	nop
  3e:	90                   	nop
  3f:	90                   	nop

0000000000000040 <_sub_D_65535_0>:
  40:	f3 0f 1e fa          	endbr64
  44:	55                   	push   %rbp
  45:	be 08 00 00 00       	mov    $0x8,%esi
  4a:	48 c7 c7 00 00 00 00 	mov    $0x0,%rdi
  51:	48 89 e5             	mov    %rsp,%rbp
  54:	e8 00 00 00 00       	call   59 <_sub_D_65535_0+0x19>
  59:	5d                   	pop    %rbp
  5a:	e9 00 00 00 00       	jmp    5f <_sub_D_65535_0+0x1f>
  5f:	90                   	nop

0000000000000060 <__pfx__sub_D_65535_0>:
  60:	90                   	nop
  61:	90                   	nop
  62:	90                   	nop
  63:	90                   	nop
  64:	90                   	nop
  65:	90                   	nop
  66:	90                   	nop
  67:	90                   	nop
  68:	90                   	nop
  69:	90                   	nop
  6a:	90                   	nop
  6b:	90                   	nop
  6c:	90                   	nop
  6d:	90                   	nop
  6e:	90                   	nop
  6f:	90                   	nop

0000000000000070 <_sub_D_65535_0>:
  70:	f3 0f 1e fa          	endbr64
  74:	55                   	push   %rbp
  75:	be 10 00 00 00       	mov    $0x10,%esi
  7a:	48 c7 c7 00 00 00 00 	mov    $0x0,%rdi
  81:	48 89 e5             	mov    %rsp,%rbp
  84:	e8 00 00 00 00       	call   89 <_sub_D_65535_0+0x19>
  89:	5d                   	pop    %rbp
  8a:	e9 00 00 00 00       	jmp    8f <_sub_D_65535_0+0x1f>
  8f:	90                   	nop

0000000000000090 <__pfx__sub_D_65535_0>:
  90:	90                   	nop
  91:	90                   	nop
  92:	90                   	nop
  93:	90                   	nop
  94:	90                   	nop
  95:	90                   	nop
  96:	90                   	nop
  97:	90                   	nop
  98:	90                   	nop
  99:	90                   	nop
  9a:	90                   	nop
  9b:	90                   	nop
  9c:	90                   	nop
  9d:	90                   	nop
  9e:	90                   	nop
  9f:	90                   	nop

00000000000000a0 <_sub_D_65535_0>:
  a0:	f3 0f 1e fa          	endbr64
  a4:	55                   	push   %rbp
  a5:	be 10 00 00 00       	mov    $0x10,%esi
  aa:	48 c7 c7 00 00 00 00 	mov    $0x0,%rdi
  b1:	48 89 e5             	mov    %rsp,%rbp
  b4:	e8 00 00 00 00       	call   b9 <_sub_D_65535_0+0x19>
  b9:	5d                   	pop    %rbp
  ba:	e9 00 00 00 00       	jmp    bf <_sub_D_65535_0+0x1f>
  bf:	90                   	nop

00000000000000c0 <__pfx__sub_D_65535_0>:
  c0:	90                   	nop
  c1:	90                   	nop
  c2:	90                   	nop
  c3:	90                   	nop
  c4:	90                   	nop
  c5:	90                   	nop
  c6:	90                   	nop
  c7:	90                   	nop
  c8:	90                   	nop
  c9:	90                   	nop
  ca:	90                   	nop
  cb:	90                   	nop
  cc:	90                   	nop
  cd:	90                   	nop
  ce:	90                   	nop
  cf:	90                   	nop

00000000000000d0 <_sub_D_65535_0>:
  d0:	f3 0f 1e fa          	endbr64
  d4:	55                   	push   %rbp
  d5:	be 23 00 00 00       	mov    $0x23,%esi
  da:	48 c7 c7 00 00 00 00 	mov    $0x0,%rdi
  e1:	48 89 e5             	mov    %rsp,%rbp
  e4:	e8 00 00 00 00       	call   e9 <_sub_D_65535_0+0x19>
  e9:	5d                   	pop    %rbp
  ea:	e9 00 00 00 00       	jmp    ef <_sub_D_65535_0+0x1f>
  ef:	90                   	nop

00000000000000f0 <__pfx__sub_D_65535_0>:
  f0:	90                   	nop
  f1:	90                   	nop
  f2:	90                   	nop
  f3:	90                   	nop
  f4:	90                   	nop
  f5:	90                   	nop
  f6:	90                   	nop
  f7:	90                   	nop
  f8:	90                   	nop
  f9:	90                   	nop
  fa:	90                   	nop
  fb:	90                   	nop
  fc:	90                   	nop
  fd:	90                   	nop
  fe:	90                   	nop
  ff:	90                   	nop

0000000000000100 <_sub_D_65535_0>:
 100:	f3 0f 1e fa          	endbr64
 104:	55                   	push   %rbp
 105:	be 1d 00 00 00       	mov    $0x1d,%esi
 10a:	48 c7 c7 00 00 00 00 	mov    $0x0,%rdi
 111:	48 89 e5             	mov    %rsp,%rbp
 114:	e8 00 00 00 00       	call   119 <_sub_D_65535_0+0x19>
 119:	5d                   	pop    %rbp
 11a:	e9 00 00 00 00       	jmp    11f <_sub_D_65535_0+0x1f>
 11f:	90                   	nop

0000000000000120 <__pfx__sub_D_65535_0>:
 120:	90                   	nop
 121:	90                   	nop
 122:	90                   	nop
 123:	90                   	nop
 124:	90                   	nop
 125:	90                   	nop
 126:	90                   	nop
 127:	90                   	nop
 128:	90                   	nop
 129:	90                   	nop
 12a:	90                   	nop
 12b:	90                   	nop
 12c:	90                   	nop
 12d:	90                   	nop
 12e:	90                   	nop
 12f:	90                   	nop

0000000000000130 <_sub_D_65535_0>:
 130:	f3 0f 1e fa          	endbr64
 134:	55                   	push   %rbp
 135:	be 2f 00 00 00       	mov    $0x2f,%esi
 13a:	48 c7 c7 00 00 00 00 	mov    $0x0,%rdi
 141:	48 89 e5             	mov    %rsp,%rbp
 144:	e8 00 00 00 00       	call   149 <_sub_D_65535_0+0x19>
 149:	5d                   	pop    %rbp
 14a:	e9 00 00 00 00       	jmp    14f <trace_printk_fmt.27+0x7>

Дизассемблирование раздела .text.startup:

0000000000000000 <__pfx__sub_I_65535_1>:
   0:	90                   	nop
   1:	90                   	nop
   2:	90                   	nop
   3:	90                   	nop
   4:	90                   	nop
   5:	90                   	nop
   6:	90                   	nop
   7:	90                   	nop
   8:	90                   	nop
   9:	90                   	nop
   a:	90                   	nop
   b:	90                   	nop
   c:	90                   	nop
   d:	90                   	nop
   e:	90                   	nop
   f:	90                   	nop

0000000000000010 <_sub_I_65535_1>:
  10:	f3 0f 1e fa          	endbr64
  14:	55                   	push   %rbp
  15:	be 03 00 00 00       	mov    $0x3,%esi
  1a:	48 c7 c7 00 00 00 00 	mov    $0x0,%rdi
  21:	48 89 e5             	mov    %rsp,%rbp
  24:	e8 00 00 00 00       	call   29 <_sub_I_65535_1+0x19>
  29:	5d                   	pop    %rbp
  2a:	e9 00 00 00 00       	jmp    2f <_sub_I_65535_1+0x1f>
  2f:	90                   	nop

0000000000000030 <__pfx__sub_I_65535_1>:
  30:	90                   	nop
  31:	90                   	nop
  32:	90                   	nop
  33:	90                   	nop
  34:	90                   	nop
  35:	90                   	nop
  36:	90                   	nop
  37:	90                   	nop
  38:	90                   	nop
  39:	90                   	nop
  3a:	90                   	nop
  3b:	90                   	nop
  3c:	90                   	nop
  3d:	90                   	nop
  3e:	90                   	nop
  3f:	90                   	nop

0000000000000040 <_sub_I_65535_1>:
  40:	f3 0f 1e fa          	endbr64
  44:	55                   	push   %rbp
  45:	be 08 00 00 00       	mov    $0x8,%esi
  4a:	48 c7 c7 00 00 00 00 	mov    $0x0,%rdi
  51:	48 89 e5             	mov    %rsp,%rbp
  54:	e8 00 00 00 00       	call   59 <_sub_I_65535_1+0x19>
  59:	5d                   	pop    %rbp
  5a:	e9 00 00 00 00       	jmp    5f <_sub_I_65535_1+0x1f>
  5f:	90                   	nop

0000000000000060 <__pfx__sub_I_65535_1>:
  60:	90                   	nop
  61:	90                   	nop
  62:	90                   	nop
  63:	90                   	nop
  64:	90                   	nop
  65:	90                   	nop
  66:	90                   	nop
  67:	90                   	nop
  68:	90                   	nop
  69:	90                   	nop
  6a:	90                   	nop
  6b:	90                   	nop
  6c:	90                   	nop
  6d:	90                   	nop
  6e:	90                   	nop
  6f:	90                   	nop

0000000000000070 <_sub_I_65535_1>:
  70:	f3 0f 1e fa          	endbr64
  74:	55                   	push   %rbp
  75:	be 10 00 00 00       	mov    $0x10,%esi
  7a:	48 c7 c7 00 00 00 00 	mov    $0x0,%rdi
  81:	48 89 e5             	mov    %rsp,%rbp
  84:	e8 00 00 00 00       	call   89 <_sub_I_65535_1+0x19>
  89:	5d                   	pop    %rbp
  8a:	e9 00 00 00 00       	jmp    8f <_sub_I_65535_1+0x1f>
  8f:	90                   	nop

0000000000000090 <__pfx__sub_I_65535_1>:
  90:	90                   	nop
  91:	90                   	nop
  92:	90                   	nop
  93:	90                   	nop
  94:	90                   	nop
  95:	90                   	nop
  96:	90                   	nop
  97:	90                   	nop
  98:	90                   	nop
  99:	90                   	nop
  9a:	90                   	nop
  9b:	90                   	nop
  9c:	90                   	nop
  9d:	90                   	nop
  9e:	90                   	nop
  9f:	90                   	nop

00000000000000a0 <_sub_I_65535_1>:
  a0:	f3 0f 1e fa          	endbr64
  a4:	55                   	push   %rbp
  a5:	be 10 00 00 00       	mov    $0x10,%esi
  aa:	48 c7 c7 00 00 00 00 	mov    $0x0,%rdi
  b1:	48 89 e5             	mov    %rsp,%rbp
  b4:	e8 00 00 00 00       	call   b9 <_sub_I_65535_1+0x19>
  b9:	5d                   	pop    %rbp
  ba:	e9 00 00 00 00       	jmp    bf <_sub_I_65535_1+0x1f>
  bf:	90                   	nop

00000000000000c0 <__pfx__sub_I_65535_1>:
  c0:	90                   	nop
  c1:	90                   	nop
  c2:	90                   	nop
  c3:	90                   	nop
  c4:	90                   	nop
  c5:	90                   	nop
  c6:	90                   	nop
  c7:	90                   	nop
  c8:	90                   	nop
  c9:	90                   	nop
  ca:	90                   	nop
  cb:	90                   	nop
  cc:	90                   	nop
  cd:	90                   	nop
  ce:	90                   	nop
  cf:	90                   	nop

00000000000000d0 <_sub_I_65535_1>:
  d0:	f3 0f 1e fa          	endbr64
  d4:	55                   	push   %rbp
  d5:	be 23 00 00 00       	mov    $0x23,%esi
  da:	48 c7 c7 00 00 00 00 	mov    $0x0,%rdi
  e1:	48 89 e5             	mov    %rsp,%rbp
  e4:	e8 00 00 00 00       	call   e9 <_sub_I_65535_1+0x19>
  e9:	5d                   	pop    %rbp
  ea:	e9 00 00 00 00       	jmp    ef <_sub_I_65535_1+0x1f>
  ef:	90                   	nop

00000000000000f0 <__pfx__sub_I_65535_1>:
  f0:	90                   	nop
  f1:	90                   	nop
  f2:	90                   	nop
  f3:	90                   	nop
  f4:	90                   	nop
  f5:	90                   	nop
  f6:	90                   	nop
  f7:	90                   	nop
  f8:	90                   	nop
  f9:	90                   	nop
  fa:	90                   	nop
  fb:	90                   	nop
  fc:	90                   	nop
  fd:	90                   	nop
  fe:	90                   	nop
  ff:	90                   	nop

0000000000000100 <_sub_I_65535_1>:
 100:	f3 0f 1e fa          	endbr64
 104:	55                   	push   %rbp
 105:	be 1d 00 00 00       	mov    $0x1d,%esi
 10a:	48 c7 c7 00 00 00 00 	mov    $0x0,%rdi
 111:	48 89 e5             	mov    %rsp,%rbp
 114:	e8 00 00 00 00       	call   119 <_sub_I_65535_1+0x19>
 119:	5d                   	pop    %rbp
 11a:	e9 00 00 00 00       	jmp    11f <_sub_I_65535_1+0x1f>
 11f:	90                   	nop

0000000000000120 <__pfx__sub_I_65535_1>:
 120:	90                   	nop
 121:	90                   	nop
 122:	90                   	nop
 123:	90                   	nop
 124:	90                   	nop
 125:	90                   	nop
 126:	90                   	nop
 127:	90                   	nop
 128:	90                   	nop
 129:	90                   	nop
 12a:	90                   	nop
 12b:	90                   	nop
 12c:	90                   	nop
 12d:	90                   	nop
 12e:	90                   	nop
 12f:	90                   	nop

0000000000000130 <_sub_I_65535_1>:
 130:	f3 0f 1e fa          	endbr64
 134:	55                   	push   %rbp
 135:	be 2f 00 00 00       	mov    $0x2f,%esi
 13a:	48 c7 c7 00 00 00 00 	mov    $0x0,%rdi
 141:	48 89 e5             	mov    %rsp,%rbp
 144:	e8 00 00 00 00       	call   149 <_sub_I_65535_1+0x19>
 149:	5d                   	pop    %rbp
 14a:	e9 00 00 00 00       	jmp    14f <trace_printk_fmt.27+0x7>

Дизассемблирование раздела .text.unlikely:

0000000000000000 <find_subscriber.cold>:
   0:	0f b6 f3             	movzbl %bl,%esi
   3:	48 c7 c7 00 00 00 00 	mov    $0x0,%rdi
   a:	e8 00 00 00 00       	call   f <find_subscriber.cold+0xf>
   f:	e9 00 00 00 00       	jmp    14 <find_subscriber.cold+0x14>
  14:	0f b6 f3             	movzbl %bl,%esi
  17:	48 c7 c7 00 00 00 00 	mov    $0x0,%rdi
  1e:	e8 00 00 00 00       	call   23 <find_subscriber.cold+0x23>
  23:	e9 00 00 00 00       	jmp    28 <find_publisher.cold>

0000000000000028 <find_publisher.cold>:
  28:	0f b6 f3             	movzbl %bl,%esi
  2b:	48 c7 c7 00 00 00 00 	mov    $0x0,%rdi
  32:	e8 00 00 00 00       	call   37 <find_publisher.cold+0xf>
  37:	e9 00 00 00 00       	jmp    3c <find_publisher.cold+0x14>
  3c:	0f b6 f3             	movzbl %bl,%esi
  3f:	48 c7 c7 00 00 00 00 	mov    $0x0,%rdi
  46:	e8 00 00 00 00       	call   4b <find_publisher.cold+0x23>
  4b:	e9 00 00 00 00       	jmp    50 <deinit_nodes.cold>

0000000000000050 <deinit_nodes.cold>:
  50:	0f b6 f3             	movzbl %bl,%esi
  53:	48 c7 c7 00 00 00 00 	mov    $0x0,%rdi
  5a:	e8 00 00 00 00       	call   5f <deinit_nodes.cold+0xf>
  5f:	e9 00 00 00 00       	jmp    64 <deinit_nodes.cold+0x14>
  64:	0f b6 f3             	movzbl %bl,%esi
  67:	48 c7 c7 00 00 00 00 	mov    $0x0,%rdi
  6e:	e8 00 00 00 00       	call   73 <deinit_nodes.cold+0x23>
  73:	e9 00 00 00 00       	jmp    78 <acquire_node.cold>

0000000000000078 <acquire_node.cold>:
  78:	0f b6 f3             	movzbl %bl,%esi
  7b:	48 c7 c7 00 00 00 00 	mov    $0x0,%rdi
  82:	e8 00 00 00 00       	call   87 <acquire_node.cold+0xf>
  87:	e9 00 00 00 00       	jmp    8c <acquire_node.cold+0x14>
  8c:	0f b6 f3             	movzbl %bl,%esi
  8f:	48 c7 c7 00 00 00 00 	mov    $0x0,%rdi
  96:	e8 00 00 00 00       	call   9b <acquire_node.cold+0x23>
  9b:	e9 00 00 00 00       	jmp    a0 <_sub_D_65535_0>

Дизассемблирование раздела .exit.text:

0000000000000000 <__pfx_cleanup_module>:
   0:	90                   	nop
   1:	90                   	nop
   2:	90                   	nop
   3:	90                   	nop
   4:	90                   	nop
   5:	90                   	nop
   6:	90                   	nop
   7:	90                   	nop
   8:	90                   	nop
   9:	90                   	nop
   a:	90                   	nop
   b:	90                   	nop
   c:	90                   	nop
   d:	90                   	nop
   e:	90                   	nop
   f:	90                   	nop

0000000000000010 <cleanup_module>:
  10:	f3 0f 1e fa          	endbr64
  14:	e9 00 00 00 00       	jmp    19 <_note_18+0x1>

Дизассемблирование раздела .init.text:

0000000000000000 <__pfx_init_module>:
   0:	90                   	nop
   1:	90                   	nop
   2:	90                   	nop
   3:	90                   	nop
   4:	90                   	nop
   5:	90                   	nop
   6:	90                   	nop
   7:	90                   	nop
   8:	90                   	nop
   9:	90                   	nop
   a:	90                   	nop
   b:	90                   	nop
   c:	90                   	nop
   d:	90                   	nop
   e:	90                   	nop
   f:	90                   	nop

0000000000000010 <init_module>:
  10:	f3 0f 1e fa          	endbr64
  14:	e8 00 00 00 00       	call   19 <init_module+0x9>
  19:	55                   	push   %rbp
  1a:	48 89 e5             	mov    %rsp,%rbp
  1d:	e8 00 00 00 00       	call   22 <init_module+0x12>
  22:	e8 00 00 00 00       	call   27 <init_module+0x17>
  27:	bf fd 90 bd 00       	mov    $0xbd90fd,%edi
  2c:	e8 00 00 00 00       	call   31 <init_module+0x21>
  31:	85 c0                	test   %eax,%eax
  33:	74 49                	je     7e <init_module+0x6e>
  35:	e8 00 00 00 00       	call   3a <init_module+0x2a>
  3a:	e8 00 00 00 00       	call   3f <init_module+0x2f>
  3f:	e8 00 00 00 00       	call   44 <init_module+0x34>
  44:	e8 00 00 00 00       	call   49 <init_module+0x39>
  49:	e8 00 00 00 00       	call   4e <init_module+0x3e>
  4e:	e8 00 00 00 00       	call   53 <init_module+0x43>
  53:	e8 00 00 00 00       	call   58 <init_module+0x48>
  58:	e8 00 00 00 00       	call   5d <init_module+0x4d>
  5d:	e8 00 00 00 00       	call   62 <init_module+0x52>
  62:	e8 00 00 00 00       	call   67 <init_module+0x57>
  67:	e8 00 00 00 00       	call   6c <init_module+0x5c>
  6c:	e8 00 00 00 00       	call   71 <init_module+0x61>
  71:	e8 00 00 00 00       	call   76 <init_module+0x66>
  76:	31 c0                	xor    %eax,%eax
  78:	5d                   	pop    %rbp
  79:	e9 00 00 00 00       	jmp    7e <init_module+0x6e>
  7e:	48 8b 35 00 00 00 00 	mov    0x0(%rip),%rsi        # 85 <init_module+0x75>
  85:	31 d2                	xor    %edx,%edx
  87:	48 8d 3d 00 00 00 00 	lea    0x0(%rip),%rdi        # 8e <init_module+0x7e>
  8e:	e8 00 00 00 00       	call   93 <init_module+0x83>
  93:	eb a0                	jmp    35 <init_module+0x25>
